
NCS36510/RSL10_Console_BLEClientServer_SPI_Transfer.elf:     file format elf32-littlearm
architecture: arm, flags 0x00000112:
EXEC_P, HAS_SYMS, D_PAGED
start address 0x00107bfd


Disassembly of section .text:

00102000 <__isr_vector>:
  102000:	3fffd800 	.word	0x3fffd800
  102004:	00107bfd 	.word	0x00107bfd
  102008:	00107c39 	.word	0x00107c39
  10200c:	00107c3b 	.word	0x00107c3b
  102010:	00107c3d 	.word	0x00107c3d
  102014:	00107c3f 	.word	0x00107c3f
  102018:	00107c41 	.word	0x00107c41
	...
  10202c:	00104dcd 	.word	0x00104dcd
  102030:	00107c45 	.word	0x00107c45
  102034:	00000000 	.word	0x00000000
  102038:	00104e37 	.word	0x00104e37
  10203c:	00104e6d 	.word	0x00104e6d
  102040:	001069cd 	.word	0x001069cd
  102044:	00106b39 	.word	0x00106b39
  102048:	00107c4b 	.word	0x00107c4b
  10204c:	00106461 	.word	0x00106461
  102050:	00107c4b 	.word	0x00107c4b
  102054:	00107c4b 	.word	0x00107c4b
  102058:	00105775 	.word	0x00105775
  10205c:	00107c4b 	.word	0x00107c4b
  102060:	00107c4b 	.word	0x00107c4b
  102064:	00107c4b 	.word	0x00107c4b
  102068:	00107c4b 	.word	0x00107c4b
  10206c:	00107c4b 	.word	0x00107c4b
  102070:	00107c4b 	.word	0x00107c4b
  102074:	00107c4b 	.word	0x00107c4b
  102078:	00107c4b 	.word	0x00107c4b
  10207c:	00107c4b 	.word	0x00107c4b
  102080:	00107c4b 	.word	0x00107c4b
  102084:	00107c4b 	.word	0x00107c4b
  102088:	00107c4b 	.word	0x00107c4b
  10208c:	00107c4b 	.word	0x00107c4b
  102090:	3fffd800 	.word	0x3fffd800
  102094:	00107bfd 	.word	0x00107bfd
  102098:	00107c39 	.word	0x00107c39
  10209c:	00107c3b 	.word	0x00107c3b
  1020a0:	00107c3d 	.word	0x00107c3d
  1020a4:	00107c3f 	.word	0x00107c3f
  1020a8:	00107c41 	.word	0x00107c41
	...
  1020bc:	00104dcd 	.word	0x00104dcd
  1020c0:	00107c45 	.word	0x00107c45
  1020c4:	00000000 	.word	0x00000000
  1020c8:	00104e37 	.word	0x00104e37
  1020cc:	00104e6d 	.word	0x00104e6d
  1020d0:	001069cd 	.word	0x001069cd
  1020d4:	00106b39 	.word	0x00106b39
  1020d8:	00107c4b 	.word	0x00107c4b
  1020dc:	00106461 	.word	0x00106461
  1020e0:	00107c4b 	.word	0x00107c4b
  1020e4:	00107c4b 	.word	0x00107c4b
  1020e8:	00105775 	.word	0x00105775
  1020ec:	00107c4b 	.word	0x00107c4b
  1020f0:	00107c4b 	.word	0x00107c4b
  1020f4:	00107c4b 	.word	0x00107c4b
  1020f8:	00107c4b 	.word	0x00107c4b
  1020fc:	00107c4b 	.word	0x00107c4b
  102100:	00107c4b 	.word	0x00107c4b
  102104:	00107c4b 	.word	0x00107c4b
  102108:	00107c4b 	.word	0x00107c4b
  10210c:	00107c4b 	.word	0x00107c4b
  102110:	00107c4b 	.word	0x00107c4b
  102114:	00107c4b 	.word	0x00107c4b
  102118:	00107c4b 	.word	0x00107c4b
  10211c:	00107c4b 	.word	0x00107c4b

00102120 <deregister_tm_clones>:
  102120:	4b04      	ldr	r3, [pc, #16]	; (102134 <deregister_tm_clones+0x14>)
  102122:	4805      	ldr	r0, [pc, #20]	; (102138 <deregister_tm_clones+0x18>)
  102124:	1a1b      	subs	r3, r3, r0
  102126:	2b06      	cmp	r3, #6
  102128:	d902      	bls.n	102130 <deregister_tm_clones+0x10>
  10212a:	4b04      	ldr	r3, [pc, #16]	; (10213c <deregister_tm_clones+0x1c>)
  10212c:	b103      	cbz	r3, 102130 <deregister_tm_clones+0x10>
  10212e:	4718      	bx	r3
  102130:	4770      	bx	lr
  102132:	bf00      	nop
  102134:	3fff415f 	.word	0x3fff415f
  102138:	3fff415c 	.word	0x3fff415c
  10213c:	00000000 	.word	0x00000000

00102140 <register_tm_clones>:
  102140:	4905      	ldr	r1, [pc, #20]	; (102158 <register_tm_clones+0x18>)
  102142:	4806      	ldr	r0, [pc, #24]	; (10215c <register_tm_clones+0x1c>)
  102144:	1a09      	subs	r1, r1, r0
  102146:	1089      	asrs	r1, r1, #2
  102148:	eb01 71d1 	add.w	r1, r1, r1, lsr #31
  10214c:	1049      	asrs	r1, r1, #1
  10214e:	d002      	beq.n	102156 <register_tm_clones+0x16>
  102150:	4b03      	ldr	r3, [pc, #12]	; (102160 <register_tm_clones+0x20>)
  102152:	b103      	cbz	r3, 102156 <register_tm_clones+0x16>
  102154:	4718      	bx	r3
  102156:	4770      	bx	lr
  102158:	3fff415c 	.word	0x3fff415c
  10215c:	3fff415c 	.word	0x3fff415c
  102160:	00000000 	.word	0x00000000

00102164 <__do_global_dtors_aux>:
  102164:	b510      	push	{r4, lr}
  102166:	4c06      	ldr	r4, [pc, #24]	; (102180 <__do_global_dtors_aux+0x1c>)
  102168:	7823      	ldrb	r3, [r4, #0]
  10216a:	b943      	cbnz	r3, 10217e <__do_global_dtors_aux+0x1a>
  10216c:	f7ff ffd8 	bl	102120 <deregister_tm_clones>
  102170:	4b04      	ldr	r3, [pc, #16]	; (102184 <__do_global_dtors_aux+0x20>)
  102172:	b113      	cbz	r3, 10217a <__do_global_dtors_aux+0x16>
  102174:	4804      	ldr	r0, [pc, #16]	; (102188 <__do_global_dtors_aux+0x24>)
  102176:	f3af 8000 	nop.w
  10217a:	2301      	movs	r3, #1
  10217c:	7023      	strb	r3, [r4, #0]
  10217e:	bd10      	pop	{r4, pc}
  102180:	3fff415c 	.word	0x3fff415c
  102184:	00000000 	.word	0x00000000
  102188:	0010eadc 	.word	0x0010eadc

0010218c <frame_dummy>:
  10218c:	b508      	push	{r3, lr}
  10218e:	4b08      	ldr	r3, [pc, #32]	; (1021b0 <frame_dummy+0x24>)
  102190:	b11b      	cbz	r3, 10219a <frame_dummy+0xe>
  102192:	4908      	ldr	r1, [pc, #32]	; (1021b4 <frame_dummy+0x28>)
  102194:	4808      	ldr	r0, [pc, #32]	; (1021b8 <frame_dummy+0x2c>)
  102196:	f3af 8000 	nop.w
  10219a:	4808      	ldr	r0, [pc, #32]	; (1021bc <frame_dummy+0x30>)
  10219c:	6803      	ldr	r3, [r0, #0]
  10219e:	b913      	cbnz	r3, 1021a6 <frame_dummy+0x1a>
  1021a0:	e8bd 4008 	ldmia.w	sp!, {r3, lr}
  1021a4:	e7cc      	b.n	102140 <register_tm_clones>
  1021a6:	4b06      	ldr	r3, [pc, #24]	; (1021c0 <frame_dummy+0x34>)
  1021a8:	2b00      	cmp	r3, #0
  1021aa:	d0f9      	beq.n	1021a0 <frame_dummy+0x14>
  1021ac:	4798      	blx	r3
  1021ae:	e7f7      	b.n	1021a0 <frame_dummy+0x14>
  1021b0:	00000000 	.word	0x00000000
  1021b4:	3fff4160 	.word	0x3fff4160
  1021b8:	0010eadc 	.word	0x0010eadc
  1021bc:	3fff415c 	.word	0x3fff415c
  1021c0:	00000000 	.word	0x00000000

001021c4 <mbed::DigitalOut::DigitalOut(PinName)>:
  1021c4:	b500      	push	{lr}
  1021c6:	b083      	sub	sp, #12
  1021c8:	9001      	str	r0, [sp, #4]
  1021ca:	9100      	str	r1, [sp, #0]
  1021cc:	9b01      	ldr	r3, [sp, #4]
  1021ce:	461a      	mov	r2, r3
  1021d0:	2300      	movs	r3, #0
  1021d2:	6013      	str	r3, [r2, #0]
  1021d4:	6053      	str	r3, [r2, #4]
  1021d6:	6093      	str	r3, [r2, #8]
  1021d8:	60d3      	str	r3, [r2, #12]
  1021da:	6113      	str	r3, [r2, #16]
  1021dc:	6153      	str	r3, [r2, #20]
  1021de:	9b01      	ldr	r3, [sp, #4]
  1021e0:	9900      	ldr	r1, [sp, #0]
  1021e2:	4618      	mov	r0, r3
  1021e4:	f003 f8aa 	bl	10533c <gpio_init_out>
  1021e8:	9b01      	ldr	r3, [sp, #4]
  1021ea:	4618      	mov	r0, r3
  1021ec:	b003      	add	sp, #12
  1021ee:	f85d fb04 	ldr.w	pc, [sp], #4
  1021f2:	bf00      	nop

001021f4 <mbed::SerialBase::~SerialBase()>:
  1021f4:	b500      	push	{lr}
  1021f6:	b083      	sub	sp, #12
  1021f8:	9001      	str	r0, [sp, #4]
  1021fa:	4a07      	ldr	r2, [pc, #28]	; (102218 <mbed::SerialBase::~SerialBase()+0x24>)
  1021fc:	9b01      	ldr	r3, [sp, #4]
  1021fe:	601a      	str	r2, [r3, #0]
  102200:	2300      	movs	r3, #0
  102202:	2b00      	cmp	r3, #0
  102204:	d002      	beq.n	10220c <mbed::SerialBase::~SerialBase()+0x18>
  102206:	9801      	ldr	r0, [sp, #4]
  102208:	f005 fd25 	bl	107c56 <operator delete(void*)>
  10220c:	9b01      	ldr	r3, [sp, #4]
  10220e:	4618      	mov	r0, r3
  102210:	b003      	add	sp, #12
  102212:	f85d fb04 	ldr.w	pc, [sp], #4
  102216:	bf00      	nop
  102218:	0010df4c 	.word	0x0010df4c

0010221c <mbed::SerialBase::~SerialBase()>:
  10221c:	b500      	push	{lr}
  10221e:	b083      	sub	sp, #12
  102220:	9001      	str	r0, [sp, #4]
  102222:	9801      	ldr	r0, [sp, #4]
  102224:	f7ff ffe6 	bl	1021f4 <mbed::SerialBase::~SerialBase()>
  102228:	9801      	ldr	r0, [sp, #4]
  10222a:	f005 fd14 	bl	107c56 <operator delete(void*)>
  10222e:	9b01      	ldr	r3, [sp, #4]
  102230:	4618      	mov	r0, r3
  102232:	b003      	add	sp, #12
  102234:	f85d fb04 	ldr.w	pc, [sp], #4

00102238 <mbed::SPI::~SPI()>:
  102238:	b500      	push	{lr}
  10223a:	b083      	sub	sp, #12
  10223c:	9001      	str	r0, [sp, #4]
  10223e:	4a07      	ldr	r2, [pc, #28]	; (10225c <mbed::SPI::~SPI()+0x24>)
  102240:	9b01      	ldr	r3, [sp, #4]
  102242:	601a      	str	r2, [r3, #0]
  102244:	2300      	movs	r3, #0
  102246:	2b00      	cmp	r3, #0
  102248:	d002      	beq.n	102250 <mbed::SPI::~SPI()+0x18>
  10224a:	9801      	ldr	r0, [sp, #4]
  10224c:	f005 fd03 	bl	107c56 <operator delete(void*)>
  102250:	9b01      	ldr	r3, [sp, #4]
  102252:	4618      	mov	r0, r3
  102254:	b003      	add	sp, #12
  102256:	f85d fb04 	ldr.w	pc, [sp], #4
  10225a:	bf00      	nop
  10225c:	0010e574 	.word	0x0010e574

00102260 <mbed::SPI::~SPI()>:
  102260:	b500      	push	{lr}
  102262:	b083      	sub	sp, #12
  102264:	9001      	str	r0, [sp, #4]
  102266:	9801      	ldr	r0, [sp, #4]
  102268:	f7ff ffe6 	bl	102238 <mbed::SPI::~SPI()>
  10226c:	9801      	ldr	r0, [sp, #4]
  10226e:	f005 fcf2 	bl	107c56 <operator delete(void*)>
  102272:	9b01      	ldr	r3, [sp, #4]
  102274:	4618      	mov	r0, r3
  102276:	b003      	add	sp, #12
  102278:	f85d fb04 	ldr.w	pc, [sp], #4

0010227c <NHD_C0216CZ::NHD_C0216CZ()>:
  10227c:	b500      	push	{lr}
  10227e:	b085      	sub	sp, #20
  102280:	9003      	str	r0, [sp, #12]
  102282:	9803      	ldr	r0, [sp, #12]
  102284:	f04f 33ff 	mov.w	r3, #4294967295
  102288:	9300      	str	r3, [sp, #0]
  10228a:	2310      	movs	r3, #16
  10228c:	2240      	movs	r2, #64	; 0x40
  10228e:	2120      	movs	r1, #32
  102290:	f005 fb2c 	bl	1078ec <mbed::SPI::SPI(PinName, PinName, PinName, PinName)>
  102294:	9b03      	ldr	r3, [sp, #12]
  102296:	3314      	adds	r3, #20
  102298:	f04f 31ff 	mov.w	r1, #4294967295
  10229c:	4618      	mov	r0, r3
  10229e:	f7ff ff91 	bl	1021c4 <mbed::DigitalOut::DigitalOut(PinName)>
  1022a2:	9b03      	ldr	r3, [sp, #12]
  1022a4:	f103 0034 	add.w	r0, r3, #52	; 0x34
  1022a8:	f04f 33ff 	mov.w	r3, #4294967295
  1022ac:	9300      	str	r3, [sp, #0]
  1022ae:	2320      	movs	r3, #32
  1022b0:	2204      	movs	r2, #4
  1022b2:	2108      	movs	r1, #8
  1022b4:	f000 fd0a 	bl	102ccc <PCA9655E::PCA9655E(PinName, PinName, unsigned char, PinName)>
  1022b8:	9b03      	ldr	r3, [sp, #12]
  1022ba:	4618      	mov	r0, r3
  1022bc:	b005      	add	sp, #20
  1022be:	f85d fb04 	ldr.w	pc, [sp], #4
  1022c2:	bf00      	nop

001022c4 <main>:
  1022c4:	b508      	push	{r3, lr}
  1022c6:	4836      	ldr	r0, [pc, #216]	; (1023a0 <main+0xdc>)
  1022c8:	f000 fa8e 	bl	1027e8 <NHD_C0216CZ::init()>
  1022cc:	4935      	ldr	r1, [pc, #212]	; (1023a4 <main+0xe0>)
  1022ce:	4834      	ldr	r0, [pc, #208]	; (1023a0 <main+0xdc>)
  1022d0:	f000 fac4 	bl	10285c <NHD_C0216CZ::displayString(char const*)>
  1022d4:	2201      	movs	r2, #1
  1022d6:	2102      	movs	r1, #2
  1022d8:	4831      	ldr	r0, [pc, #196]	; (1023a0 <main+0xdc>)
  1022da:	f000 fb15 	bl	102908 <NHD_C0216CZ::setPosition(int, int)>
  1022de:	2200      	movs	r2, #0
  1022e0:	2120      	movs	r1, #32
  1022e2:	4831      	ldr	r0, [pc, #196]	; (1023a8 <main+0xe4>)
  1022e4:	f005 fb3a 	bl	10795c <mbed::SPI::format(int, int)>
  1022e8:	2164      	movs	r1, #100	; 0x64
  1022ea:	482f      	ldr	r0, [pc, #188]	; (1023a8 <main+0xe4>)
  1022ec:	f005 fb4e 	bl	10798c <mbed::SPI::frequency(int)>
  1022f0:	2301      	movs	r3, #1
  1022f2:	2200      	movs	r2, #0
  1022f4:	2108      	movs	r1, #8
  1022f6:	482d      	ldr	r0, [pc, #180]	; (1023ac <main+0xe8>)
  1022f8:	f005 fa9e 	bl	107838 <mbed::SerialBase::format(int, mbed::SerialBase::Parity, int)>
  1022fc:	2301      	movs	r3, #1
  1022fe:	2200      	movs	r2, #0
  102300:	2108      	movs	r1, #8
  102302:	482b      	ldr	r0, [pc, #172]	; (1023b0 <main+0xec>)
  102304:	f005 fa98 	bl	107838 <mbed::SerialBase::format(int, mbed::SerialBase::Parity, int)>
  102308:	2300      	movs	r3, #0
  10230a:	2200      	movs	r2, #0
  10230c:	2101      	movs	r1, #1
  10230e:	4829      	ldr	r0, [pc, #164]	; (1023b4 <main+0xf0>)
  102310:	f000 fd9a 	bl	102e48 <PCA9655E::setDirection(Port, signed char, Direction)>
  102314:	2301      	movs	r3, #1
  102316:	2200      	movs	r2, #0
  102318:	2101      	movs	r1, #1
  10231a:	4826      	ldr	r0, [pc, #152]	; (1023b4 <main+0xf0>)
  10231c:	f000 fd2c 	bl	102d78 <PCA9655E::setValue(Port, signed char, SetVal)>
  102320:	2301      	movs	r3, #1
  102322:	2200      	movs	r2, #0
  102324:	2100      	movs	r1, #0
  102326:	4823      	ldr	r0, [pc, #140]	; (1023b4 <main+0xf0>)
  102328:	f000 fd8e 	bl	102e48 <PCA9655E::setDirection(Port, signed char, Direction)>
  10232c:	4a22      	ldr	r2, [pc, #136]	; (1023b8 <main+0xf4>)
  10232e:	2101      	movs	r1, #1
  102330:	4820      	ldr	r0, [pc, #128]	; (1023b4 <main+0xf0>)
  102332:	f000 fcfd 	bl	102d30 <PCA9655E::interruptInit(IntEdge, void (*)())>
  102336:	f04f 507c 	mov.w	r0, #1056964608	; 0x3f000000
  10233a:	f003 f865 	bl	105408 <wait>
  10233e:	481b      	ldr	r0, [pc, #108]	; (1023ac <main+0xe8>)
  102340:	f005 fa8e 	bl	107860 <mbed::SerialBase::readable()>
  102344:	4603      	mov	r3, r0
  102346:	2b00      	cmp	r3, #0
  102348:	bfcc      	ite	gt
  10234a:	2301      	movgt	r3, #1
  10234c:	2300      	movle	r3, #0
  10234e:	b2db      	uxtb	r3, r3
  102350:	2b00      	cmp	r3, #0
  102352:	d0f4      	beq.n	10233e <main+0x7a>
  102354:	4819      	ldr	r0, [pc, #100]	; (1023bc <main+0xf8>)
  102356:	f005 fbc9 	bl	107aec <mbed::Stream::getc()>
  10235a:	4603      	mov	r3, r0
  10235c:	b2da      	uxtb	r2, r3
  10235e:	4b18      	ldr	r3, [pc, #96]	; (1023c0 <main+0xfc>)
  102360:	701a      	strb	r2, [r3, #0]
  102362:	4b17      	ldr	r3, [pc, #92]	; (1023c0 <main+0xfc>)
  102364:	781b      	ldrb	r3, [r3, #0]
  102366:	4619      	mov	r1, r3
  102368:	480d      	ldr	r0, [pc, #52]	; (1023a0 <main+0xdc>)
  10236a:	f000 fabb 	bl	1028e4 <NHD_C0216CZ::displayChar(char)>
  10236e:	2300      	movs	r3, #0
  102370:	2200      	movs	r2, #0
  102372:	2101      	movs	r1, #1
  102374:	480f      	ldr	r0, [pc, #60]	; (1023b4 <main+0xf0>)
  102376:	f000 fcff 	bl	102d78 <PCA9655E::setValue(Port, signed char, SetVal)>
  10237a:	4b11      	ldr	r3, [pc, #68]	; (1023c0 <main+0xfc>)
  10237c:	781b      	ldrb	r3, [r3, #0]
  10237e:	4619      	mov	r1, r3
  102380:	4809      	ldr	r0, [pc, #36]	; (1023a8 <main+0xe4>)
  102382:	f005 fb39 	bl	1079f8 <mbed::SPI::write(int)>
  102386:	4602      	mov	r2, r0
  102388:	4b0e      	ldr	r3, [pc, #56]	; (1023c4 <main+0x100>)
  10238a:	601a      	str	r2, [r3, #0]
  10238c:	4b0d      	ldr	r3, [pc, #52]	; (1023c4 <main+0x100>)
  10238e:	2200      	movs	r2, #0
  102390:	601a      	str	r2, [r3, #0]
  102392:	2301      	movs	r3, #1
  102394:	2200      	movs	r2, #0
  102396:	2101      	movs	r1, #1
  102398:	4806      	ldr	r0, [pc, #24]	; (1023b4 <main+0xf0>)
  10239a:	f000 fced 	bl	102d78 <PCA9655E::setValue(Port, signed char, SetVal)>
  10239e:	e7ce      	b.n	10233e <main+0x7a>
  1023a0:	3fff43d8 	.word	0x3fff43d8
  1023a4:	0010df30 	.word	0x0010df30
  1023a8:	3fff4524 	.word	0x3fff4524
  1023ac:	3fff4470 	.word	0x3fff4470
  1023b0:	3fff44c8 	.word	0x3fff44c8
  1023b4:	3fff453c 	.word	0x3fff453c
  1023b8:	001023c9 	.word	0x001023c9
  1023bc:	3fff44b0 	.word	0x3fff44b0
  1023c0:	3fff4520 	.word	0x3fff4520
  1023c4:	3fff4538 	.word	0x3fff4538

001023c8 <handler_int_pca9655e()>:
  1023c8:	b508      	push	{r3, lr}
  1023ca:	2300      	movs	r3, #0
  1023cc:	2200      	movs	r2, #0
  1023ce:	2101      	movs	r1, #1
  1023d0:	481a      	ldr	r0, [pc, #104]	; (10243c <handler_int_pca9655e()+0x74>)
  1023d2:	f000 fcd1 	bl	102d78 <PCA9655E::setValue(Port, signed char, SetVal)>
  1023d6:	2105      	movs	r1, #5
  1023d8:	4819      	ldr	r0, [pc, #100]	; (102440 <handler_int_pca9655e()+0x78>)
  1023da:	f005 fb0d 	bl	1079f8 <mbed::SPI::write(int)>
  1023de:	4602      	mov	r2, r0
  1023e0:	4b18      	ldr	r3, [pc, #96]	; (102444 <handler_int_pca9655e()+0x7c>)
  1023e2:	601a      	str	r2, [r3, #0]
  1023e4:	2301      	movs	r3, #1
  1023e6:	2200      	movs	r2, #0
  1023e8:	2101      	movs	r1, #1
  1023ea:	4814      	ldr	r0, [pc, #80]	; (10243c <handler_int_pca9655e()+0x74>)
  1023ec:	f000 fcc4 	bl	102d78 <PCA9655E::setValue(Port, signed char, SetVal)>
  1023f0:	4b14      	ldr	r3, [pc, #80]	; (102444 <handler_int_pca9655e()+0x7c>)
  1023f2:	681b      	ldr	r3, [r3, #0]
  1023f4:	4619      	mov	r1, r3
  1023f6:	4814      	ldr	r0, [pc, #80]	; (102448 <handler_int_pca9655e()+0x80>)
  1023f8:	f005 fb64 	bl	107ac4 <mbed::Stream::putc(int)>
  1023fc:	4b11      	ldr	r3, [pc, #68]	; (102444 <handler_int_pca9655e()+0x7c>)
  1023fe:	681b      	ldr	r3, [r3, #0]
  102400:	b2db      	uxtb	r3, r3
  102402:	4619      	mov	r1, r3
  102404:	4811      	ldr	r0, [pc, #68]	; (10244c <handler_int_pca9655e()+0x84>)
  102406:	f000 fa6d 	bl	1028e4 <NHD_C0216CZ::displayChar(char)>
  10240a:	4b0e      	ldr	r3, [pc, #56]	; (102444 <handler_int_pca9655e()+0x7c>)
  10240c:	681b      	ldr	r3, [r3, #0]
  10240e:	2b41      	cmp	r3, #65	; 0x41
  102410:	d112      	bne.n	102438 <handler_int_pca9655e()+0x70>
  102412:	2300      	movs	r3, #0
  102414:	2200      	movs	r2, #0
  102416:	2101      	movs	r1, #1
  102418:	4808      	ldr	r0, [pc, #32]	; (10243c <handler_int_pca9655e()+0x74>)
  10241a:	f000 fcad 	bl	102d78 <PCA9655E::setValue(Port, signed char, SetVal)>
  10241e:	490c      	ldr	r1, [pc, #48]	; (102450 <handler_int_pca9655e()+0x88>)
  102420:	4807      	ldr	r0, [pc, #28]	; (102440 <handler_int_pca9655e()+0x78>)
  102422:	f005 fae9 	bl	1079f8 <mbed::SPI::write(int)>
  102426:	4602      	mov	r2, r0
  102428:	4b06      	ldr	r3, [pc, #24]	; (102444 <handler_int_pca9655e()+0x7c>)
  10242a:	601a      	str	r2, [r3, #0]
  10242c:	2301      	movs	r3, #1
  10242e:	2200      	movs	r2, #0
  102430:	2101      	movs	r1, #1
  102432:	4802      	ldr	r0, [pc, #8]	; (10243c <handler_int_pca9655e()+0x74>)
  102434:	f000 fca0 	bl	102d78 <PCA9655E::setValue(Port, signed char, SetVal)>
  102438:	bf00      	nop
  10243a:	bd08      	pop	{r3, pc}
  10243c:	3fff453c 	.word	0x3fff453c
  102440:	3fff4524 	.word	0x3fff4524
  102444:	3fff4538 	.word	0x3fff4538
  102448:	3fff44b0 	.word	0x3fff44b0
  10244c:	3fff43d8 	.word	0x3fff43d8
  102450:	10000001 	.word	0x10000001

00102454 <__tcf_0>:
  102454:	b510      	push	{r4, lr}
  102456:	b082      	sub	sp, #8
  102458:	9001      	str	r0, [sp, #4]
  10245a:	4c05      	ldr	r4, [pc, #20]	; (102470 <__tcf_0+0x1c>)
  10245c:	4b05      	ldr	r3, [pc, #20]	; (102474 <__tcf_0+0x20>)
  10245e:	429c      	cmp	r4, r3
  102460:	d004      	beq.n	10246c <__tcf_0+0x18>
  102462:	3c18      	subs	r4, #24
  102464:	4620      	mov	r0, r4
  102466:	f005 fc48 	bl	107cfa <std::__cxx11::basic_string<char, std::char_traits<char>, std::allocator<char> >::~basic_string()>
  10246a:	e7f7      	b.n	10245c <__tcf_0+0x8>
  10246c:	b002      	add	sp, #8
  10246e:	bd10      	pop	{r4, pc}
  102470:	3fff4310 	.word	0x3fff4310
  102474:	3fff4190 	.word	0x3fff4190

00102478 <NHD_C0216CZ::~NHD_C0216CZ()>:
  102478:	b500      	push	{lr}
  10247a:	b083      	sub	sp, #12
  10247c:	9001      	str	r0, [sp, #4]
  10247e:	9b01      	ldr	r3, [sp, #4]
  102480:	3334      	adds	r3, #52	; 0x34
  102482:	4618      	mov	r0, r3
  102484:	f000 fd94 	bl	102fb0 <PCA9655E::~PCA9655E()>
  102488:	9b01      	ldr	r3, [sp, #4]
  10248a:	4618      	mov	r0, r3
  10248c:	f7ff fed4 	bl	102238 <mbed::SPI::~SPI()>
  102490:	9b01      	ldr	r3, [sp, #4]
  102492:	4618      	mov	r0, r3
  102494:	b003      	add	sp, #12
  102496:	f85d fb04 	ldr.w	pc, [sp], #4
  10249a:	bf00      	nop

0010249c <__static_initialization_and_destruction_0(int, int)>:
  10249c:	b5f0      	push	{r4, r5, r6, r7, lr}
  10249e:	b089      	sub	sp, #36	; 0x24
  1024a0:	9003      	str	r0, [sp, #12]
  1024a2:	9102      	str	r1, [sp, #8]
  1024a4:	9b03      	ldr	r3, [sp, #12]
  1024a6:	2b01      	cmp	r3, #1
  1024a8:	f040 80c9 	bne.w	10263e <__static_initialization_and_destruction_0(int, int)+0x1a2>
  1024ac:	9b02      	ldr	r3, [sp, #8]
  1024ae:	f64f 72ff 	movw	r2, #65535	; 0xffff
  1024b2:	4293      	cmp	r3, r2
  1024b4:	f040 80c3 	bne.w	10263e <__static_initialization_and_destruction_0(int, int)+0x1a2>
  1024b8:	ab04      	add	r3, sp, #16
  1024ba:	4618      	mov	r0, r3
  1024bc:	f005 fbde 	bl	107c7c <std::allocator<char>::allocator()>
  1024c0:	ab04      	add	r3, sp, #16
  1024c2:	461a      	mov	r2, r3
  1024c4:	495f      	ldr	r1, [pc, #380]	; (102644 <__static_initialization_and_destruction_0(int, int)+0x1a8>)
  1024c6:	4860      	ldr	r0, [pc, #384]	; (102648 <__static_initialization_and_destruction_0(int, int)+0x1ac>)
  1024c8:	f005 fc42 	bl	107d50 <std::__cxx11::basic_string<char, std::char_traits<char>, std::allocator<char> >::basic_string(char const*, std::allocator<char> const&)>
  1024cc:	ab04      	add	r3, sp, #16
  1024ce:	4618      	mov	r0, r3
  1024d0:	f005 fbd5 	bl	107c7e <std::allocator<char>::~allocator()>
  1024d4:	4a5d      	ldr	r2, [pc, #372]	; (10264c <__static_initialization_and_destruction_0(int, int)+0x1b0>)
  1024d6:	495e      	ldr	r1, [pc, #376]	; (102650 <__static_initialization_and_destruction_0(int, int)+0x1b4>)
  1024d8:	485b      	ldr	r0, [pc, #364]	; (102648 <__static_initialization_and_destruction_0(int, int)+0x1ac>)
  1024da:	f005 fbb7 	bl	107c4c <__aeabi_atexit>
  1024de:	4b5d      	ldr	r3, [pc, #372]	; (102654 <__static_initialization_and_destruction_0(int, int)+0x1b8>)
  1024e0:	2407      	movs	r4, #7
  1024e2:	461e      	mov	r6, r3
  1024e4:	f1b4 3fff 	cmp.w	r4, #4294967295
  1024e8:	d00e      	beq.n	102508 <__static_initialization_and_destruction_0(int, int)+0x6c>
  1024ea:	4633      	mov	r3, r6
  1024ec:	2501      	movs	r5, #1
  1024ee:	461f      	mov	r7, r3
  1024f0:	f1b5 3fff 	cmp.w	r5, #4294967295
  1024f4:	d005      	beq.n	102502 <__static_initialization_and_destruction_0(int, int)+0x66>
  1024f6:	4638      	mov	r0, r7
  1024f8:	f005 fbf8 	bl	107cec <std::__cxx11::basic_string<char, std::char_traits<char>, std::allocator<char> >::basic_string()>
  1024fc:	3718      	adds	r7, #24
  1024fe:	3d01      	subs	r5, #1
  102500:	e7f6      	b.n	1024f0 <__static_initialization_and_destruction_0(int, int)+0x54>
  102502:	3630      	adds	r6, #48	; 0x30
  102504:	3c01      	subs	r4, #1
  102506:	e7ed      	b.n	1024e4 <__static_initialization_and_destruction_0(int, int)+0x48>
  102508:	4a50      	ldr	r2, [pc, #320]	; (10264c <__static_initialization_and_destruction_0(int, int)+0x1b0>)
  10250a:	4953      	ldr	r1, [pc, #332]	; (102658 <__static_initialization_and_destruction_0(int, int)+0x1bc>)
  10250c:	2000      	movs	r0, #0
  10250e:	f005 fb9d 	bl	107c4c <__aeabi_atexit>
  102512:	ab05      	add	r3, sp, #20
  102514:	4618      	mov	r0, r3
  102516:	f005 fbb1 	bl	107c7c <std::allocator<char>::allocator()>
  10251a:	ab05      	add	r3, sp, #20
  10251c:	461a      	mov	r2, r3
  10251e:	4949      	ldr	r1, [pc, #292]	; (102644 <__static_initialization_and_destruction_0(int, int)+0x1a8>)
  102520:	484e      	ldr	r0, [pc, #312]	; (10265c <__static_initialization_and_destruction_0(int, int)+0x1c0>)
  102522:	f005 fc15 	bl	107d50 <std::__cxx11::basic_string<char, std::char_traits<char>, std::allocator<char> >::basic_string(char const*, std::allocator<char> const&)>
  102526:	ab05      	add	r3, sp, #20
  102528:	4618      	mov	r0, r3
  10252a:	f005 fba8 	bl	107c7e <std::allocator<char>::~allocator()>
  10252e:	4a47      	ldr	r2, [pc, #284]	; (10264c <__static_initialization_and_destruction_0(int, int)+0x1b0>)
  102530:	4947      	ldr	r1, [pc, #284]	; (102650 <__static_initialization_and_destruction_0(int, int)+0x1b4>)
  102532:	484a      	ldr	r0, [pc, #296]	; (10265c <__static_initialization_and_destruction_0(int, int)+0x1c0>)
  102534:	f005 fb8a 	bl	107c4c <__aeabi_atexit>
  102538:	ab06      	add	r3, sp, #24
  10253a:	4618      	mov	r0, r3
  10253c:	f005 fb9e 	bl	107c7c <std::allocator<char>::allocator()>
  102540:	ab06      	add	r3, sp, #24
  102542:	461a      	mov	r2, r3
  102544:	493f      	ldr	r1, [pc, #252]	; (102644 <__static_initialization_and_destruction_0(int, int)+0x1a8>)
  102546:	4846      	ldr	r0, [pc, #280]	; (102660 <__static_initialization_and_destruction_0(int, int)+0x1c4>)
  102548:	f005 fc02 	bl	107d50 <std::__cxx11::basic_string<char, std::char_traits<char>, std::allocator<char> >::basic_string(char const*, std::allocator<char> const&)>
  10254c:	ab06      	add	r3, sp, #24
  10254e:	4618      	mov	r0, r3
  102550:	f005 fb95 	bl	107c7e <std::allocator<char>::~allocator()>
  102554:	4a3d      	ldr	r2, [pc, #244]	; (10264c <__static_initialization_and_destruction_0(int, int)+0x1b0>)
  102556:	493e      	ldr	r1, [pc, #248]	; (102650 <__static_initialization_and_destruction_0(int, int)+0x1b4>)
  102558:	4841      	ldr	r0, [pc, #260]	; (102660 <__static_initialization_and_destruction_0(int, int)+0x1c4>)
  10255a:	f005 fb77 	bl	107c4c <__aeabi_atexit>
  10255e:	ab07      	add	r3, sp, #28
  102560:	4618      	mov	r0, r3
  102562:	f005 fb8b 	bl	107c7c <std::allocator<char>::allocator()>
  102566:	ab07      	add	r3, sp, #28
  102568:	461a      	mov	r2, r3
  10256a:	4936      	ldr	r1, [pc, #216]	; (102644 <__static_initialization_and_destruction_0(int, int)+0x1a8>)
  10256c:	483d      	ldr	r0, [pc, #244]	; (102664 <__static_initialization_and_destruction_0(int, int)+0x1c8>)
  10256e:	f005 fbef 	bl	107d50 <std::__cxx11::basic_string<char, std::char_traits<char>, std::allocator<char> >::basic_string(char const*, std::allocator<char> const&)>
  102572:	ab07      	add	r3, sp, #28
  102574:	4618      	mov	r0, r3
  102576:	f005 fb82 	bl	107c7e <std::allocator<char>::~allocator()>
  10257a:	4a34      	ldr	r2, [pc, #208]	; (10264c <__static_initialization_and_destruction_0(int, int)+0x1b0>)
  10257c:	4934      	ldr	r1, [pc, #208]	; (102650 <__static_initialization_and_destruction_0(int, int)+0x1b4>)
  10257e:	4839      	ldr	r0, [pc, #228]	; (102664 <__static_initialization_and_destruction_0(int, int)+0x1c8>)
  102580:	f005 fb64 	bl	107c4c <__aeabi_atexit>
  102584:	f04f 33ff 	mov.w	r3, #4294967295
  102588:	9300      	str	r3, [sp, #0]
  10258a:	2310      	movs	r3, #16
  10258c:	2240      	movs	r2, #64	; 0x40
  10258e:	2120      	movs	r1, #32
  102590:	4835      	ldr	r0, [pc, #212]	; (102668 <__static_initialization_and_destruction_0(int, int)+0x1cc>)
  102592:	f005 f9ab 	bl	1078ec <mbed::SPI::SPI(PinName, PinName, PinName, PinName)>
  102596:	4a2d      	ldr	r2, [pc, #180]	; (10264c <__static_initialization_and_destruction_0(int, int)+0x1b0>)
  102598:	4934      	ldr	r1, [pc, #208]	; (10266c <__static_initialization_and_destruction_0(int, int)+0x1d0>)
  10259a:	4833      	ldr	r0, [pc, #204]	; (102668 <__static_initialization_and_destruction_0(int, int)+0x1cc>)
  10259c:	f005 fb56 	bl	107c4c <__aeabi_atexit>
  1025a0:	2300      	movs	r3, #0
  1025a2:	2202      	movs	r2, #2
  1025a4:	2101      	movs	r1, #1
  1025a6:	4832      	ldr	r0, [pc, #200]	; (102670 <__static_initialization_and_destruction_0(int, int)+0x1d4>)
  1025a8:	f005 f8c8 	bl	10773c <mbed::Serial::Serial(PinName, PinName, char const*)>
  1025ac:	4a27      	ldr	r2, [pc, #156]	; (10264c <__static_initialization_and_destruction_0(int, int)+0x1b0>)
  1025ae:	4931      	ldr	r1, [pc, #196]	; (102674 <__static_initialization_and_destruction_0(int, int)+0x1d8>)
  1025b0:	482f      	ldr	r0, [pc, #188]	; (102670 <__static_initialization_and_destruction_0(int, int)+0x1d4>)
  1025b2:	f005 fb4b 	bl	107c4c <__aeabi_atexit>
  1025b6:	4830      	ldr	r0, [pc, #192]	; (102678 <__static_initialization_and_destruction_0(int, int)+0x1dc>)
  1025b8:	f000 fd08 	bl	102fcc <rtos::Mutex::Mutex()>
  1025bc:	4a23      	ldr	r2, [pc, #140]	; (10264c <__static_initialization_and_destruction_0(int, int)+0x1b0>)
  1025be:	492f      	ldr	r1, [pc, #188]	; (10267c <__static_initialization_and_destruction_0(int, int)+0x1e0>)
  1025c0:	482d      	ldr	r0, [pc, #180]	; (102678 <__static_initialization_and_destruction_0(int, int)+0x1dc>)
  1025c2:	f005 fb43 	bl	107c4c <__aeabi_atexit>
  1025c6:	482e      	ldr	r0, [pc, #184]	; (102680 <__static_initialization_and_destruction_0(int, int)+0x1e4>)
  1025c8:	f7ff fe58 	bl	10227c <NHD_C0216CZ::NHD_C0216CZ()>
  1025cc:	4a1f      	ldr	r2, [pc, #124]	; (10264c <__static_initialization_and_destruction_0(int, int)+0x1b0>)
  1025ce:	492d      	ldr	r1, [pc, #180]	; (102684 <__static_initialization_and_destruction_0(int, int)+0x1e8>)
  1025d0:	482b      	ldr	r0, [pc, #172]	; (102680 <__static_initialization_and_destruction_0(int, int)+0x1e4>)
  1025d2:	f005 fb3b 	bl	107c4c <__aeabi_atexit>
  1025d6:	2300      	movs	r3, #0
  1025d8:	f44f 7200 	mov.w	r2, #512	; 0x200
  1025dc:	f44f 7180 	mov.w	r1, #256	; 0x100
  1025e0:	4829      	ldr	r0, [pc, #164]	; (102688 <__static_initialization_and_destruction_0(int, int)+0x1ec>)
  1025e2:	f005 f8ab 	bl	10773c <mbed::Serial::Serial(PinName, PinName, char const*)>
  1025e6:	4a19      	ldr	r2, [pc, #100]	; (10264c <__static_initialization_and_destruction_0(int, int)+0x1b0>)
  1025e8:	4922      	ldr	r1, [pc, #136]	; (102674 <__static_initialization_and_destruction_0(int, int)+0x1d8>)
  1025ea:	4827      	ldr	r0, [pc, #156]	; (102688 <__static_initialization_and_destruction_0(int, int)+0x1ec>)
  1025ec:	f005 fb2e 	bl	107c4c <__aeabi_atexit>
  1025f0:	2300      	movs	r3, #0
  1025f2:	2202      	movs	r2, #2
  1025f4:	2101      	movs	r1, #1
  1025f6:	4825      	ldr	r0, [pc, #148]	; (10268c <__static_initialization_and_destruction_0(int, int)+0x1f0>)
  1025f8:	f005 f8a0 	bl	10773c <mbed::Serial::Serial(PinName, PinName, char const*)>
  1025fc:	4a13      	ldr	r2, [pc, #76]	; (10264c <__static_initialization_and_destruction_0(int, int)+0x1b0>)
  1025fe:	491d      	ldr	r1, [pc, #116]	; (102674 <__static_initialization_and_destruction_0(int, int)+0x1d8>)
  102600:	4822      	ldr	r0, [pc, #136]	; (10268c <__static_initialization_and_destruction_0(int, int)+0x1f0>)
  102602:	f005 fb23 	bl	107c4c <__aeabi_atexit>
  102606:	f04f 33ff 	mov.w	r3, #4294967295
  10260a:	9300      	str	r3, [sp, #0]
  10260c:	2310      	movs	r3, #16
  10260e:	2240      	movs	r2, #64	; 0x40
  102610:	2120      	movs	r1, #32
  102612:	481f      	ldr	r0, [pc, #124]	; (102690 <__static_initialization_and_destruction_0(int, int)+0x1f4>)
  102614:	f005 f96a 	bl	1078ec <mbed::SPI::SPI(PinName, PinName, PinName, PinName)>
  102618:	4a0c      	ldr	r2, [pc, #48]	; (10264c <__static_initialization_and_destruction_0(int, int)+0x1b0>)
  10261a:	4914      	ldr	r1, [pc, #80]	; (10266c <__static_initialization_and_destruction_0(int, int)+0x1d0>)
  10261c:	481c      	ldr	r0, [pc, #112]	; (102690 <__static_initialization_and_destruction_0(int, int)+0x1f4>)
  10261e:	f005 fb15 	bl	107c4c <__aeabi_atexit>
  102622:	f44f 3300 	mov.w	r3, #131072	; 0x20000
  102626:	9300      	str	r3, [sp, #0]
  102628:	234a      	movs	r3, #74	; 0x4a
  10262a:	2204      	movs	r2, #4
  10262c:	2108      	movs	r1, #8
  10262e:	4819      	ldr	r0, [pc, #100]	; (102694 <__static_initialization_and_destruction_0(int, int)+0x1f8>)
  102630:	f000 fb4c 	bl	102ccc <PCA9655E::PCA9655E(PinName, PinName, unsigned char, PinName)>
  102634:	4a05      	ldr	r2, [pc, #20]	; (10264c <__static_initialization_and_destruction_0(int, int)+0x1b0>)
  102636:	4918      	ldr	r1, [pc, #96]	; (102698 <__static_initialization_and_destruction_0(int, int)+0x1fc>)
  102638:	4816      	ldr	r0, [pc, #88]	; (102694 <__static_initialization_and_destruction_0(int, int)+0x1f8>)
  10263a:	f005 fb07 	bl	107c4c <__aeabi_atexit>
  10263e:	bf00      	nop
  102640:	b009      	add	sp, #36	; 0x24
  102642:	bdf0      	pop	{r4, r5, r6, r7, pc}
  102644:	0010df40 	.word	0x0010df40
  102648:	3fff4178 	.word	0x3fff4178
  10264c:	3fff4000 	.word	0x3fff4000
  102650:	00107cfb 	.word	0x00107cfb
  102654:	3fff4190 	.word	0x3fff4190
  102658:	00102455 	.word	0x00102455
  10265c:	3fff4310 	.word	0x3fff4310
  102660:	3fff4328 	.word	0x3fff4328
  102664:	3fff4340 	.word	0x3fff4340
  102668:	3fff4358 	.word	0x3fff4358
  10266c:	00102239 	.word	0x00102239
  102670:	3fff436c 	.word	0x3fff436c
  102674:	0010269d 	.word	0x0010269d
  102678:	3fff43c4 	.word	0x3fff43c4
  10267c:	00103055 	.word	0x00103055
  102680:	3fff43d8 	.word	0x3fff43d8
  102684:	00102479 	.word	0x00102479
  102688:	3fff4470 	.word	0x3fff4470
  10268c:	3fff44c8 	.word	0x3fff44c8
  102690:	3fff4524 	.word	0x3fff4524
  102694:	3fff453c 	.word	0x3fff453c
  102698:	00102fb1 	.word	0x00102fb1

0010269c <mbed::Serial::~Serial()>:
  10269c:	b500      	push	{lr}
  10269e:	b083      	sub	sp, #12
  1026a0:	9001      	str	r0, [sp, #4]
  1026a2:	4a0e      	ldr	r2, [pc, #56]	; (1026dc <mbed::Serial::~Serial()+0x40>)
  1026a4:	9b01      	ldr	r3, [sp, #4]
  1026a6:	601a      	str	r2, [r3, #0]
  1026a8:	4a0d      	ldr	r2, [pc, #52]	; (1026e0 <mbed::Serial::~Serial()+0x44>)
  1026aa:	9b01      	ldr	r3, [sp, #4]
  1026ac:	641a      	str	r2, [r3, #64]	; 0x40
  1026ae:	4a0d      	ldr	r2, [pc, #52]	; (1026e4 <mbed::Serial::~Serial()+0x48>)
  1026b0:	9b01      	ldr	r3, [sp, #4]
  1026b2:	645a      	str	r2, [r3, #68]	; 0x44
  1026b4:	9b01      	ldr	r3, [sp, #4]
  1026b6:	3340      	adds	r3, #64	; 0x40
  1026b8:	4618      	mov	r0, r3
  1026ba:	f005 f9e1 	bl	107a80 <mbed::Stream::~Stream()>
  1026be:	9b01      	ldr	r3, [sp, #4]
  1026c0:	4618      	mov	r0, r3
  1026c2:	f7ff fd97 	bl	1021f4 <mbed::SerialBase::~SerialBase()>
  1026c6:	2300      	movs	r3, #0
  1026c8:	2b00      	cmp	r3, #0
  1026ca:	d002      	beq.n	1026d2 <mbed::Serial::~Serial()+0x36>
  1026cc:	9801      	ldr	r0, [sp, #4]
  1026ce:	f005 fac2 	bl	107c56 <operator delete(void*)>
  1026d2:	9b01      	ldr	r3, [sp, #4]
  1026d4:	4618      	mov	r0, r3
  1026d6:	b003      	add	sp, #12
  1026d8:	f85d fb04 	ldr.w	pc, [sp], #4
  1026dc:	0010e518 	.word	0x0010e518
  1026e0:	0010e530 	.word	0x0010e530
  1026e4:	0010e564 	.word	0x0010e564

001026e8 <non-virtual thunk to mbed::Serial::~Serial()>:
  1026e8:	f1a0 0040 	sub.w	r0, r0, #64	; 0x40
  1026ec:	e7d6      	b.n	10269c <mbed::Serial::~Serial()>
  1026ee:	bf00      	nop

001026f0 <non-virtual thunk to mbed::Serial::~Serial()>:
  1026f0:	f1a0 0044 	sub.w	r0, r0, #68	; 0x44
  1026f4:	e7d2      	b.n	10269c <mbed::Serial::~Serial()>
  1026f6:	bf00      	nop

001026f8 <mbed::Serial::~Serial()>:
  1026f8:	b500      	push	{lr}
  1026fa:	b083      	sub	sp, #12
  1026fc:	9001      	str	r0, [sp, #4]
  1026fe:	9801      	ldr	r0, [sp, #4]
  102700:	f7ff ffcc 	bl	10269c <mbed::Serial::~Serial()>
  102704:	9801      	ldr	r0, [sp, #4]
  102706:	f005 faa6 	bl	107c56 <operator delete(void*)>
  10270a:	9b01      	ldr	r3, [sp, #4]
  10270c:	4618      	mov	r0, r3
  10270e:	b003      	add	sp, #12
  102710:	f85d fb04 	ldr.w	pc, [sp], #4

00102714 <non-virtual thunk to mbed::Serial::~Serial()>:
  102714:	f1a0 0040 	sub.w	r0, r0, #64	; 0x40
  102718:	e7ee      	b.n	1026f8 <mbed::Serial::~Serial()>
  10271a:	bf00      	nop

0010271c <non-virtual thunk to mbed::Serial::~Serial()>:
  10271c:	f1a0 0044 	sub.w	r0, r0, #68	; 0x44
  102720:	e7ea      	b.n	1026f8 <mbed::Serial::~Serial()>
  102722:	bf00      	nop

00102724 <_GLOBAL__sub_I_TOUCH_LC717A00_mode>:
  102724:	b508      	push	{r3, lr}
  102726:	f64f 71ff 	movw	r1, #65535	; 0xffff
  10272a:	2001      	movs	r0, #1
  10272c:	f7ff feb6 	bl	10249c <__static_initialization_and_destruction_0(int, int)>
  102730:	bd08      	pop	{r3, pc}
  102732:	bf00      	nop

00102734 <_start>:
  102734:	b500      	push	{lr}
  102736:	b083      	sub	sp, #12
  102738:	4a0a      	ldr	r2, [pc, #40]	; (102764 <_start+0x30>)
  10273a:	4b0b      	ldr	r3, [pc, #44]	; (102768 <_start+0x34>)
  10273c:	1ad3      	subs	r3, r2, r3
  10273e:	9301      	str	r3, [sp, #4]
  102740:	9b01      	ldr	r3, [sp, #4]
  102742:	461a      	mov	r2, r3
  102744:	2100      	movs	r1, #0
  102746:	4808      	ldr	r0, [pc, #32]	; (102768 <_start+0x34>)
  102748:	f006 fc5a 	bl	109000 <memset>
  10274c:	f002 faf4 	bl	104d38 <software_init_hook>
  102750:	f006 fb9c 	bl	108e8c <__libc_init_array>
  102754:	f003 fbd8 	bl	105f08 <expReset_AppLedON>
  102758:	f004 ff9a 	bl	107690 <__wrap_main>
  10275c:	9000      	str	r0, [sp, #0]
  10275e:	9800      	ldr	r0, [sp, #0]
  102760:	f006 f832 	bl	1087c8 <exit>
  102764:	3fff539c 	.word	0x3fff539c
  102768:	3fff415c 	.word	0x3fff415c

0010276c <__wrap__isatty>:
  10276c:	b500      	push	{lr}
  10276e:	b083      	sub	sp, #12
  102770:	9001      	str	r0, [sp, #4]
  102772:	9b01      	ldr	r3, [sp, #4]
  102774:	2b02      	cmp	r3, #2
  102776:	dc01      	bgt.n	10277c <__wrap__isatty+0x10>
  102778:	2301      	movs	r3, #1
  10277a:	e003      	b.n	102784 <__wrap__isatty+0x18>
  10277c:	9801      	ldr	r0, [sp, #4]
  10277e:	f004 ff1d 	bl	1075bc <_isatty>
  102782:	4603      	mov	r3, r0
  102784:	4618      	mov	r0, r3
  102786:	b003      	add	sp, #12
  102788:	f85d fb04 	ldr.w	pc, [sp], #4

0010278c <breakOnHeapOpFromInterruptHandler>:
  10278c:	b082      	sub	sp, #8
  10278e:	f3ef 8305 	mrs	r3, IPSR
  102792:	9301      	str	r3, [sp, #4]
  102794:	9b01      	ldr	r3, [sp, #4]
  102796:	2b00      	cmp	r3, #0
  102798:	d000      	beq.n	10279c <breakOnHeapOpFromInterruptHandler+0x10>
  10279a:	be00      	bkpt	0x0000
  10279c:	bf00      	nop
  10279e:	b002      	add	sp, #8
  1027a0:	4770      	bx	lr
  1027a2:	bf00      	nop

001027a4 <__wrap_malloc>:
  1027a4:	b500      	push	{lr}
  1027a6:	b083      	sub	sp, #12
  1027a8:	9001      	str	r0, [sp, #4]
  1027aa:	f7ff ffef 	bl	10278c <breakOnHeapOpFromInterruptHandler>
  1027ae:	9801      	ldr	r0, [sp, #4]
  1027b0:	f006 fbe2 	bl	108f78 <malloc>
  1027b4:	4603      	mov	r3, r0
  1027b6:	4618      	mov	r0, r3
  1027b8:	b003      	add	sp, #12
  1027ba:	f85d fb04 	ldr.w	pc, [sp], #4
  1027be:	bf00      	nop

001027c0 <__wrap_free>:
  1027c0:	b500      	push	{lr}
  1027c2:	b083      	sub	sp, #12
  1027c4:	9001      	str	r0, [sp, #4]
  1027c6:	f7ff ffe1 	bl	10278c <breakOnHeapOpFromInterruptHandler>
  1027ca:	9801      	ldr	r0, [sp, #4]
  1027cc:	f006 fbdc 	bl	108f88 <free>
  1027d0:	bf00      	nop
  1027d2:	b003      	add	sp, #12
  1027d4:	f85d fb04 	ldr.w	pc, [sp], #4

001027d8 <abort>:
  1027d8:	b508      	push	{r3, lr}
  1027da:	2001      	movs	r0, #1
  1027dc:	f005 fff4 	bl	1087c8 <exit>

001027e0 <__cxa_pure_virtual>:
  1027e0:	b508      	push	{r3, lr}
  1027e2:	f7ff fff9 	bl	1027d8 <abort>
  1027e6:	bf00      	nop

001027e8 <NHD_C0216CZ::init()>:
  1027e8:	b500      	push	{lr}
  1027ea:	b083      	sub	sp, #12
  1027ec:	9001      	str	r0, [sp, #4]
  1027ee:	9b01      	ldr	r3, [sp, #4]
  1027f0:	3334      	adds	r3, #52	; 0x34
  1027f2:	4913      	ldr	r1, [pc, #76]	; (102840 <NHD_C0216CZ::init()+0x58>)
  1027f4:	4618      	mov	r0, r3
  1027f6:	f000 fa8d 	bl	102d14 <PCA9655E::frequency(int)>
  1027fa:	9b01      	ldr	r3, [sp, #4]
  1027fc:	f103 0034 	add.w	r0, r3, #52	; 0x34
  102800:	2300      	movs	r3, #0
  102802:	2202      	movs	r2, #2
  102804:	2100      	movs	r1, #0
  102806:	f000 fb1f 	bl	102e48 <PCA9655E::setDirection(Port, signed char, Direction)>
  10280a:	9b01      	ldr	r3, [sp, #4]
  10280c:	f103 0034 	add.w	r0, r3, #52	; 0x34
  102810:	2300      	movs	r3, #0
  102812:	2203      	movs	r2, #3
  102814:	2100      	movs	r1, #0
  102816:	f000 fb17 	bl	102e48 <PCA9655E::setDirection(Port, signed char, Direction)>
  10281a:	9801      	ldr	r0, [sp, #4]
  10281c:	f000 f9e4 	bl	102be8 <NHD_C0216CZ::i2cCsDisable()>
  102820:	9801      	ldr	r0, [sp, #4]
  102822:	f000 fa25 	bl	102c70 <NHD_C0216CZ::setSpiParams()>
  102826:	9801      	ldr	r0, [sp, #4]
  102828:	f000 f8a4 	bl	102974 <NHD_C0216CZ::intializeLcd()>
  10282c:	2201      	movs	r2, #1
  10282e:	2101      	movs	r1, #1
  102830:	9801      	ldr	r0, [sp, #4]
  102832:	f000 f869 	bl	102908 <NHD_C0216CZ::setPosition(int, int)>
  102836:	bf00      	nop
  102838:	b003      	add	sp, #12
  10283a:	f85d fb04 	ldr.w	pc, [sp], #4
  10283e:	bf00      	nop
  102840:	000f4240 	.word	0x000f4240

00102844 <NHD_C0216CZ::clearDisplay()>:
  102844:	b500      	push	{lr}
  102846:	b083      	sub	sp, #12
  102848:	9001      	str	r0, [sp, #4]
  10284a:	2101      	movs	r1, #1
  10284c:	9801      	ldr	r0, [sp, #4]
  10284e:	f000 f8fb 	bl	102a48 <NHD_C0216CZ::sendCommand(unsigned char)>
  102852:	bf00      	nop
  102854:	b003      	add	sp, #12
  102856:	f85d fb04 	ldr.w	pc, [sp], #4
  10285a:	bf00      	nop

0010285c <NHD_C0216CZ::displayString(char const*)>:
  10285c:	b500      	push	{lr}
  10285e:	b083      	sub	sp, #12
  102860:	9001      	str	r0, [sp, #4]
  102862:	9100      	str	r1, [sp, #0]
  102864:	9801      	ldr	r0, [sp, #4]
  102866:	f7ff ffed 	bl	102844 <NHD_C0216CZ::clearDisplay()>
  10286a:	2301      	movs	r3, #1
  10286c:	2201      	movs	r2, #1
  10286e:	9900      	ldr	r1, [sp, #0]
  102870:	9801      	ldr	r0, [sp, #4]
  102872:	f000 f805 	bl	102880 <NHD_C0216CZ::displayStringToPos(char const*, int, int)>
  102876:	bf00      	nop
  102878:	b003      	add	sp, #12
  10287a:	f85d fb04 	ldr.w	pc, [sp], #4
  10287e:	bf00      	nop

00102880 <NHD_C0216CZ::displayStringToPos(char const*, int, int)>:
  102880:	b500      	push	{lr}
  102882:	b089      	sub	sp, #36	; 0x24
  102884:	9003      	str	r0, [sp, #12]
  102886:	9102      	str	r1, [sp, #8]
  102888:	9201      	str	r2, [sp, #4]
  10288a:	9300      	str	r3, [sp, #0]
  10288c:	2300      	movs	r3, #0
  10288e:	9306      	str	r3, [sp, #24]
  102890:	9b02      	ldr	r3, [sp, #8]
  102892:	9307      	str	r3, [sp, #28]
  102894:	9b02      	ldr	r3, [sp, #8]
  102896:	2b00      	cmp	r3, #0
  102898:	d102      	bne.n	1028a0 <NHD_C0216CZ::displayStringToPos(char const*, int, int)+0x20>
  10289a:	f04f 33ff 	mov.w	r3, #4294967295
  10289e:	e01c      	b.n	1028da <NHD_C0216CZ::displayStringToPos(char const*, int, int)+0x5a>
  1028a0:	9a00      	ldr	r2, [sp, #0]
  1028a2:	9901      	ldr	r1, [sp, #4]
  1028a4:	9803      	ldr	r0, [sp, #12]
  1028a6:	f000 f82f 	bl	102908 <NHD_C0216CZ::setPosition(int, int)>
  1028aa:	9005      	str	r0, [sp, #20]
  1028ac:	9b05      	ldr	r3, [sp, #20]
  1028ae:	2b00      	cmp	r3, #0
  1028b0:	d002      	beq.n	1028b8 <NHD_C0216CZ::displayStringToPos(char const*, int, int)+0x38>
  1028b2:	f04f 33ff 	mov.w	r3, #4294967295
  1028b6:	e010      	b.n	1028da <NHD_C0216CZ::displayStringToPos(char const*, int, int)+0x5a>
  1028b8:	9b07      	ldr	r3, [sp, #28]
  1028ba:	781b      	ldrb	r3, [r3, #0]
  1028bc:	2b00      	cmp	r3, #0
  1028be:	d006      	beq.n	1028ce <NHD_C0216CZ::displayStringToPos(char const*, int, int)+0x4e>
  1028c0:	9b06      	ldr	r3, [sp, #24]
  1028c2:	3301      	adds	r3, #1
  1028c4:	9306      	str	r3, [sp, #24]
  1028c6:	9b07      	ldr	r3, [sp, #28]
  1028c8:	3301      	adds	r3, #1
  1028ca:	9307      	str	r3, [sp, #28]
  1028cc:	e7f4      	b.n	1028b8 <NHD_C0216CZ::displayStringToPos(char const*, int, int)+0x38>
  1028ce:	9a06      	ldr	r2, [sp, #24]
  1028d0:	9902      	ldr	r1, [sp, #8]
  1028d2:	9803      	ldr	r0, [sp, #12]
  1028d4:	f000 f8ee 	bl	102ab4 <NHD_C0216CZ::sendData(char const*, int)>
  1028d8:	2300      	movs	r3, #0
  1028da:	4618      	mov	r0, r3
  1028dc:	b009      	add	sp, #36	; 0x24
  1028de:	f85d fb04 	ldr.w	pc, [sp], #4
  1028e2:	bf00      	nop

001028e4 <NHD_C0216CZ::displayChar(char)>:
  1028e4:	b500      	push	{lr}
  1028e6:	b083      	sub	sp, #12
  1028e8:	9001      	str	r0, [sp, #4]
  1028ea:	460b      	mov	r3, r1
  1028ec:	f88d 3003 	strb.w	r3, [sp, #3]
  1028f0:	2201      	movs	r2, #1
  1028f2:	f10d 0303 	add.w	r3, sp, #3
  1028f6:	4619      	mov	r1, r3
  1028f8:	9801      	ldr	r0, [sp, #4]
  1028fa:	f000 f8db 	bl	102ab4 <NHD_C0216CZ::sendData(char const*, int)>
  1028fe:	bf00      	nop
  102900:	b003      	add	sp, #12
  102902:	f85d fb04 	ldr.w	pc, [sp], #4
  102906:	bf00      	nop

00102908 <NHD_C0216CZ::setPosition(int, int)>:
  102908:	b500      	push	{lr}
  10290a:	b087      	sub	sp, #28
  10290c:	9003      	str	r0, [sp, #12]
  10290e:	9102      	str	r1, [sp, #8]
  102910:	9201      	str	r2, [sp, #4]
  102912:	2300      	movs	r3, #0
  102914:	f88d 3017 	strb.w	r3, [sp, #23]
  102918:	f10d 0316 	add.w	r3, sp, #22
  10291c:	9a01      	ldr	r2, [sp, #4]
  10291e:	9902      	ldr	r1, [sp, #8]
  102920:	9803      	ldr	r0, [sp, #12]
  102922:	f000 f861 	bl	1029e8 <NHD_C0216CZ::getDdramAddr(int, int, unsigned char*)>
  102926:	4603      	mov	r3, r0
  102928:	f083 0301 	eor.w	r3, r3, #1
  10292c:	b2db      	uxtb	r3, r3
  10292e:	2b00      	cmp	r3, #0
  102930:	d002      	beq.n	102938 <NHD_C0216CZ::setPosition(int, int)+0x30>
  102932:	f04f 33ff 	mov.w	r3, #4294967295
  102936:	e019      	b.n	10296c <NHD_C0216CZ::setPosition(int, int)+0x64>
  102938:	9b03      	ldr	r3, [sp, #12]
  10293a:	9a02      	ldr	r2, [sp, #8]
  10293c:	62da      	str	r2, [r3, #44]	; 0x2c
  10293e:	9b03      	ldr	r3, [sp, #12]
  102940:	9a01      	ldr	r2, [sp, #4]
  102942:	631a      	str	r2, [r3, #48]	; 0x30
  102944:	f89d 2016 	ldrb.w	r2, [sp, #22]
  102948:	f89d 3017 	ldrb.w	r3, [sp, #23]
  10294c:	4313      	orrs	r3, r2
  10294e:	f88d 3017 	strb.w	r3, [sp, #23]
  102952:	f89d 3017 	ldrb.w	r3, [sp, #23]
  102956:	f063 037f 	orn	r3, r3, #127	; 0x7f
  10295a:	f88d 3017 	strb.w	r3, [sp, #23]
  10295e:	f89d 3017 	ldrb.w	r3, [sp, #23]
  102962:	4619      	mov	r1, r3
  102964:	9803      	ldr	r0, [sp, #12]
  102966:	f000 f86f 	bl	102a48 <NHD_C0216CZ::sendCommand(unsigned char)>
  10296a:	2300      	movs	r3, #0
  10296c:	4618      	mov	r0, r3
  10296e:	b007      	add	sp, #28
  102970:	f85d fb04 	ldr.w	pc, [sp], #4

00102974 <NHD_C0216CZ::intializeLcd()>:
  102974:	b500      	push	{lr}
  102976:	b083      	sub	sp, #12
  102978:	9001      	str	r0, [sp, #4]
  10297a:	2130      	movs	r1, #48	; 0x30
  10297c:	9801      	ldr	r0, [sp, #4]
  10297e:	f000 f863 	bl	102a48 <NHD_C0216CZ::sendCommand(unsigned char)>
  102982:	2002      	movs	r0, #2
  102984:	f002 fd56 	bl	105434 <wait_ms>
  102988:	2130      	movs	r1, #48	; 0x30
  10298a:	9801      	ldr	r0, [sp, #4]
  10298c:	f000 f85c 	bl	102a48 <NHD_C0216CZ::sendCommand(unsigned char)>
  102990:	2130      	movs	r1, #48	; 0x30
  102992:	9801      	ldr	r0, [sp, #4]
  102994:	f000 f858 	bl	102a48 <NHD_C0216CZ::sendCommand(unsigned char)>
  102998:	2139      	movs	r1, #57	; 0x39
  10299a:	9801      	ldr	r0, [sp, #4]
  10299c:	f000 f854 	bl	102a48 <NHD_C0216CZ::sendCommand(unsigned char)>
  1029a0:	2114      	movs	r1, #20
  1029a2:	9801      	ldr	r0, [sp, #4]
  1029a4:	f000 f850 	bl	102a48 <NHD_C0216CZ::sendCommand(unsigned char)>
  1029a8:	2156      	movs	r1, #86	; 0x56
  1029aa:	9801      	ldr	r0, [sp, #4]
  1029ac:	f000 f84c 	bl	102a48 <NHD_C0216CZ::sendCommand(unsigned char)>
  1029b0:	216d      	movs	r1, #109	; 0x6d
  1029b2:	9801      	ldr	r0, [sp, #4]
  1029b4:	f000 f848 	bl	102a48 <NHD_C0216CZ::sendCommand(unsigned char)>
  1029b8:	2170      	movs	r1, #112	; 0x70
  1029ba:	9801      	ldr	r0, [sp, #4]
  1029bc:	f000 f844 	bl	102a48 <NHD_C0216CZ::sendCommand(unsigned char)>
  1029c0:	210c      	movs	r1, #12
  1029c2:	9801      	ldr	r0, [sp, #4]
  1029c4:	f000 f840 	bl	102a48 <NHD_C0216CZ::sendCommand(unsigned char)>
  1029c8:	2106      	movs	r1, #6
  1029ca:	9801      	ldr	r0, [sp, #4]
  1029cc:	f000 f83c 	bl	102a48 <NHD_C0216CZ::sendCommand(unsigned char)>
  1029d0:	2101      	movs	r1, #1
  1029d2:	9801      	ldr	r0, [sp, #4]
  1029d4:	f000 f838 	bl	102a48 <NHD_C0216CZ::sendCommand(unsigned char)>
  1029d8:	200a      	movs	r0, #10
  1029da:	f002 fd2b 	bl	105434 <wait_ms>
  1029de:	bf00      	nop
  1029e0:	b003      	add	sp, #12
  1029e2:	f85d fb04 	ldr.w	pc, [sp], #4
  1029e6:	bf00      	nop

001029e8 <NHD_C0216CZ::getDdramAddr(int, int, unsigned char*)>:
  1029e8:	b086      	sub	sp, #24
  1029ea:	9003      	str	r0, [sp, #12]
  1029ec:	9102      	str	r1, [sp, #8]
  1029ee:	9201      	str	r2, [sp, #4]
  1029f0:	9300      	str	r3, [sp, #0]
  1029f2:	2301      	movs	r3, #1
  1029f4:	f88d 3017 	strb.w	r3, [sp, #23]
  1029f8:	9b02      	ldr	r3, [sp, #8]
  1029fa:	2b00      	cmp	r3, #0
  1029fc:	dd08      	ble.n	102a10 <NHD_C0216CZ::getDdramAddr(int, int, unsigned char*)+0x28>
  1029fe:	9b02      	ldr	r3, [sp, #8]
  102a00:	2b02      	cmp	r3, #2
  102a02:	dc05      	bgt.n	102a10 <NHD_C0216CZ::getDdramAddr(int, int, unsigned char*)+0x28>
  102a04:	9b01      	ldr	r3, [sp, #4]
  102a06:	2b00      	cmp	r3, #0
  102a08:	dd02      	ble.n	102a10 <NHD_C0216CZ::getDdramAddr(int, int, unsigned char*)+0x28>
  102a0a:	9b01      	ldr	r3, [sp, #4]
  102a0c:	2b10      	cmp	r3, #16
  102a0e:	dd01      	ble.n	102a14 <NHD_C0216CZ::getDdramAddr(int, int, unsigned char*)+0x2c>
  102a10:	2300      	movs	r3, #0
  102a12:	e015      	b.n	102a40 <NHD_C0216CZ::getDdramAddr(int, int, unsigned char*)+0x58>
  102a14:	9b02      	ldr	r3, [sp, #8]
  102a16:	2b01      	cmp	r3, #1
  102a18:	d002      	beq.n	102a20 <NHD_C0216CZ::getDdramAddr(int, int, unsigned char*)+0x38>
  102a1a:	2b02      	cmp	r3, #2
  102a1c:	d007      	beq.n	102a2e <NHD_C0216CZ::getDdramAddr(int, int, unsigned char*)+0x46>
  102a1e:	e00d      	b.n	102a3c <NHD_C0216CZ::getDdramAddr(int, int, unsigned char*)+0x54>
  102a20:	9b01      	ldr	r3, [sp, #4]
  102a22:	b2db      	uxtb	r3, r3
  102a24:	3b01      	subs	r3, #1
  102a26:	b2da      	uxtb	r2, r3
  102a28:	9b00      	ldr	r3, [sp, #0]
  102a2a:	701a      	strb	r2, [r3, #0]
  102a2c:	e006      	b.n	102a3c <NHD_C0216CZ::getDdramAddr(int, int, unsigned char*)+0x54>
  102a2e:	9b01      	ldr	r3, [sp, #4]
  102a30:	b2db      	uxtb	r3, r3
  102a32:	333f      	adds	r3, #63	; 0x3f
  102a34:	b2da      	uxtb	r2, r3
  102a36:	9b00      	ldr	r3, [sp, #0]
  102a38:	701a      	strb	r2, [r3, #0]
  102a3a:	bf00      	nop
  102a3c:	f89d 3017 	ldrb.w	r3, [sp, #23]
  102a40:	4618      	mov	r0, r3
  102a42:	b006      	add	sp, #24
  102a44:	4770      	bx	lr
  102a46:	bf00      	nop

00102a48 <NHD_C0216CZ::sendCommand(unsigned char)>:
  102a48:	b500      	push	{lr}
  102a4a:	b083      	sub	sp, #12
  102a4c:	9001      	str	r0, [sp, #4]
  102a4e:	460b      	mov	r3, r1
  102a50:	f88d 3003 	strb.w	r3, [sp, #3]
  102a54:	f04f 31ff 	mov.w	r1, #4294967295
  102a58:	4815      	ldr	r0, [pc, #84]	; (102ab0 <NHD_C0216CZ::sendCommand(unsigned char)+0x68>)
  102a5a:	f000 fadd 	bl	103018 <rtos::Mutex::lock(unsigned long)>
  102a5e:	9801      	ldr	r0, [sp, #4]
  102a60:	f000 f906 	bl	102c70 <NHD_C0216CZ::setSpiParams()>
  102a64:	9801      	ldr	r0, [sp, #4]
  102a66:	f000 f89b 	bl	102ba0 <NHD_C0216CZ::i2cCsEnable()>
  102a6a:	2100      	movs	r1, #0
  102a6c:	9801      	ldr	r0, [sp, #4]
  102a6e:	f000 f8d1 	bl	102c14 <NHD_C0216CZ::setRsPin(NHD_C0216CZ::LEVEL_T)>
  102a72:	9b01      	ldr	r3, [sp, #4]
  102a74:	f89d 2003 	ldrb.w	r2, [sp, #3]
  102a78:	4611      	mov	r1, r2
  102a7a:	4618      	mov	r0, r3
  102a7c:	f004 ffbc 	bl	1079f8 <mbed::SPI::write(int)>
  102a80:	9801      	ldr	r0, [sp, #4]
  102a82:	f000 f8b1 	bl	102be8 <NHD_C0216CZ::i2cCsDisable()>
  102a86:	f89d 3003 	ldrb.w	r3, [sp, #3]
  102a8a:	2b01      	cmp	r3, #1
  102a8c:	d105      	bne.n	102a9a <NHD_C0216CZ::sendCommand(unsigned char)+0x52>
  102a8e:	9b01      	ldr	r3, [sp, #4]
  102a90:	2201      	movs	r2, #1
  102a92:	62da      	str	r2, [r3, #44]	; 0x2c
  102a94:	9b01      	ldr	r3, [sp, #4]
  102a96:	2201      	movs	r2, #1
  102a98:	631a      	str	r2, [r3, #48]	; 0x30
  102a9a:	9801      	ldr	r0, [sp, #4]
  102a9c:	f000 f8fc 	bl	102c98 <NHD_C0216CZ::resetSpiParams()>
  102aa0:	4803      	ldr	r0, [pc, #12]	; (102ab0 <NHD_C0216CZ::sendCommand(unsigned char)+0x68>)
  102aa2:	f000 fac9 	bl	103038 <rtos::Mutex::unlock()>
  102aa6:	bf00      	nop
  102aa8:	b003      	add	sp, #12
  102aaa:	f85d fb04 	ldr.w	pc, [sp], #4
  102aae:	bf00      	nop
  102ab0:	3fff43c4 	.word	0x3fff43c4

00102ab4 <NHD_C0216CZ::sendData(char const*, int)>:
  102ab4:	b500      	push	{lr}
  102ab6:	b087      	sub	sp, #28
  102ab8:	9003      	str	r0, [sp, #12]
  102aba:	9102      	str	r1, [sp, #8]
  102abc:	9201      	str	r2, [sp, #4]
  102abe:	9b01      	ldr	r3, [sp, #4]
  102ac0:	2b00      	cmp	r3, #0
  102ac2:	dd02      	ble.n	102aca <NHD_C0216CZ::sendData(char const*, int)+0x16>
  102ac4:	9b02      	ldr	r3, [sp, #8]
  102ac6:	2b00      	cmp	r3, #0
  102ac8:	d102      	bne.n	102ad0 <NHD_C0216CZ::sendData(char const*, int)+0x1c>
  102aca:	f04f 33ff 	mov.w	r3, #4294967295
  102ace:	e061      	b.n	102b94 <NHD_C0216CZ::sendData(char const*, int)+0xe0>
  102ad0:	f04f 31ff 	mov.w	r1, #4294967295
  102ad4:	4831      	ldr	r0, [pc, #196]	; (102b9c <NHD_C0216CZ::sendData(char const*, int)+0xe8>)
  102ad6:	f000 fa9f 	bl	103018 <rtos::Mutex::lock(unsigned long)>
  102ada:	9803      	ldr	r0, [sp, #12]
  102adc:	f000 f8c8 	bl	102c70 <NHD_C0216CZ::setSpiParams()>
  102ae0:	9803      	ldr	r0, [sp, #12]
  102ae2:	f000 f85d 	bl	102ba0 <NHD_C0216CZ::i2cCsEnable()>
  102ae6:	2101      	movs	r1, #1
  102ae8:	9803      	ldr	r0, [sp, #12]
  102aea:	f000 f893 	bl	102c14 <NHD_C0216CZ::setRsPin(NHD_C0216CZ::LEVEL_T)>
  102aee:	2300      	movs	r3, #0
  102af0:	9305      	str	r3, [sp, #20]
  102af2:	9a05      	ldr	r2, [sp, #20]
  102af4:	9b01      	ldr	r3, [sp, #4]
  102af6:	429a      	cmp	r2, r3
  102af8:	da42      	bge.n	102b80 <NHD_C0216CZ::sendData(char const*, int)+0xcc>
  102afa:	9b05      	ldr	r3, [sp, #20]
  102afc:	9a02      	ldr	r2, [sp, #8]
  102afe:	4413      	add	r3, r2
  102b00:	781b      	ldrb	r3, [r3, #0]
  102b02:	f88d 3013 	strb.w	r3, [sp, #19]
  102b06:	9b03      	ldr	r3, [sp, #12]
  102b08:	6b1b      	ldr	r3, [r3, #48]	; 0x30
  102b0a:	2b10      	cmp	r3, #16
  102b0c:	dc03      	bgt.n	102b16 <NHD_C0216CZ::sendData(char const*, int)+0x62>
  102b0e:	f89d 3013 	ldrb.w	r3, [sp, #19]
  102b12:	2b0a      	cmp	r3, #10
  102b14:	d120      	bne.n	102b58 <NHD_C0216CZ::sendData(char const*, int)+0xa4>
  102b16:	9b03      	ldr	r3, [sp, #12]
  102b18:	2201      	movs	r2, #1
  102b1a:	631a      	str	r2, [r3, #48]	; 0x30
  102b1c:	9b03      	ldr	r3, [sp, #12]
  102b1e:	6adb      	ldr	r3, [r3, #44]	; 0x2c
  102b20:	1c5a      	adds	r2, r3, #1
  102b22:	9b03      	ldr	r3, [sp, #12]
  102b24:	62da      	str	r2, [r3, #44]	; 0x2c
  102b26:	9b03      	ldr	r3, [sp, #12]
  102b28:	6adb      	ldr	r3, [r3, #44]	; 0x2c
  102b2a:	2b02      	cmp	r3, #2
  102b2c:	dd02      	ble.n	102b34 <NHD_C0216CZ::sendData(char const*, int)+0x80>
  102b2e:	9b03      	ldr	r3, [sp, #12]
  102b30:	2201      	movs	r2, #1
  102b32:	62da      	str	r2, [r3, #44]	; 0x2c
  102b34:	9b03      	ldr	r3, [sp, #12]
  102b36:	6ad9      	ldr	r1, [r3, #44]	; 0x2c
  102b38:	9b03      	ldr	r3, [sp, #12]
  102b3a:	6b1b      	ldr	r3, [r3, #48]	; 0x30
  102b3c:	461a      	mov	r2, r3
  102b3e:	9803      	ldr	r0, [sp, #12]
  102b40:	f7ff fee2 	bl	102908 <NHD_C0216CZ::setPosition(int, int)>
  102b44:	9803      	ldr	r0, [sp, #12]
  102b46:	f000 f893 	bl	102c70 <NHD_C0216CZ::setSpiParams()>
  102b4a:	2101      	movs	r1, #1
  102b4c:	9803      	ldr	r0, [sp, #12]
  102b4e:	f000 f861 	bl	102c14 <NHD_C0216CZ::setRsPin(NHD_C0216CZ::LEVEL_T)>
  102b52:	9803      	ldr	r0, [sp, #12]
  102b54:	f000 f824 	bl	102ba0 <NHD_C0216CZ::i2cCsEnable()>
  102b58:	f89d 3013 	ldrb.w	r3, [sp, #19]
  102b5c:	2b0a      	cmp	r3, #10
  102b5e:	d00b      	beq.n	102b78 <NHD_C0216CZ::sendData(char const*, int)+0xc4>
  102b60:	9b03      	ldr	r3, [sp, #12]
  102b62:	f89d 2013 	ldrb.w	r2, [sp, #19]
  102b66:	4611      	mov	r1, r2
  102b68:	4618      	mov	r0, r3
  102b6a:	f004 ff45 	bl	1079f8 <mbed::SPI::write(int)>
  102b6e:	9b03      	ldr	r3, [sp, #12]
  102b70:	6b1b      	ldr	r3, [r3, #48]	; 0x30
  102b72:	1c5a      	adds	r2, r3, #1
  102b74:	9b03      	ldr	r3, [sp, #12]
  102b76:	631a      	str	r2, [r3, #48]	; 0x30
  102b78:	9b05      	ldr	r3, [sp, #20]
  102b7a:	3301      	adds	r3, #1
  102b7c:	9305      	str	r3, [sp, #20]
  102b7e:	e7b8      	b.n	102af2 <NHD_C0216CZ::sendData(char const*, int)+0x3e>
  102b80:	9803      	ldr	r0, [sp, #12]
  102b82:	f000 f831 	bl	102be8 <NHD_C0216CZ::i2cCsDisable()>
  102b86:	9803      	ldr	r0, [sp, #12]
  102b88:	f000 f886 	bl	102c98 <NHD_C0216CZ::resetSpiParams()>
  102b8c:	4803      	ldr	r0, [pc, #12]	; (102b9c <NHD_C0216CZ::sendData(char const*, int)+0xe8>)
  102b8e:	f000 fa53 	bl	103038 <rtos::Mutex::unlock()>
  102b92:	2300      	movs	r3, #0
  102b94:	4618      	mov	r0, r3
  102b96:	b007      	add	sp, #28
  102b98:	f85d fb04 	ldr.w	pc, [sp], #4
  102b9c:	3fff43c4 	.word	0x3fff43c4

00102ba0 <NHD_C0216CZ::i2cCsEnable()>:
  102ba0:	b500      	push	{lr}
  102ba2:	b083      	sub	sp, #12
  102ba4:	9001      	str	r0, [sp, #4]
  102ba6:	9b01      	ldr	r3, [sp, #4]
  102ba8:	f103 0034 	add.w	r0, r3, #52	; 0x34
  102bac:	2301      	movs	r3, #1
  102bae:	2202      	movs	r2, #2
  102bb0:	2100      	movs	r1, #0
  102bb2:	f000 f8e1 	bl	102d78 <PCA9655E::setValue(Port, signed char, SetVal)>
  102bb6:	2014      	movs	r0, #20
  102bb8:	f002 fc4c 	bl	105454 <wait_us>
  102bbc:	2001      	movs	r0, #1
  102bbe:	f002 fc49 	bl	105454 <wait_us>
  102bc2:	9b01      	ldr	r3, [sp, #4]
  102bc4:	f103 0034 	add.w	r0, r3, #52	; 0x34
  102bc8:	2300      	movs	r3, #0
  102bca:	2202      	movs	r2, #2
  102bcc:	2100      	movs	r1, #0
  102bce:	f000 f8d3 	bl	102d78 <PCA9655E::setValue(Port, signed char, SetVal)>
  102bd2:	2014      	movs	r0, #20
  102bd4:	f002 fc3e 	bl	105454 <wait_us>
  102bd8:	2001      	movs	r0, #1
  102bda:	f002 fc3b 	bl	105454 <wait_us>
  102bde:	bf00      	nop
  102be0:	b003      	add	sp, #12
  102be2:	f85d fb04 	ldr.w	pc, [sp], #4
  102be6:	bf00      	nop

00102be8 <NHD_C0216CZ::i2cCsDisable()>:
  102be8:	b500      	push	{lr}
  102bea:	b083      	sub	sp, #12
  102bec:	9001      	str	r0, [sp, #4]
  102bee:	2001      	movs	r0, #1
  102bf0:	f002 fc30 	bl	105454 <wait_us>
  102bf4:	9b01      	ldr	r3, [sp, #4]
  102bf6:	f103 0034 	add.w	r0, r3, #52	; 0x34
  102bfa:	2301      	movs	r3, #1
  102bfc:	2202      	movs	r2, #2
  102bfe:	2100      	movs	r1, #0
  102c00:	f000 f8ba 	bl	102d78 <PCA9655E::setValue(Port, signed char, SetVal)>
  102c04:	2014      	movs	r0, #20
  102c06:	f002 fc25 	bl	105454 <wait_us>
  102c0a:	bf00      	nop
  102c0c:	b003      	add	sp, #12
  102c0e:	f85d fb04 	ldr.w	pc, [sp], #4
  102c12:	bf00      	nop

00102c14 <NHD_C0216CZ::setRsPin(NHD_C0216CZ::LEVEL_T)>:
  102c14:	b500      	push	{lr}
  102c16:	b083      	sub	sp, #12
  102c18:	9001      	str	r0, [sp, #4]
  102c1a:	460b      	mov	r3, r1
  102c1c:	f88d 3003 	strb.w	r3, [sp, #3]
  102c20:	f44f 70fa 	mov.w	r0, #500	; 0x1f4
  102c24:	f002 fc16 	bl	105454 <wait_us>
  102c28:	f89d 3003 	ldrb.w	r3, [sp, #3]
  102c2c:	2b00      	cmp	r3, #0
  102c2e:	d00a      	beq.n	102c46 <NHD_C0216CZ::setRsPin(NHD_C0216CZ::LEVEL_T)+0x32>
  102c30:	2b01      	cmp	r3, #1
  102c32:	d111      	bne.n	102c58 <NHD_C0216CZ::setRsPin(NHD_C0216CZ::LEVEL_T)+0x44>
  102c34:	9b01      	ldr	r3, [sp, #4]
  102c36:	f103 0034 	add.w	r0, r3, #52	; 0x34
  102c3a:	2301      	movs	r3, #1
  102c3c:	2203      	movs	r2, #3
  102c3e:	2100      	movs	r1, #0
  102c40:	f000 f89a 	bl	102d78 <PCA9655E::setValue(Port, signed char, SetVal)>
  102c44:	e008      	b.n	102c58 <NHD_C0216CZ::setRsPin(NHD_C0216CZ::LEVEL_T)+0x44>
  102c46:	9b01      	ldr	r3, [sp, #4]
  102c48:	f103 0034 	add.w	r0, r3, #52	; 0x34
  102c4c:	2300      	movs	r3, #0
  102c4e:	2203      	movs	r2, #3
  102c50:	2100      	movs	r1, #0
  102c52:	f000 f891 	bl	102d78 <PCA9655E::setValue(Port, signed char, SetVal)>
  102c56:	bf00      	nop
  102c58:	2014      	movs	r0, #20
  102c5a:	f002 fbfb 	bl	105454 <wait_us>
  102c5e:	f44f 70fa 	mov.w	r0, #500	; 0x1f4
  102c62:	f002 fbf7 	bl	105454 <wait_us>
  102c66:	bf00      	nop
  102c68:	b003      	add	sp, #12
  102c6a:	f85d fb04 	ldr.w	pc, [sp], #4
  102c6e:	bf00      	nop

00102c70 <NHD_C0216CZ::setSpiParams()>:
  102c70:	b500      	push	{lr}
  102c72:	b083      	sub	sp, #12
  102c74:	9001      	str	r0, [sp, #4]
  102c76:	9b01      	ldr	r3, [sp, #4]
  102c78:	2200      	movs	r2, #0
  102c7a:	2108      	movs	r1, #8
  102c7c:	4618      	mov	r0, r3
  102c7e:	f004 fe6d 	bl	10795c <mbed::SPI::format(int, int)>
  102c82:	9b01      	ldr	r3, [sp, #4]
  102c84:	4903      	ldr	r1, [pc, #12]	; (102c94 <NHD_C0216CZ::setSpiParams()+0x24>)
  102c86:	4618      	mov	r0, r3
  102c88:	f004 fe80 	bl	10798c <mbed::SPI::frequency(int)>
  102c8c:	bf00      	nop
  102c8e:	b003      	add	sp, #12
  102c90:	f85d fb04 	ldr.w	pc, [sp], #4
  102c94:	0007a120 	.word	0x0007a120

00102c98 <NHD_C0216CZ::resetSpiParams()>:
  102c98:	b500      	push	{lr}
  102c9a:	b087      	sub	sp, #28
  102c9c:	9001      	str	r0, [sp, #4]
  102c9e:	2308      	movs	r3, #8
  102ca0:	9305      	str	r3, [sp, #20]
  102ca2:	2300      	movs	r3, #0
  102ca4:	9304      	str	r3, [sp, #16]
  102ca6:	4b08      	ldr	r3, [pc, #32]	; (102cc8 <NHD_C0216CZ::resetSpiParams()+0x30>)
  102ca8:	9303      	str	r3, [sp, #12]
  102caa:	9b01      	ldr	r3, [sp, #4]
  102cac:	9a04      	ldr	r2, [sp, #16]
  102cae:	9905      	ldr	r1, [sp, #20]
  102cb0:	4618      	mov	r0, r3
  102cb2:	f004 fe53 	bl	10795c <mbed::SPI::format(int, int)>
  102cb6:	9b01      	ldr	r3, [sp, #4]
  102cb8:	9903      	ldr	r1, [sp, #12]
  102cba:	4618      	mov	r0, r3
  102cbc:	f004 fe66 	bl	10798c <mbed::SPI::frequency(int)>
  102cc0:	bf00      	nop
  102cc2:	b007      	add	sp, #28
  102cc4:	f85d fb04 	ldr.w	pc, [sp], #4
  102cc8:	000f4240 	.word	0x000f4240

00102ccc <PCA9655E::PCA9655E(PinName, PinName, unsigned char, PinName)>:
  102ccc:	b500      	push	{lr}
  102cce:	b085      	sub	sp, #20
  102cd0:	9003      	str	r0, [sp, #12]
  102cd2:	9102      	str	r1, [sp, #8]
  102cd4:	9201      	str	r2, [sp, #4]
  102cd6:	f88d 3003 	strb.w	r3, [sp, #3]
  102cda:	9b03      	ldr	r3, [sp, #12]
  102cdc:	9a01      	ldr	r2, [sp, #4]
  102cde:	9902      	ldr	r1, [sp, #8]
  102ce0:	4618      	mov	r0, r3
  102ce2:	f004 f971 	bl	106fc8 <mbed::I2C::I2C(PinName, PinName)>
  102ce6:	9b03      	ldr	r3, [sp, #12]
  102ce8:	330c      	adds	r3, #12
  102cea:	9906      	ldr	r1, [sp, #24]
  102cec:	4618      	mov	r0, r3
  102cee:	f004 fa05 	bl	1070fc <mbed::InterruptIn::InterruptIn(PinName)>
  102cf2:	9b03      	ldr	r3, [sp, #12]
  102cf4:	f89d 2003 	ldrb.w	r2, [sp, #3]
  102cf8:	721a      	strb	r2, [r3, #8]
  102cfa:	9b03      	ldr	r3, [sp, #12]
  102cfc:	4904      	ldr	r1, [pc, #16]	; (102d10 <PCA9655E::PCA9655E(PinName, PinName, unsigned char, PinName)+0x44>)
  102cfe:	4618      	mov	r0, r3
  102d00:	f004 f980 	bl	107004 <mbed::I2C::frequency(int)>
  102d04:	9b03      	ldr	r3, [sp, #12]
  102d06:	4618      	mov	r0, r3
  102d08:	b005      	add	sp, #20
  102d0a:	f85d fb04 	ldr.w	pc, [sp], #4
  102d0e:	bf00      	nop
  102d10:	000f4240 	.word	0x000f4240

00102d14 <PCA9655E::frequency(int)>:
  102d14:	b500      	push	{lr}
  102d16:	b083      	sub	sp, #12
  102d18:	9001      	str	r0, [sp, #4]
  102d1a:	9100      	str	r1, [sp, #0]
  102d1c:	9b01      	ldr	r3, [sp, #4]
  102d1e:	9900      	ldr	r1, [sp, #0]
  102d20:	4618      	mov	r0, r3
  102d22:	f004 f96f 	bl	107004 <mbed::I2C::frequency(int)>
  102d26:	bf00      	nop
  102d28:	b003      	add	sp, #12
  102d2a:	f85d fb04 	ldr.w	pc, [sp], #4
  102d2e:	bf00      	nop

00102d30 <PCA9655E::interruptInit(IntEdge, void (*)())>:
  102d30:	b500      	push	{lr}
  102d32:	b085      	sub	sp, #20
  102d34:	9003      	str	r0, [sp, #12]
  102d36:	460b      	mov	r3, r1
  102d38:	9201      	str	r2, [sp, #4]
  102d3a:	f88d 300b 	strb.w	r3, [sp, #11]
  102d3e:	9b01      	ldr	r3, [sp, #4]
  102d40:	2b00      	cmp	r3, #0
  102d42:	d014      	beq.n	102d6e <PCA9655E::interruptInit(IntEdge, void (*)())+0x3e>
  102d44:	f89d 300b 	ldrb.w	r3, [sp, #11]
  102d48:	2b00      	cmp	r3, #0
  102d4a:	d002      	beq.n	102d52 <PCA9655E::interruptInit(IntEdge, void (*)())+0x22>
  102d4c:	2b01      	cmp	r3, #1
  102d4e:	d007      	beq.n	102d60 <PCA9655E::interruptInit(IntEdge, void (*)())+0x30>
  102d50:	e00d      	b.n	102d6e <PCA9655E::interruptInit(IntEdge, void (*)())+0x3e>
  102d52:	9b03      	ldr	r3, [sp, #12]
  102d54:	330c      	adds	r3, #12
  102d56:	9901      	ldr	r1, [sp, #4]
  102d58:	4618      	mov	r0, r3
  102d5a:	f004 fa31 	bl	1071c0 <mbed::InterruptIn::rise(void (*)())>
  102d5e:	e006      	b.n	102d6e <PCA9655E::interruptInit(IntEdge, void (*)())+0x3e>
  102d60:	9b03      	ldr	r3, [sp, #12]
  102d62:	330c      	adds	r3, #12
  102d64:	9901      	ldr	r1, [sp, #4]
  102d66:	4618      	mov	r0, r3
  102d68:	f004 fa50 	bl	10720c <mbed::InterruptIn::fall(void (*)())>
  102d6c:	bf00      	nop
  102d6e:	bf00      	nop
  102d70:	b005      	add	sp, #20
  102d72:	f85d fb04 	ldr.w	pc, [sp], #4
  102d76:	bf00      	nop

00102d78 <PCA9655E::setValue(Port, signed char, SetVal)>:
  102d78:	b500      	push	{lr}
  102d7a:	b085      	sub	sp, #20
  102d7c:	9001      	str	r0, [sp, #4]
  102d7e:	4608      	mov	r0, r1
  102d80:	4611      	mov	r1, r2
  102d82:	461a      	mov	r2, r3
  102d84:	4603      	mov	r3, r0
  102d86:	f88d 3003 	strb.w	r3, [sp, #3]
  102d8a:	460b      	mov	r3, r1
  102d8c:	f88d 3002 	strb.w	r3, [sp, #2]
  102d90:	4613      	mov	r3, r2
  102d92:	f88d 3001 	strb.w	r3, [sp, #1]
  102d96:	f99d 3002 	ldrsb.w	r3, [sp, #2]
  102d9a:	2b00      	cmp	r3, #0
  102d9c:	db03      	blt.n	102da6 <PCA9655E::setValue(Port, signed char, SetVal)+0x2e>
  102d9e:	f99d 3002 	ldrsb.w	r3, [sp, #2]
  102da2:	2b07      	cmp	r3, #7
  102da4:	dd04      	ble.n	102db0 <PCA9655E::setValue(Port, signed char, SetVal)+0x38>
  102da6:	2257      	movs	r2, #87	; 0x57
  102da8:	4925      	ldr	r1, [pc, #148]	; (102e40 <PCA9655E::setValue(Port, signed char, SetVal)+0xc8>)
  102daa:	4826      	ldr	r0, [pc, #152]	; (102e44 <PCA9655E::setValue(Port, signed char, SetVal)+0xcc>)
  102dac:	f002 f934 	bl	105018 <mbed_assert_internal>
  102db0:	b672      	cpsid	i
  102db2:	f89d 3003 	ldrb.w	r3, [sp, #3]
  102db6:	2b00      	cmp	r3, #0
  102db8:	d002      	beq.n	102dc0 <PCA9655E::setValue(Port, signed char, SetVal)+0x48>
  102dba:	2b01      	cmp	r3, #1
  102dbc:	d004      	beq.n	102dc8 <PCA9655E::setValue(Port, signed char, SetVal)+0x50>
  102dbe:	e007      	b.n	102dd0 <PCA9655E::setValue(Port, signed char, SetVal)+0x58>
  102dc0:	2302      	movs	r3, #2
  102dc2:	f88d 300e 	strb.w	r3, [sp, #14]
  102dc6:	e003      	b.n	102dd0 <PCA9655E::setValue(Port, signed char, SetVal)+0x58>
  102dc8:	2303      	movs	r3, #3
  102dca:	f88d 300e 	strb.w	r3, [sp, #14]
  102dce:	bf00      	nop
  102dd0:	f89d 300e 	ldrb.w	r3, [sp, #14]
  102dd4:	4619      	mov	r1, r3
  102dd6:	9801      	ldr	r0, [sp, #4]
  102dd8:	f000 f8c2 	bl	102f60 <PCA9655E::read(Register)>
  102ddc:	4603      	mov	r3, r0
  102dde:	f88d 300f 	strb.w	r3, [sp, #15]
  102de2:	f89d 3001 	ldrb.w	r3, [sp, #1]
  102de6:	2b00      	cmp	r3, #0
  102de8:	d00e      	beq.n	102e08 <PCA9655E::setValue(Port, signed char, SetVal)+0x90>
  102dea:	2b01      	cmp	r3, #1
  102dec:	d11b      	bne.n	102e26 <PCA9655E::setValue(Port, signed char, SetVal)+0xae>
  102dee:	f99d 3002 	ldrsb.w	r3, [sp, #2]
  102df2:	2201      	movs	r2, #1
  102df4:	fa02 f303 	lsl.w	r3, r2, r3
  102df8:	b2da      	uxtb	r2, r3
  102dfa:	f89d 300f 	ldrb.w	r3, [sp, #15]
  102dfe:	4313      	orrs	r3, r2
  102e00:	b2db      	uxtb	r3, r3
  102e02:	f88d 300f 	strb.w	r3, [sp, #15]
  102e06:	e00e      	b.n	102e26 <PCA9655E::setValue(Port, signed char, SetVal)+0xae>
  102e08:	f99d 3002 	ldrsb.w	r3, [sp, #2]
  102e0c:	2201      	movs	r2, #1
  102e0e:	fa02 f303 	lsl.w	r3, r2, r3
  102e12:	b2db      	uxtb	r3, r3
  102e14:	43db      	mvns	r3, r3
  102e16:	b2da      	uxtb	r2, r3
  102e18:	f89d 300f 	ldrb.w	r3, [sp, #15]
  102e1c:	4013      	ands	r3, r2
  102e1e:	b2db      	uxtb	r3, r3
  102e20:	f88d 300f 	strb.w	r3, [sp, #15]
  102e24:	bf00      	nop
  102e26:	f89d 200f 	ldrb.w	r2, [sp, #15]
  102e2a:	f89d 300e 	ldrb.w	r3, [sp, #14]
  102e2e:	4619      	mov	r1, r3
  102e30:	9801      	ldr	r0, [sp, #4]
  102e32:	f000 f873 	bl	102f1c <PCA9655E::write(Register, char)>
  102e36:	b662      	cpsie	i
  102e38:	bf00      	nop
  102e3a:	b005      	add	sp, #20
  102e3c:	f85d fb04 	ldr.w	pc, [sp], #4
  102e40:	0010df54 	.word	0x0010df54
  102e44:	0010df68 	.word	0x0010df68

00102e48 <PCA9655E::setDirection(Port, signed char, Direction)>:
  102e48:	b500      	push	{lr}
  102e4a:	b085      	sub	sp, #20
  102e4c:	9001      	str	r0, [sp, #4]
  102e4e:	4608      	mov	r0, r1
  102e50:	4611      	mov	r1, r2
  102e52:	461a      	mov	r2, r3
  102e54:	4603      	mov	r3, r0
  102e56:	f88d 3003 	strb.w	r3, [sp, #3]
  102e5a:	460b      	mov	r3, r1
  102e5c:	f88d 3002 	strb.w	r3, [sp, #2]
  102e60:	4613      	mov	r3, r2
  102e62:	f88d 3001 	strb.w	r3, [sp, #1]
  102e66:	f99d 3002 	ldrsb.w	r3, [sp, #2]
  102e6a:	2b00      	cmp	r3, #0
  102e6c:	db03      	blt.n	102e76 <PCA9655E::setDirection(Port, signed char, Direction)+0x2e>
  102e6e:	f99d 3002 	ldrsb.w	r3, [sp, #2]
  102e72:	2b07      	cmp	r3, #7
  102e74:	dd04      	ble.n	102e80 <PCA9655E::setDirection(Port, signed char, Direction)+0x38>
  102e76:	2273      	movs	r2, #115	; 0x73
  102e78:	4926      	ldr	r1, [pc, #152]	; (102f14 <PCA9655E::setDirection(Port, signed char, Direction)+0xcc>)
  102e7a:	4827      	ldr	r0, [pc, #156]	; (102f18 <PCA9655E::setDirection(Port, signed char, Direction)+0xd0>)
  102e7c:	f002 f8cc 	bl	105018 <mbed_assert_internal>
  102e80:	b672      	cpsid	i
  102e82:	f89d 3003 	ldrb.w	r3, [sp, #3]
  102e86:	2b00      	cmp	r3, #0
  102e88:	d002      	beq.n	102e90 <PCA9655E::setDirection(Port, signed char, Direction)+0x48>
  102e8a:	2b01      	cmp	r3, #1
  102e8c:	d004      	beq.n	102e98 <PCA9655E::setDirection(Port, signed char, Direction)+0x50>
  102e8e:	e007      	b.n	102ea0 <PCA9655E::setDirection(Port, signed char, Direction)+0x58>
  102e90:	2306      	movs	r3, #6
  102e92:	f88d 300e 	strb.w	r3, [sp, #14]
  102e96:	e003      	b.n	102ea0 <PCA9655E::setDirection(Port, signed char, Direction)+0x58>
  102e98:	2307      	movs	r3, #7
  102e9a:	f88d 300e 	strb.w	r3, [sp, #14]
  102e9e:	bf00      	nop
  102ea0:	f89d 300e 	ldrb.w	r3, [sp, #14]
  102ea4:	4619      	mov	r1, r3
  102ea6:	9801      	ldr	r0, [sp, #4]
  102ea8:	f000 f85a 	bl	102f60 <PCA9655E::read(Register)>
  102eac:	4603      	mov	r3, r0
  102eae:	f88d 300f 	strb.w	r3, [sp, #15]
  102eb2:	f89d 3001 	ldrb.w	r3, [sp, #1]
  102eb6:	2b00      	cmp	r3, #0
  102eb8:	d002      	beq.n	102ec0 <PCA9655E::setDirection(Port, signed char, Direction)+0x78>
  102eba:	2b01      	cmp	r3, #1
  102ebc:	d00f      	beq.n	102ede <PCA9655E::setDirection(Port, signed char, Direction)+0x96>
  102ebe:	e01b      	b.n	102ef8 <PCA9655E::setDirection(Port, signed char, Direction)+0xb0>
  102ec0:	f99d 3002 	ldrsb.w	r3, [sp, #2]
  102ec4:	2201      	movs	r2, #1
  102ec6:	fa02 f303 	lsl.w	r3, r2, r3
  102eca:	b2db      	uxtb	r3, r3
  102ecc:	43db      	mvns	r3, r3
  102ece:	b2da      	uxtb	r2, r3
  102ed0:	f89d 300f 	ldrb.w	r3, [sp, #15]
  102ed4:	4013      	ands	r3, r2
  102ed6:	b2db      	uxtb	r3, r3
  102ed8:	f88d 300f 	strb.w	r3, [sp, #15]
  102edc:	e00c      	b.n	102ef8 <PCA9655E::setDirection(Port, signed char, Direction)+0xb0>
  102ede:	f99d 3002 	ldrsb.w	r3, [sp, #2]
  102ee2:	2201      	movs	r2, #1
  102ee4:	fa02 f303 	lsl.w	r3, r2, r3
  102ee8:	b2da      	uxtb	r2, r3
  102eea:	f89d 300f 	ldrb.w	r3, [sp, #15]
  102eee:	4313      	orrs	r3, r2
  102ef0:	b2db      	uxtb	r3, r3
  102ef2:	f88d 300f 	strb.w	r3, [sp, #15]
  102ef6:	bf00      	nop
  102ef8:	f89d 200f 	ldrb.w	r2, [sp, #15]
  102efc:	f89d 300e 	ldrb.w	r3, [sp, #14]
  102f00:	4619      	mov	r1, r3
  102f02:	9801      	ldr	r0, [sp, #4]
  102f04:	f000 f80a 	bl	102f1c <PCA9655E::write(Register, char)>
  102f08:	b662      	cpsie	i
  102f0a:	bf00      	nop
  102f0c:	b005      	add	sp, #20
  102f0e:	f85d fb04 	ldr.w	pc, [sp], #4
  102f12:	bf00      	nop
  102f14:	0010df54 	.word	0x0010df54
  102f18:	0010df68 	.word	0x0010df68

00102f1c <PCA9655E::write(Register, char)>:
  102f1c:	b500      	push	{lr}
  102f1e:	b087      	sub	sp, #28
  102f20:	9003      	str	r0, [sp, #12]
  102f22:	460b      	mov	r3, r1
  102f24:	f88d 300b 	strb.w	r3, [sp, #11]
  102f28:	4613      	mov	r3, r2
  102f2a:	f88d 300a 	strb.w	r3, [sp, #10]
  102f2e:	b672      	cpsid	i
  102f30:	f89d 300b 	ldrb.w	r3, [sp, #11]
  102f34:	f88d 3014 	strb.w	r3, [sp, #20]
  102f38:	f89d 300a 	ldrb.w	r3, [sp, #10]
  102f3c:	f88d 3015 	strb.w	r3, [sp, #21]
  102f40:	9803      	ldr	r0, [sp, #12]
  102f42:	9b03      	ldr	r3, [sp, #12]
  102f44:	7a1b      	ldrb	r3, [r3, #8]
  102f46:	4619      	mov	r1, r3
  102f48:	aa05      	add	r2, sp, #20
  102f4a:	2300      	movs	r3, #0
  102f4c:	9300      	str	r3, [sp, #0]
  102f4e:	2302      	movs	r3, #2
  102f50:	f004 f888 	bl	107064 <mbed::I2C::write(int, char const*, int, bool)>
  102f54:	b662      	cpsie	i
  102f56:	bf00      	nop
  102f58:	b007      	add	sp, #28
  102f5a:	f85d fb04 	ldr.w	pc, [sp], #4
  102f5e:	bf00      	nop

00102f60 <PCA9655E::read(Register)>:
  102f60:	b500      	push	{lr}
  102f62:	b087      	sub	sp, #28
  102f64:	9003      	str	r0, [sp, #12]
  102f66:	460b      	mov	r3, r1
  102f68:	f88d 300b 	strb.w	r3, [sp, #11]
  102f6c:	f89d 300b 	ldrb.w	r3, [sp, #11]
  102f70:	f88d 3016 	strb.w	r3, [sp, #22]
  102f74:	b672      	cpsid	i
  102f76:	9803      	ldr	r0, [sp, #12]
  102f78:	9b03      	ldr	r3, [sp, #12]
  102f7a:	7a1b      	ldrb	r3, [r3, #8]
  102f7c:	4619      	mov	r1, r3
  102f7e:	f10d 0216 	add.w	r2, sp, #22
  102f82:	2301      	movs	r3, #1
  102f84:	9300      	str	r3, [sp, #0]
  102f86:	2301      	movs	r3, #1
  102f88:	f004 f86c 	bl	107064 <mbed::I2C::write(int, char const*, int, bool)>
  102f8c:	9803      	ldr	r0, [sp, #12]
  102f8e:	9b03      	ldr	r3, [sp, #12]
  102f90:	7a1b      	ldrb	r3, [r3, #8]
  102f92:	4619      	mov	r1, r3
  102f94:	f10d 0217 	add.w	r2, sp, #23
  102f98:	2300      	movs	r3, #0
  102f9a:	9300      	str	r3, [sp, #0]
  102f9c:	2301      	movs	r3, #1
  102f9e:	f004 f887 	bl	1070b0 <mbed::I2C::read(int, char*, int, bool)>
  102fa2:	b662      	cpsie	i
  102fa4:	f89d 3017 	ldrb.w	r3, [sp, #23]
  102fa8:	4618      	mov	r0, r3
  102faa:	b007      	add	sp, #28
  102fac:	f85d fb04 	ldr.w	pc, [sp], #4

00102fb0 <PCA9655E::~PCA9655E()>:
  102fb0:	b500      	push	{lr}
  102fb2:	b083      	sub	sp, #12
  102fb4:	9001      	str	r0, [sp, #4]
  102fb6:	9b01      	ldr	r3, [sp, #4]
  102fb8:	330c      	adds	r3, #12
  102fba:	4618      	mov	r0, r3
  102fbc:	f004 f8da 	bl	107174 <mbed::InterruptIn::~InterruptIn()>
  102fc0:	9b01      	ldr	r3, [sp, #4]
  102fc2:	4618      	mov	r0, r3
  102fc4:	b003      	add	sp, #12
  102fc6:	f85d fb04 	ldr.w	pc, [sp], #4
  102fca:	bf00      	nop

00102fcc <rtos::Mutex::Mutex()>:
  102fcc:	b500      	push	{lr}
  102fce:	b083      	sub	sp, #12
  102fd0:	9001      	str	r0, [sp, #4]
  102fd2:	9b01      	ldr	r3, [sp, #4]
  102fd4:	3308      	adds	r3, #8
  102fd6:	220c      	movs	r2, #12
  102fd8:	2100      	movs	r1, #0
  102fda:	4618      	mov	r0, r3
  102fdc:	f006 f810 	bl	109000 <memset>
  102fe0:	9b01      	ldr	r3, [sp, #4]
  102fe2:	f103 0208 	add.w	r2, r3, #8
  102fe6:	9b01      	ldr	r3, [sp, #4]
  102fe8:	605a      	str	r2, [r3, #4]
  102fea:	9b01      	ldr	r3, [sp, #4]
  102fec:	3304      	adds	r3, #4
  102fee:	4618      	mov	r0, r3
  102ff0:	f000 fbb4 	bl	10375c <osMutexCreate>
  102ff4:	4602      	mov	r2, r0
  102ff6:	9b01      	ldr	r3, [sp, #4]
  102ff8:	601a      	str	r2, [r3, #0]
  102ffa:	9b01      	ldr	r3, [sp, #4]
  102ffc:	681b      	ldr	r3, [r3, #0]
  102ffe:	2b00      	cmp	r3, #0
  103000:	d102      	bne.n	103008 <rtos::Mutex::Mutex()+0x3c>
  103002:	4804      	ldr	r0, [pc, #16]	; (103014 <rtos::Mutex::Mutex()+0x48>)
  103004:	f002 f824 	bl	105050 <error>
  103008:	9b01      	ldr	r3, [sp, #4]
  10300a:	4618      	mov	r0, r3
  10300c:	b003      	add	sp, #12
  10300e:	f85d fb04 	ldr.w	pc, [sp], #4
  103012:	bf00      	nop
  103014:	0010df84 	.word	0x0010df84

00103018 <rtos::Mutex::lock(unsigned long)>:
  103018:	b500      	push	{lr}
  10301a:	b083      	sub	sp, #12
  10301c:	9001      	str	r0, [sp, #4]
  10301e:	9100      	str	r1, [sp, #0]
  103020:	9b01      	ldr	r3, [sp, #4]
  103022:	681b      	ldr	r3, [r3, #0]
  103024:	9900      	ldr	r1, [sp, #0]
  103026:	4618      	mov	r0, r3
  103028:	f000 fbc4 	bl	1037b4 <osMutexWait>
  10302c:	4603      	mov	r3, r0
  10302e:	4618      	mov	r0, r3
  103030:	b003      	add	sp, #12
  103032:	f85d fb04 	ldr.w	pc, [sp], #4
  103036:	bf00      	nop

00103038 <rtos::Mutex::unlock()>:
  103038:	b500      	push	{lr}
  10303a:	b083      	sub	sp, #12
  10303c:	9001      	str	r0, [sp, #4]
  10303e:	9b01      	ldr	r3, [sp, #4]
  103040:	681b      	ldr	r3, [r3, #0]
  103042:	4618      	mov	r0, r3
  103044:	f000 fbd4 	bl	1037f0 <osMutexRelease>
  103048:	4603      	mov	r3, r0
  10304a:	4618      	mov	r0, r3
  10304c:	b003      	add	sp, #12
  10304e:	f85d fb04 	ldr.w	pc, [sp], #4
  103052:	bf00      	nop

00103054 <rtos::Mutex::~Mutex()>:
  103054:	b500      	push	{lr}
  103056:	b083      	sub	sp, #12
  103058:	9001      	str	r0, [sp, #4]
  10305a:	9b01      	ldr	r3, [sp, #4]
  10305c:	681b      	ldr	r3, [r3, #0]
  10305e:	4618      	mov	r0, r3
  103060:	f000 fbe0 	bl	103824 <osMutexDelete>
  103064:	9b01      	ldr	r3, [sp, #4]
  103066:	4618      	mov	r0, r3
  103068:	b003      	add	sp, #12
  10306a:	f85d fb04 	ldr.w	pc, [sp], #4
  10306e:	bf00      	nop

00103070 <rt_ms2tick>:
  103070:	b084      	sub	sp, #16
  103072:	9001      	str	r0, [sp, #4]
  103074:	9b01      	ldr	r3, [sp, #4]
  103076:	f1b3 3fff 	cmp.w	r3, #4294967295
  10307a:	d102      	bne.n	103082 <rt_ms2tick+0x12>
  10307c:	f64f 73ff 	movw	r3, #65535	; 0xffff
  103080:	e01d      	b.n	1030be <rt_ms2tick+0x4e>
  103082:	9b01      	ldr	r3, [sp, #4]
  103084:	4a0f      	ldr	r2, [pc, #60]	; (1030c4 <rt_ms2tick+0x54>)
  103086:	4293      	cmp	r3, r2
  103088:	d902      	bls.n	103090 <rt_ms2tick+0x20>
  10308a:	f64f 73fe 	movw	r3, #65534	; 0xfffe
  10308e:	e016      	b.n	1030be <rt_ms2tick+0x4e>
  103090:	9b01      	ldr	r3, [sp, #4]
  103092:	f44f 727a 	mov.w	r2, #1000	; 0x3e8
  103096:	fb02 f203 	mul.w	r2, r2, r3
  10309a:	4b0b      	ldr	r3, [pc, #44]	; (1030c8 <rt_ms2tick+0x58>)
  10309c:	681b      	ldr	r3, [r3, #0]
  10309e:	4413      	add	r3, r2
  1030a0:	1e5a      	subs	r2, r3, #1
  1030a2:	4b09      	ldr	r3, [pc, #36]	; (1030c8 <rt_ms2tick+0x58>)
  1030a4:	681b      	ldr	r3, [r3, #0]
  1030a6:	fbb2 f3f3 	udiv	r3, r2, r3
  1030aa:	9303      	str	r3, [sp, #12]
  1030ac:	9b03      	ldr	r3, [sp, #12]
  1030ae:	f64f 72fe 	movw	r2, #65534	; 0xfffe
  1030b2:	4293      	cmp	r3, r2
  1030b4:	d902      	bls.n	1030bc <rt_ms2tick+0x4c>
  1030b6:	f64f 73fe 	movw	r3, #65534	; 0xfffe
  1030ba:	e000      	b.n	1030be <rt_ms2tick+0x4e>
  1030bc:	9b03      	ldr	r3, [sp, #12]
  1030be:	4618      	mov	r0, r3
  1030c0:	b004      	add	sp, #16
  1030c2:	4770      	bx	lr
  1030c4:	003d0900 	.word	0x003d0900
  1030c8:	0010dfb8 	.word	0x0010dfb8

001030cc <rt_tid2ptcb>:
  1030cc:	b084      	sub	sp, #16
  1030ce:	9001      	str	r0, [sp, #4]
  1030d0:	9b01      	ldr	r3, [sp, #4]
  1030d2:	2b00      	cmp	r3, #0
  1030d4:	d101      	bne.n	1030da <rt_tid2ptcb+0xe>
  1030d6:	2300      	movs	r3, #0
  1030d8:	e00f      	b.n	1030fa <rt_tid2ptcb+0x2e>
  1030da:	9b01      	ldr	r3, [sp, #4]
  1030dc:	f003 0303 	and.w	r3, r3, #3
  1030e0:	2b00      	cmp	r3, #0
  1030e2:	d001      	beq.n	1030e8 <rt_tid2ptcb+0x1c>
  1030e4:	2300      	movs	r3, #0
  1030e6:	e008      	b.n	1030fa <rt_tid2ptcb+0x2e>
  1030e8:	9b01      	ldr	r3, [sp, #4]
  1030ea:	9303      	str	r3, [sp, #12]
  1030ec:	9b03      	ldr	r3, [sp, #12]
  1030ee:	781b      	ldrb	r3, [r3, #0]
  1030f0:	2b00      	cmp	r3, #0
  1030f2:	d001      	beq.n	1030f8 <rt_tid2ptcb+0x2c>
  1030f4:	2300      	movs	r3, #0
  1030f6:	e000      	b.n	1030fa <rt_tid2ptcb+0x2e>
  1030f8:	9b03      	ldr	r3, [sp, #12]
  1030fa:	4618      	mov	r0, r3
  1030fc:	b004      	add	sp, #16
  1030fe:	4770      	bx	lr

00103100 <rt_id2obj>:
  103100:	b082      	sub	sp, #8
  103102:	9001      	str	r0, [sp, #4]
  103104:	9b01      	ldr	r3, [sp, #4]
  103106:	f003 0303 	and.w	r3, r3, #3
  10310a:	2b00      	cmp	r3, #0
  10310c:	d001      	beq.n	103112 <rt_id2obj+0x12>
  10310e:	2300      	movs	r3, #0
  103110:	e000      	b.n	103114 <rt_id2obj+0x14>
  103112:	9b01      	ldr	r3, [sp, #4]
  103114:	4618      	mov	r0, r3
  103116:	b002      	add	sp, #8
  103118:	4770      	bx	lr
  10311a:	bf00      	nop

0010311c <svcKernelInitialize>:
  10311c:	b508      	push	{r3, lr}
  10311e:	4b0a      	ldr	r3, [pc, #40]	; (103148 <svcKernelInitialize+0x2c>)
  103120:	781b      	ldrb	r3, [r3, #0]
  103122:	2b00      	cmp	r3, #0
  103124:	d001      	beq.n	10312a <svcKernelInitialize+0xe>
  103126:	2300      	movs	r3, #0
  103128:	e00c      	b.n	103144 <svcKernelInitialize+0x28>
  10312a:	f001 fd51 	bl	104bd0 <rt_sys_init>
  10312e:	4b07      	ldr	r3, [pc, #28]	; (10314c <svcKernelInitialize+0x30>)
  103130:	681b      	ldr	r3, [r3, #0]
  103132:	22ff      	movs	r2, #255	; 0xff
  103134:	709a      	strb	r2, [r3, #2]
  103136:	2000      	movs	r0, #0
  103138:	f001 fde4 	bl	104d04 <sysThreadError>
  10313c:	4b02      	ldr	r3, [pc, #8]	; (103148 <svcKernelInitialize+0x2c>)
  10313e:	2201      	movs	r2, #1
  103140:	701a      	strb	r2, [r3, #0]
  103142:	2300      	movs	r3, #0
  103144:	4618      	mov	r0, r3
  103146:	bd08      	pop	{r3, pc}
  103148:	3fff4844 	.word	0x3fff4844
  10314c:	3fff4880 	.word	0x3fff4880

00103150 <svcKernelStart>:
  103150:	b500      	push	{lr}
  103152:	b083      	sub	sp, #12
  103154:	4b16      	ldr	r3, [pc, #88]	; (1031b0 <svcKernelStart+0x60>)
  103156:	781b      	ldrb	r3, [r3, #0]
  103158:	2b00      	cmp	r3, #0
  10315a:	d001      	beq.n	103160 <svcKernelStart+0x10>
  10315c:	2300      	movs	r3, #0
  10315e:	e022      	b.n	1031a6 <svcKernelStart+0x56>
  103160:	2100      	movs	r1, #0
  103162:	4814      	ldr	r0, [pc, #80]	; (1031b4 <svcKernelStart+0x64>)
  103164:	f000 fb78 	bl	103858 <svcMessageCreate>
  103168:	4602      	mov	r2, r0
  10316a:	4b13      	ldr	r3, [pc, #76]	; (1031b8 <svcKernelStart+0x68>)
  10316c:	601a      	str	r2, [r3, #0]
  10316e:	2100      	movs	r1, #0
  103170:	4812      	ldr	r0, [pc, #72]	; (1031bc <svcKernelStart+0x6c>)
  103172:	f000 f8ad 	bl	1032d0 <svcThreadCreate>
  103176:	4602      	mov	r2, r0
  103178:	4b11      	ldr	r3, [pc, #68]	; (1031c0 <svcKernelStart+0x70>)
  10317a:	601a      	str	r2, [r3, #0]
  10317c:	2100      	movs	r1, #0
  10317e:	2000      	movs	r0, #0
  103180:	f001 fc6c 	bl	104a5c <rt_tsk_prio>
  103184:	4b0f      	ldr	r3, [pc, #60]	; (1031c4 <svcKernelStart+0x74>)
  103186:	681b      	ldr	r3, [r3, #0]
  103188:	6a9b      	ldr	r3, [r3, #40]	; 0x28
  10318a:	3320      	adds	r3, #32
  10318c:	9301      	str	r3, [sp, #4]
  10318e:	9b01      	ldr	r3, [sp, #4]
  103190:	f383 8809 	msr	PSP, r3
  103194:	4b0b      	ldr	r3, [pc, #44]	; (1031c4 <svcKernelStart+0x74>)
  103196:	2200      	movs	r2, #0
  103198:	601a      	str	r2, [r3, #0]
  10319a:	f001 fd7d 	bl	104c98 <rt_sys_start>
  10319e:	4b04      	ldr	r3, [pc, #16]	; (1031b0 <svcKernelStart+0x60>)
  1031a0:	2201      	movs	r2, #1
  1031a2:	701a      	strb	r2, [r3, #0]
  1031a4:	2300      	movs	r3, #0
  1031a6:	4618      	mov	r0, r3
  1031a8:	b003      	add	sp, #12
  1031aa:	f85d fb04 	ldr.w	pc, [sp], #4
  1031ae:	bf00      	nop
  1031b0:	3fff4845 	.word	0x3fff4845
  1031b4:	3fff4048 	.word	0x3fff4048
  1031b8:	3fff4948 	.word	0x3fff4948
  1031bc:	3fff4004 	.word	0x3fff4004
  1031c0:	3fff4944 	.word	0x3fff4944
  1031c4:	3fff4880 	.word	0x3fff4880

001031c8 <osKernelInitialize>:
  1031c8:	b510      	push	{r4, lr}
  1031ca:	b082      	sub	sp, #8
  1031cc:	f3ef 8405 	mrs	r4, IPSR
  1031d0:	9400      	str	r4, [sp, #0]
  1031d2:	9c00      	ldr	r4, [sp, #0]
  1031d4:	2c00      	cmp	r4, #0
  1031d6:	d001      	beq.n	1031dc <osKernelInitialize+0x14>
  1031d8:	2382      	movs	r3, #130	; 0x82
  1031da:	e010      	b.n	1031fe <osKernelInitialize+0x36>
  1031dc:	f3ef 8414 	mrs	r4, CONTROL
  1031e0:	9401      	str	r4, [sp, #4]
  1031e2:	9c01      	ldr	r4, [sp, #4]
  1031e4:	f004 0401 	and.w	r4, r4, #1
  1031e8:	2c00      	cmp	r4, #0
  1031ea:	d103      	bne.n	1031f4 <osKernelInitialize+0x2c>
  1031ec:	f7ff ff96 	bl	10311c <svcKernelInitialize>
  1031f0:	4603      	mov	r3, r0
  1031f2:	e004      	b.n	1031fe <osKernelInitialize+0x36>
  1031f4:	f8df c00c 	ldr.w	r12, [pc, #12]	; 103204 <osKernelInitialize+0x3c>
  1031f8:	df00      	svc	0
  1031fa:	4603      	mov	r3, r0
  1031fc:	bf00      	nop
  1031fe:	4618      	mov	r0, r3
  103200:	b002      	add	sp, #8
  103202:	bd10      	pop	{r4, pc}
  103204:	0010311d 	.word	0x0010311d

00103208 <osKernelStart>:
  103208:	b510      	push	{r4, lr}
  10320a:	b08e      	sub	sp, #56	; 0x38
  10320c:	f3ef 8405 	mrs	r4, IPSR
  103210:	9408      	str	r4, [sp, #32]
  103212:	9c08      	ldr	r4, [sp, #32]
  103214:	2c00      	cmp	r4, #0
  103216:	d001      	beq.n	10321c <osKernelStart+0x14>
  103218:	2382      	movs	r3, #130	; 0x82
  10321a:	e051      	b.n	1032c0 <osKernelStart+0xb8>
  10321c:	f3ef 8414 	mrs	r4, CONTROL
  103220:	940d      	str	r4, [sp, #52]	; 0x34
  103222:	9c0d      	ldr	r4, [sp, #52]	; 0x34
  103224:	f004 0403 	and.w	r4, r4, #3
  103228:	2c03      	cmp	r4, #3
  10322a:	d844      	bhi.n	1032b6 <osKernelStart+0xae>
  10322c:	f20f 0e04 	addw	lr, pc, #4
  103230:	f85e f024 	ldr.w	pc, [lr, r4, lsl #2]
  103234:	00103245 	.word	0x00103245
  103238:	0010327d 	.word	0x0010327d
  10323c:	00103281 	.word	0x00103281
  103240:	001032a1 	.word	0x001032a1
  103244:	466c      	mov	r4, sp
  103246:	3420      	adds	r4, #32
  103248:	940c      	str	r4, [sp, #48]	; 0x30
  10324a:	9c0c      	ldr	r4, [sp, #48]	; 0x30
  10324c:	f384 8809 	msr	PSP, r4
  103250:	4c1d      	ldr	r4, [pc, #116]	; (1032c8 <osKernelStart+0xc0>)
  103252:	7824      	ldrb	r4, [r4, #0]
  103254:	f004 0401 	and.w	r4, r4, #1
  103258:	2c00      	cmp	r4, #0
  10325a:	d005      	beq.n	103268 <osKernelStart+0x60>
  10325c:	2402      	movs	r4, #2
  10325e:	940b      	str	r4, [sp, #44]	; 0x2c
  103260:	9c0b      	ldr	r4, [sp, #44]	; 0x2c
  103262:	f384 8814 	msr	CONTROL, r4
  103266:	e004      	b.n	103272 <osKernelStart+0x6a>
  103268:	2403      	movs	r4, #3
  10326a:	940a      	str	r4, [sp, #40]	; 0x28
  10326c:	9c0a      	ldr	r4, [sp, #40]	; 0x28
  10326e:	f384 8814 	msr	CONTROL, r4
  103272:	f3bf 8f4f 	dsb	sy
  103276:	f3bf 8f6f 	isb	sy
  10327a:	e01c      	b.n	1032b6 <osKernelStart+0xae>
  10327c:	23ff      	movs	r3, #255	; 0xff
  10327e:	e01f      	b.n	1032c0 <osKernelStart+0xb8>
  103280:	4c11      	ldr	r4, [pc, #68]	; (1032c8 <osKernelStart+0xc0>)
  103282:	7824      	ldrb	r4, [r4, #0]
  103284:	f004 0401 	and.w	r4, r4, #1
  103288:	2c00      	cmp	r4, #0
  10328a:	d111      	bne.n	1032b0 <osKernelStart+0xa8>
  10328c:	2403      	movs	r4, #3
  10328e:	9409      	str	r4, [sp, #36]	; 0x24
  103290:	9c09      	ldr	r4, [sp, #36]	; 0x24
  103292:	f384 8814 	msr	CONTROL, r4
  103296:	f3bf 8f4f 	dsb	sy
  10329a:	f3bf 8f6f 	isb	sy
  10329e:	e007      	b.n	1032b0 <osKernelStart+0xa8>
  1032a0:	4c09      	ldr	r4, [pc, #36]	; (1032c8 <osKernelStart+0xc0>)
  1032a2:	7824      	ldrb	r4, [r4, #0]
  1032a4:	f004 0401 	and.w	r4, r4, #1
  1032a8:	2c00      	cmp	r4, #0
  1032aa:	d003      	beq.n	1032b4 <osKernelStart+0xac>
  1032ac:	23ff      	movs	r3, #255	; 0xff
  1032ae:	e007      	b.n	1032c0 <osKernelStart+0xb8>
  1032b0:	bf00      	nop
  1032b2:	e000      	b.n	1032b6 <osKernelStart+0xae>
  1032b4:	bf00      	nop
  1032b6:	f8df c014 	ldr.w	r12, [pc, #20]	; 1032cc <osKernelStart+0xc4>
  1032ba:	df00      	svc	0
  1032bc:	4603      	mov	r3, r0
  1032be:	bf00      	nop
  1032c0:	4618      	mov	r0, r3
  1032c2:	b00e      	add	sp, #56	; 0x38
  1032c4:	bd10      	pop	{r4, pc}
  1032c6:	bf00      	nop
  1032c8:	0010dfb4 	.word	0x0010dfb4
  1032cc:	00103151 	.word	0x00103151

001032d0 <svcThreadCreate>:
  1032d0:	b500      	push	{lr}
  1032d2:	b087      	sub	sp, #28
  1032d4:	9001      	str	r0, [sp, #4]
  1032d6:	9100      	str	r1, [sp, #0]
  1032d8:	9b01      	ldr	r3, [sp, #4]
  1032da:	2b00      	cmp	r3, #0
  1032dc:	d016      	beq.n	10330c <svcThreadCreate+0x3c>
  1032de:	9b01      	ldr	r3, [sp, #4]
  1032e0:	681b      	ldr	r3, [r3, #0]
  1032e2:	2b00      	cmp	r3, #0
  1032e4:	d012      	beq.n	10330c <svcThreadCreate+0x3c>
  1032e6:	9b01      	ldr	r3, [sp, #4]
  1032e8:	889b      	ldrh	r3, [r3, #4]
  1032ea:	b21b      	sxth	r3, r3
  1032ec:	f113 0f03 	cmn.w	r3, #3
  1032f0:	db0c      	blt.n	10330c <svcThreadCreate+0x3c>
  1032f2:	9b01      	ldr	r3, [sp, #4]
  1032f4:	889b      	ldrh	r3, [r3, #4]
  1032f6:	b21b      	sxth	r3, r3
  1032f8:	2b03      	cmp	r3, #3
  1032fa:	dc07      	bgt.n	10330c <svcThreadCreate+0x3c>
  1032fc:	9b01      	ldr	r3, [sp, #4]
  1032fe:	689b      	ldr	r3, [r3, #8]
  103300:	2b00      	cmp	r3, #0
  103302:	d003      	beq.n	10330c <svcThreadCreate+0x3c>
  103304:	9b01      	ldr	r3, [sp, #4]
  103306:	68db      	ldr	r3, [r3, #12]
  103308:	2b00      	cmp	r3, #0
  10330a:	d104      	bne.n	103316 <svcThreadCreate+0x46>
  10330c:	2080      	movs	r0, #128	; 0x80
  10330e:	f001 fcf9 	bl	104d04 <sysThreadError>
  103312:	2300      	movs	r3, #0
  103314:	e038      	b.n	103388 <svcThreadCreate+0xb8>
  103316:	9b01      	ldr	r3, [sp, #4]
  103318:	889b      	ldrh	r3, [r3, #4]
  10331a:	b2db      	uxtb	r3, r3
  10331c:	3304      	adds	r3, #4
  10331e:	f88d 3017 	strb.w	r3, [sp, #23]
  103322:	9b01      	ldr	r3, [sp, #4]
  103324:	3310      	adds	r3, #16
  103326:	9304      	str	r3, [sp, #16]
  103328:	9b01      	ldr	r3, [sp, #4]
  10332a:	68da      	ldr	r2, [r3, #12]
  10332c:	9b04      	ldr	r3, [sp, #16]
  10332e:	62da      	str	r2, [r3, #44]	; 0x2c
  103330:	9b01      	ldr	r3, [sp, #4]
  103332:	689a      	ldr	r2, [r3, #8]
  103334:	9b04      	ldr	r3, [sp, #16]
  103336:	625a      	str	r2, [r3, #36]	; 0x24
  103338:	f001 fabe 	bl	1048b8 <rt_get_TID>
  10333c:	9003      	str	r0, [sp, #12]
  10333e:	9b03      	ldr	r3, [sp, #12]
  103340:	3b01      	subs	r3, #1
  103342:	4913      	ldr	r1, [pc, #76]	; (103390 <svcThreadCreate+0xc0>)
  103344:	9a04      	ldr	r2, [sp, #16]
  103346:	f841 2023 	str.w	r2, [r1, r3, lsl #2]
  10334a:	9b03      	ldr	r3, [sp, #12]
  10334c:	b2da      	uxtb	r2, r3
  10334e:	9b04      	ldr	r3, [sp, #16]
  103350:	70da      	strb	r2, [r3, #3]
  103352:	9b04      	ldr	r3, [sp, #16]
  103354:	9a00      	ldr	r2, [sp, #0]
  103356:	61da      	str	r2, [r3, #28]
  103358:	9b01      	ldr	r3, [sp, #4]
  10335a:	681a      	ldr	r2, [r3, #0]
  10335c:	f89d 3017 	ldrb.w	r3, [sp, #23]
  103360:	4619      	mov	r1, r3
  103362:	9804      	ldr	r0, [sp, #16]
  103364:	f001 fac6 	bl	1048f4 <rt_init_context>
  103368:	9804      	ldr	r0, [sp, #16]
  10336a:	f001 fb07 	bl	10497c <rt_dispatch>
  10336e:	9b03      	ldr	r3, [sp, #12]
  103370:	3b01      	subs	r3, #1
  103372:	4a07      	ldr	r2, [pc, #28]	; (103390 <svcThreadCreate+0xc0>)
  103374:	f852 3023 	ldr.w	r3, [r2, r3, lsl #2]
  103378:	9302      	str	r3, [sp, #8]
  10337a:	9b02      	ldr	r3, [sp, #8]
  10337c:	6a9b      	ldr	r3, [r3, #40]	; 0x28
  10337e:	3334      	adds	r3, #52	; 0x34
  103380:	461a      	mov	r2, r3
  103382:	4b04      	ldr	r3, [pc, #16]	; (103394 <svcThreadCreate+0xc4>)
  103384:	6013      	str	r3, [r2, #0]
  103386:	9b02      	ldr	r3, [sp, #8]
  103388:	4618      	mov	r0, r3
  10338a:	b007      	add	sp, #28
  10338c:	f85d fb04 	ldr.w	pc, [sp], #4
  103390:	3fff516c 	.word	0x3fff516c
  103394:	00103461 	.word	0x00103461

00103398 <svcThreadGetId>:
  103398:	b500      	push	{lr}
  10339a:	b083      	sub	sp, #12
  10339c:	f001 fb50 	bl	104a40 <rt_tsk_self>
  1033a0:	9001      	str	r0, [sp, #4]
  1033a2:	9b01      	ldr	r3, [sp, #4]
  1033a4:	2b00      	cmp	r3, #0
  1033a6:	d101      	bne.n	1033ac <svcThreadGetId+0x14>
  1033a8:	2300      	movs	r3, #0
  1033aa:	e004      	b.n	1033b6 <svcThreadGetId+0x1e>
  1033ac:	9b01      	ldr	r3, [sp, #4]
  1033ae:	3b01      	subs	r3, #1
  1033b0:	4a03      	ldr	r2, [pc, #12]	; (1033c0 <svcThreadGetId+0x28>)
  1033b2:	f852 3023 	ldr.w	r3, [r2, r3, lsl #2]
  1033b6:	4618      	mov	r0, r3
  1033b8:	b003      	add	sp, #12
  1033ba:	f85d fb04 	ldr.w	pc, [sp], #4
  1033be:	bf00      	nop
  1033c0:	3fff516c 	.word	0x3fff516c

001033c4 <svcThreadTerminate>:
  1033c4:	b500      	push	{lr}
  1033c6:	b085      	sub	sp, #20
  1033c8:	9001      	str	r0, [sp, #4]
  1033ca:	9801      	ldr	r0, [sp, #4]
  1033cc:	f7ff fe7e 	bl	1030cc <rt_tid2ptcb>
  1033d0:	9003      	str	r0, [sp, #12]
  1033d2:	9b03      	ldr	r3, [sp, #12]
  1033d4:	2b00      	cmp	r3, #0
  1033d6:	d101      	bne.n	1033dc <svcThreadTerminate+0x18>
  1033d8:	2380      	movs	r3, #128	; 0x80
  1033da:	e00b      	b.n	1033f4 <svcThreadTerminate+0x30>
  1033dc:	9b03      	ldr	r3, [sp, #12]
  1033de:	78db      	ldrb	r3, [r3, #3]
  1033e0:	4618      	mov	r0, r3
  1033e2:	f001 fb9b 	bl	104b1c <rt_tsk_delete>
  1033e6:	9002      	str	r0, [sp, #8]
  1033e8:	9b02      	ldr	r3, [sp, #8]
  1033ea:	2bff      	cmp	r3, #255	; 0xff
  1033ec:	d101      	bne.n	1033f2 <svcThreadTerminate+0x2e>
  1033ee:	2381      	movs	r3, #129	; 0x81
  1033f0:	e000      	b.n	1033f4 <svcThreadTerminate+0x30>
  1033f2:	2300      	movs	r3, #0
  1033f4:	4618      	mov	r0, r3
  1033f6:	b005      	add	sp, #20
  1033f8:	f85d fb04 	ldr.w	pc, [sp], #4

001033fc <osThreadCreate>:
  1033fc:	b500      	push	{lr}
  1033fe:	b087      	sub	sp, #28
  103400:	9001      	str	r0, [sp, #4]
  103402:	9100      	str	r1, [sp, #0]
  103404:	f3ef 8105 	mrs	r1, IPSR
  103408:	9103      	str	r1, [sp, #12]
  10340a:	9903      	ldr	r1, [sp, #12]
  10340c:	2900      	cmp	r1, #0
  10340e:	d001      	beq.n	103414 <osThreadCreate+0x18>
  103410:	2300      	movs	r3, #0
  103412:	e01c      	b.n	10344e <osThreadCreate+0x52>
  103414:	f3ef 8114 	mrs	r1, CONTROL
  103418:	9105      	str	r1, [sp, #20]
  10341a:	9905      	ldr	r1, [sp, #20]
  10341c:	f001 0101 	and.w	r1, r1, #1
  103420:	2900      	cmp	r1, #0
  103422:	d109      	bne.n	103438 <osThreadCreate+0x3c>
  103424:	490c      	ldr	r1, [pc, #48]	; (103458 <osThreadCreate+0x5c>)
  103426:	7809      	ldrb	r1, [r1, #0]
  103428:	2900      	cmp	r1, #0
  10342a:	d105      	bne.n	103438 <osThreadCreate+0x3c>
  10342c:	9900      	ldr	r1, [sp, #0]
  10342e:	9801      	ldr	r0, [sp, #4]
  103430:	f7ff ff4e 	bl	1032d0 <svcThreadCreate>
  103434:	4603      	mov	r3, r0
  103436:	e00a      	b.n	10344e <osThreadCreate+0x52>
  103438:	9901      	ldr	r1, [sp, #4]
  10343a:	9104      	str	r1, [sp, #16]
  10343c:	9900      	ldr	r1, [sp, #0]
  10343e:	9102      	str	r1, [sp, #8]
  103440:	9804      	ldr	r0, [sp, #16]
  103442:	9902      	ldr	r1, [sp, #8]
  103444:	f8df c014 	ldr.w	r12, [pc, #20]	; 10345c <osThreadCreate+0x60>
  103448:	df00      	svc	0
  10344a:	4603      	mov	r3, r0
  10344c:	bf00      	nop
  10344e:	4618      	mov	r0, r3
  103450:	b007      	add	sp, #28
  103452:	f85d fb04 	ldr.w	pc, [sp], #4
  103456:	bf00      	nop
  103458:	3fff4845 	.word	0x3fff4845
  10345c:	001032d1 	.word	0x001032d1

00103460 <osThreadExit>:
  103460:	b500      	push	{lr}
  103462:	b083      	sub	sp, #12
  103464:	f8df c010 	ldr.w	r12, [pc, #16]	; 103478 <osThreadExit+0x18>
  103468:	df00      	svc	0
  10346a:	9001      	str	r0, [sp, #4]
  10346c:	9801      	ldr	r0, [sp, #4]
  10346e:	f8df c00c 	ldr.w	r12, [pc, #12]	; 10347c <osThreadExit+0x1c>
  103472:	df00      	svc	0
  103474:	e7fe      	b.n	103474 <osThreadExit+0x14>
  103476:	0000      	.short	0x0000
  103478:	00103399 	.word	0x00103399
  10347c:	001033c5 	.word	0x001033c5

00103480 <rt_timer_insert>:
  103480:	b084      	sub	sp, #16
  103482:	9001      	str	r0, [sp, #4]
  103484:	9100      	str	r1, [sp, #0]
  103486:	2300      	movs	r3, #0
  103488:	9302      	str	r3, [sp, #8]
  10348a:	4b1c      	ldr	r3, [pc, #112]	; (1034fc <rt_timer_insert+0x7c>)
  10348c:	681b      	ldr	r3, [r3, #0]
  10348e:	9303      	str	r3, [sp, #12]
  103490:	e010      	b.n	1034b4 <rt_timer_insert+0x34>
  103492:	9b03      	ldr	r3, [sp, #12]
  103494:	891b      	ldrh	r3, [r3, #8]
  103496:	461a      	mov	r2, r3
  103498:	9b00      	ldr	r3, [sp, #0]
  10349a:	429a      	cmp	r2, r3
  10349c:	d80e      	bhi.n	1034bc <rt_timer_insert+0x3c>
  10349e:	9b03      	ldr	r3, [sp, #12]
  1034a0:	891b      	ldrh	r3, [r3, #8]
  1034a2:	461a      	mov	r2, r3
  1034a4:	9b00      	ldr	r3, [sp, #0]
  1034a6:	1a9b      	subs	r3, r3, r2
  1034a8:	9300      	str	r3, [sp, #0]
  1034aa:	9b03      	ldr	r3, [sp, #12]
  1034ac:	9302      	str	r3, [sp, #8]
  1034ae:	9b03      	ldr	r3, [sp, #12]
  1034b0:	681b      	ldr	r3, [r3, #0]
  1034b2:	9303      	str	r3, [sp, #12]
  1034b4:	9b03      	ldr	r3, [sp, #12]
  1034b6:	2b00      	cmp	r3, #0
  1034b8:	d1eb      	bne.n	103492 <rt_timer_insert+0x12>
  1034ba:	e000      	b.n	1034be <rt_timer_insert+0x3e>
  1034bc:	bf00      	nop
  1034be:	9b01      	ldr	r3, [sp, #4]
  1034c0:	9a03      	ldr	r2, [sp, #12]
  1034c2:	601a      	str	r2, [r3, #0]
  1034c4:	9b00      	ldr	r3, [sp, #0]
  1034c6:	b29a      	uxth	r2, r3
  1034c8:	9b01      	ldr	r3, [sp, #4]
  1034ca:	811a      	strh	r2, [r3, #8]
  1034cc:	9b03      	ldr	r3, [sp, #12]
  1034ce:	2b00      	cmp	r3, #0
  1034d0:	d007      	beq.n	1034e2 <rt_timer_insert+0x62>
  1034d2:	9b03      	ldr	r3, [sp, #12]
  1034d4:	891a      	ldrh	r2, [r3, #8]
  1034d6:	9b01      	ldr	r3, [sp, #4]
  1034d8:	891b      	ldrh	r3, [r3, #8]
  1034da:	1ad3      	subs	r3, r2, r3
  1034dc:	b29a      	uxth	r2, r3
  1034de:	9b03      	ldr	r3, [sp, #12]
  1034e0:	811a      	strh	r2, [r3, #8]
  1034e2:	9b02      	ldr	r3, [sp, #8]
  1034e4:	2b00      	cmp	r3, #0
  1034e6:	d003      	beq.n	1034f0 <rt_timer_insert+0x70>
  1034e8:	9b02      	ldr	r3, [sp, #8]
  1034ea:	9a01      	ldr	r2, [sp, #4]
  1034ec:	601a      	str	r2, [r3, #0]
  1034ee:	e002      	b.n	1034f6 <rt_timer_insert+0x76>
  1034f0:	4a02      	ldr	r2, [pc, #8]	; (1034fc <rt_timer_insert+0x7c>)
  1034f2:	9b01      	ldr	r3, [sp, #4]
  1034f4:	6013      	str	r3, [r2, #0]
  1034f6:	bf00      	nop
  1034f8:	b004      	add	sp, #16
  1034fa:	4770      	bx	lr
  1034fc:	3fff4848 	.word	0x3fff4848

00103500 <svcTimerCall>:
  103500:	b510      	push	{r4, lr}
  103502:	b086      	sub	sp, #24
  103504:	9001      	str	r0, [sp, #4]
  103506:	9801      	ldr	r0, [sp, #4]
  103508:	f7ff fdfa 	bl	103100 <rt_id2obj>
  10350c:	9005      	str	r0, [sp, #20]
  10350e:	9b05      	ldr	r3, [sp, #20]
  103510:	2b00      	cmp	r3, #0
  103512:	d10e      	bne.n	103532 <svcTimerCall+0x32>
  103514:	2300      	movs	r3, #0
  103516:	9303      	str	r3, [sp, #12]
  103518:	2300      	movs	r3, #0
  10351a:	9304      	str	r3, [sp, #16]
  10351c:	9b03      	ldr	r3, [sp, #12]
  10351e:	4619      	mov	r1, r3
  103520:	9b04      	ldr	r3, [sp, #16]
  103522:	461a      	mov	r2, r3
  103524:	f04f 0300 	mov.w	r3, #0
  103528:	f04f 0400 	mov.w	r4, #0
  10352c:	460b      	mov	r3, r1
  10352e:	4614      	mov	r4, r2
  103530:	e010      	b.n	103554 <svcTimerCall+0x54>
  103532:	9b05      	ldr	r3, [sp, #20]
  103534:	691b      	ldr	r3, [r3, #16]
  103536:	681b      	ldr	r3, [r3, #0]
  103538:	9303      	str	r3, [sp, #12]
  10353a:	9b05      	ldr	r3, [sp, #20]
  10353c:	68db      	ldr	r3, [r3, #12]
  10353e:	9304      	str	r3, [sp, #16]
  103540:	9b03      	ldr	r3, [sp, #12]
  103542:	4619      	mov	r1, r3
  103544:	9b04      	ldr	r3, [sp, #16]
  103546:	461a      	mov	r2, r3
  103548:	f04f 0300 	mov.w	r3, #0
  10354c:	f04f 0400 	mov.w	r4, #0
  103550:	460b      	mov	r3, r1
  103552:	4614      	mov	r4, r2
  103554:	4618      	mov	r0, r3
  103556:	4621      	mov	r1, r4
  103558:	b006      	add	sp, #24
  10355a:	bd10      	pop	{r4, pc}

0010355c <sysTimerTick>:
  10355c:	b500      	push	{lr}
  10355e:	b083      	sub	sp, #12
  103560:	4b1a      	ldr	r3, [pc, #104]	; (1035cc <sysTimerTick+0x70>)
  103562:	681b      	ldr	r3, [r3, #0]
  103564:	9301      	str	r3, [sp, #4]
  103566:	9b01      	ldr	r3, [sp, #4]
  103568:	2b00      	cmp	r3, #0
  10356a:	d02b      	beq.n	1035c4 <sysTimerTick+0x68>
  10356c:	9b01      	ldr	r3, [sp, #4]
  10356e:	891b      	ldrh	r3, [r3, #8]
  103570:	3b01      	subs	r3, #1
  103572:	b29a      	uxth	r2, r3
  103574:	9b01      	ldr	r3, [sp, #4]
  103576:	811a      	strh	r2, [r3, #8]
  103578:	e01c      	b.n	1035b4 <sysTimerTick+0x58>
  10357a:	9b01      	ldr	r3, [sp, #4]
  10357c:	9300      	str	r3, [sp, #0]
  10357e:	9b01      	ldr	r3, [sp, #4]
  103580:	681b      	ldr	r3, [r3, #0]
  103582:	9301      	str	r3, [sp, #4]
  103584:	4a11      	ldr	r2, [pc, #68]	; (1035cc <sysTimerTick+0x70>)
  103586:	9b01      	ldr	r3, [sp, #4]
  103588:	6013      	str	r3, [r2, #0]
  10358a:	4b11      	ldr	r3, [pc, #68]	; (1035d0 <sysTimerTick+0x74>)
  10358c:	681b      	ldr	r3, [r3, #0]
  10358e:	9900      	ldr	r1, [sp, #0]
  103590:	2200      	movs	r2, #0
  103592:	4618      	mov	r0, r3
  103594:	f000 f9f2 	bl	10397c <isrMessagePut>
  103598:	9b00      	ldr	r3, [sp, #0]
  10359a:	795b      	ldrb	r3, [r3, #5]
  10359c:	2b01      	cmp	r3, #1
  10359e:	d106      	bne.n	1035ae <sysTimerTick+0x52>
  1035a0:	9b00      	ldr	r3, [sp, #0]
  1035a2:	895b      	ldrh	r3, [r3, #10]
  1035a4:	4619      	mov	r1, r3
  1035a6:	9800      	ldr	r0, [sp, #0]
  1035a8:	f7ff ff6a 	bl	103480 <rt_timer_insert>
  1035ac:	e002      	b.n	1035b4 <sysTimerTick+0x58>
  1035ae:	9b00      	ldr	r3, [sp, #0]
  1035b0:	2201      	movs	r2, #1
  1035b2:	711a      	strb	r2, [r3, #4]
  1035b4:	9b01      	ldr	r3, [sp, #4]
  1035b6:	2b00      	cmp	r3, #0
  1035b8:	d005      	beq.n	1035c6 <sysTimerTick+0x6a>
  1035ba:	9b01      	ldr	r3, [sp, #4]
  1035bc:	891b      	ldrh	r3, [r3, #8]
  1035be:	2b00      	cmp	r3, #0
  1035c0:	d0db      	beq.n	10357a <sysTimerTick+0x1e>
  1035c2:	e000      	b.n	1035c6 <sysTimerTick+0x6a>
  1035c4:	bf00      	nop
  1035c6:	b003      	add	sp, #12
  1035c8:	f85d fb04 	ldr.w	pc, [sp], #4
  1035cc:	3fff4848 	.word	0x3fff4848
  1035d0:	3fff4948 	.word	0x3fff4948

001035d4 <osTimerCall>:
  1035d4:	b500      	push	{lr}
  1035d6:	b085      	sub	sp, #20
  1035d8:	9001      	str	r0, [sp, #4]
  1035da:	9100      	str	r1, [sp, #0]
  1035dc:	9800      	ldr	r0, [sp, #0]
  1035de:	9003      	str	r0, [sp, #12]
  1035e0:	9803      	ldr	r0, [sp, #12]
  1035e2:	f8df c01c 	ldr.w	r12, [pc, #28]	; 103600 <osTimerCall+0x2c>
  1035e6:	df00      	svc	0
  1035e8:	460b      	mov	r3, r1
  1035ea:	461a      	mov	r2, r3
  1035ec:	9b01      	ldr	r3, [sp, #4]
  1035ee:	6018      	str	r0, [r3, #0]
  1035f0:	9b01      	ldr	r3, [sp, #4]
  1035f2:	605a      	str	r2, [r3, #4]
  1035f4:	bf00      	nop
  1035f6:	9801      	ldr	r0, [sp, #4]
  1035f8:	b005      	add	sp, #20
  1035fa:	f85d fb04 	ldr.w	pc, [sp], #4
  1035fe:	0000      	.short	0x0000
  103600:	00103501 	.word	0x00103501

00103604 <osTimerThread>:
  103604:	b500      	push	{lr}
  103606:	b089      	sub	sp, #36	; 0x24
  103608:	9001      	str	r0, [sp, #4]
  10360a:	4b0c      	ldr	r3, [pc, #48]	; (10363c <osTimerThread+0x38>)
  10360c:	6819      	ldr	r1, [r3, #0]
  10360e:	ab03      	add	r3, sp, #12
  103610:	f04f 32ff 	mov.w	r2, #4294967295
  103614:	4618      	mov	r0, r3
  103616:	f000 fa1b 	bl	103a50 <osMessageGet>
  10361a:	9b03      	ldr	r3, [sp, #12]
  10361c:	2b10      	cmp	r3, #16
  10361e:	d1f4      	bne.n	10360a <osTimerThread+0x6>
  103620:	9a04      	ldr	r2, [sp, #16]
  103622:	ab06      	add	r3, sp, #24
  103624:	4611      	mov	r1, r2
  103626:	4618      	mov	r0, r3
  103628:	f7ff ffd4 	bl	1035d4 <osTimerCall>
  10362c:	9b06      	ldr	r3, [sp, #24]
  10362e:	2b00      	cmp	r3, #0
  103630:	d0eb      	beq.n	10360a <osTimerThread+0x6>
  103632:	9b06      	ldr	r3, [sp, #24]
  103634:	9a07      	ldr	r2, [sp, #28]
  103636:	4610      	mov	r0, r2
  103638:	4798      	blx	r3
  10363a:	e7e6      	b.n	10360a <osTimerThread+0x6>
  10363c:	3fff4948 	.word	0x3fff4948

00103640 <svcMutexCreate>:
  103640:	b500      	push	{lr}
  103642:	b085      	sub	sp, #20
  103644:	9001      	str	r0, [sp, #4]
  103646:	9b01      	ldr	r3, [sp, #4]
  103648:	2b00      	cmp	r3, #0
  10364a:	d104      	bne.n	103656 <svcMutexCreate+0x16>
  10364c:	2080      	movs	r0, #128	; 0x80
  10364e:	f001 fb59 	bl	104d04 <sysThreadError>
  103652:	2300      	movs	r3, #0
  103654:	e017      	b.n	103686 <svcMutexCreate+0x46>
  103656:	9b01      	ldr	r3, [sp, #4]
  103658:	681b      	ldr	r3, [r3, #0]
  10365a:	9303      	str	r3, [sp, #12]
  10365c:	9b03      	ldr	r3, [sp, #12]
  10365e:	2b00      	cmp	r3, #0
  103660:	d104      	bne.n	10366c <svcMutexCreate+0x2c>
  103662:	2080      	movs	r0, #128	; 0x80
  103664:	f001 fb4e 	bl	104d04 <sysThreadError>
  103668:	2300      	movs	r3, #0
  10366a:	e00c      	b.n	103686 <svcMutexCreate+0x46>
  10366c:	9b03      	ldr	r3, [sp, #12]
  10366e:	781b      	ldrb	r3, [r3, #0]
  103670:	2b00      	cmp	r3, #0
  103672:	d004      	beq.n	10367e <svcMutexCreate+0x3e>
  103674:	2080      	movs	r0, #128	; 0x80
  103676:	f001 fb45 	bl	104d04 <sysThreadError>
  10367a:	2300      	movs	r3, #0
  10367c:	e003      	b.n	103686 <svcMutexCreate+0x46>
  10367e:	9803      	ldr	r0, [sp, #12]
  103680:	f000 fe8a 	bl	104398 <rt_mut_init>
  103684:	9b03      	ldr	r3, [sp, #12]
  103686:	4618      	mov	r0, r3
  103688:	b005      	add	sp, #20
  10368a:	f85d fb04 	ldr.w	pc, [sp], #4
  10368e:	bf00      	nop

00103690 <svcMutexWait>:
  103690:	b500      	push	{lr}
  103692:	b085      	sub	sp, #20
  103694:	9001      	str	r0, [sp, #4]
  103696:	9100      	str	r1, [sp, #0]
  103698:	9801      	ldr	r0, [sp, #4]
  10369a:	f7ff fd31 	bl	103100 <rt_id2obj>
  10369e:	9003      	str	r0, [sp, #12]
  1036a0:	9b03      	ldr	r3, [sp, #12]
  1036a2:	2b00      	cmp	r3, #0
  1036a4:	d101      	bne.n	1036aa <svcMutexWait+0x1a>
  1036a6:	2380      	movs	r3, #128	; 0x80
  1036a8:	e01a      	b.n	1036e0 <svcMutexWait+0x50>
  1036aa:	9b03      	ldr	r3, [sp, #12]
  1036ac:	781b      	ldrb	r3, [r3, #0]
  1036ae:	2b03      	cmp	r3, #3
  1036b0:	d001      	beq.n	1036b6 <svcMutexWait+0x26>
  1036b2:	2380      	movs	r3, #128	; 0x80
  1036b4:	e014      	b.n	1036e0 <svcMutexWait+0x50>
  1036b6:	9800      	ldr	r0, [sp, #0]
  1036b8:	f7ff fcda 	bl	103070 <rt_ms2tick>
  1036bc:	4603      	mov	r3, r0
  1036be:	b29b      	uxth	r3, r3
  1036c0:	4619      	mov	r1, r3
  1036c2:	9803      	ldr	r0, [sp, #12]
  1036c4:	f000 ff4e 	bl	104564 <rt_mut_wait>
  1036c8:	9002      	str	r0, [sp, #8]
  1036ca:	9b02      	ldr	r3, [sp, #8]
  1036cc:	2b01      	cmp	r3, #1
  1036ce:	d106      	bne.n	1036de <svcMutexWait+0x4e>
  1036d0:	9b00      	ldr	r3, [sp, #0]
  1036d2:	2b00      	cmp	r3, #0
  1036d4:	d001      	beq.n	1036da <svcMutexWait+0x4a>
  1036d6:	23c1      	movs	r3, #193	; 0xc1
  1036d8:	e002      	b.n	1036e0 <svcMutexWait+0x50>
  1036da:	2381      	movs	r3, #129	; 0x81
  1036dc:	e000      	b.n	1036e0 <svcMutexWait+0x50>
  1036de:	2300      	movs	r3, #0
  1036e0:	4618      	mov	r0, r3
  1036e2:	b005      	add	sp, #20
  1036e4:	f85d fb04 	ldr.w	pc, [sp], #4

001036e8 <svcMutexRelease>:
  1036e8:	b500      	push	{lr}
  1036ea:	b085      	sub	sp, #20
  1036ec:	9001      	str	r0, [sp, #4]
  1036ee:	9801      	ldr	r0, [sp, #4]
  1036f0:	f7ff fd06 	bl	103100 <rt_id2obj>
  1036f4:	9003      	str	r0, [sp, #12]
  1036f6:	9b03      	ldr	r3, [sp, #12]
  1036f8:	2b00      	cmp	r3, #0
  1036fa:	d101      	bne.n	103700 <svcMutexRelease+0x18>
  1036fc:	2380      	movs	r3, #128	; 0x80
  1036fe:	e00f      	b.n	103720 <svcMutexRelease+0x38>
  103700:	9b03      	ldr	r3, [sp, #12]
  103702:	781b      	ldrb	r3, [r3, #0]
  103704:	2b03      	cmp	r3, #3
  103706:	d001      	beq.n	10370c <svcMutexRelease+0x24>
  103708:	2380      	movs	r3, #128	; 0x80
  10370a:	e009      	b.n	103720 <svcMutexRelease+0x38>
  10370c:	9803      	ldr	r0, [sp, #12]
  10370e:	f000 feaf 	bl	104470 <rt_mut_release>
  103712:	9002      	str	r0, [sp, #8]
  103714:	9b02      	ldr	r3, [sp, #8]
  103716:	2bff      	cmp	r3, #255	; 0xff
  103718:	d101      	bne.n	10371e <svcMutexRelease+0x36>
  10371a:	2381      	movs	r3, #129	; 0x81
  10371c:	e000      	b.n	103720 <svcMutexRelease+0x38>
  10371e:	2300      	movs	r3, #0
  103720:	4618      	mov	r0, r3
  103722:	b005      	add	sp, #20
  103724:	f85d fb04 	ldr.w	pc, [sp], #4

00103728 <svcMutexDelete>:
  103728:	b500      	push	{lr}
  10372a:	b085      	sub	sp, #20
  10372c:	9001      	str	r0, [sp, #4]
  10372e:	9801      	ldr	r0, [sp, #4]
  103730:	f7ff fce6 	bl	103100 <rt_id2obj>
  103734:	9003      	str	r0, [sp, #12]
  103736:	9b03      	ldr	r3, [sp, #12]
  103738:	2b00      	cmp	r3, #0
  10373a:	d101      	bne.n	103740 <svcMutexDelete+0x18>
  10373c:	2380      	movs	r3, #128	; 0x80
  10373e:	e009      	b.n	103754 <svcMutexDelete+0x2c>
  103740:	9b03      	ldr	r3, [sp, #12]
  103742:	781b      	ldrb	r3, [r3, #0]
  103744:	2b03      	cmp	r3, #3
  103746:	d001      	beq.n	10374c <svcMutexDelete+0x24>
  103748:	2380      	movs	r3, #128	; 0x80
  10374a:	e003      	b.n	103754 <svcMutexDelete+0x2c>
  10374c:	9803      	ldr	r0, [sp, #12]
  10374e:	f000 fe39 	bl	1043c4 <rt_mut_delete>
  103752:	2300      	movs	r3, #0
  103754:	4618      	mov	r0, r3
  103756:	b005      	add	sp, #20
  103758:	f85d fb04 	ldr.w	pc, [sp], #4

0010375c <osMutexCreate>:
  10375c:	b500      	push	{lr}
  10375e:	b087      	sub	sp, #28
  103760:	9001      	str	r0, [sp, #4]
  103762:	f3ef 8005 	mrs	r0, IPSR
  103766:	9003      	str	r0, [sp, #12]
  103768:	9803      	ldr	r0, [sp, #12]
  10376a:	2800      	cmp	r0, #0
  10376c:	d001      	beq.n	103772 <osMutexCreate+0x16>
  10376e:	2300      	movs	r3, #0
  103770:	e018      	b.n	1037a4 <osMutexCreate+0x48>
  103772:	f3ef 8014 	mrs	r0, CONTROL
  103776:	9005      	str	r0, [sp, #20]
  103778:	9805      	ldr	r0, [sp, #20]
  10377a:	f000 0001 	and.w	r0, r0, #1
  10377e:	2800      	cmp	r0, #0
  103780:	d108      	bne.n	103794 <osMutexCreate+0x38>
  103782:	480a      	ldr	r0, [pc, #40]	; (1037ac <osMutexCreate+0x50>)
  103784:	7800      	ldrb	r0, [r0, #0]
  103786:	2800      	cmp	r0, #0
  103788:	d104      	bne.n	103794 <osMutexCreate+0x38>
  10378a:	9801      	ldr	r0, [sp, #4]
  10378c:	f7ff ff58 	bl	103640 <svcMutexCreate>
  103790:	4603      	mov	r3, r0
  103792:	e007      	b.n	1037a4 <osMutexCreate+0x48>
  103794:	9801      	ldr	r0, [sp, #4]
  103796:	9004      	str	r0, [sp, #16]
  103798:	9804      	ldr	r0, [sp, #16]
  10379a:	f8df c014 	ldr.w	r12, [pc, #20]	; 1037b0 <osMutexCreate+0x54>
  10379e:	df00      	svc	0
  1037a0:	4603      	mov	r3, r0
  1037a2:	bf00      	nop
  1037a4:	4618      	mov	r0, r3
  1037a6:	b007      	add	sp, #28
  1037a8:	f85d fb04 	ldr.w	pc, [sp], #4
  1037ac:	3fff4845 	.word	0x3fff4845
  1037b0:	00103641 	.word	0x00103641

001037b4 <osMutexWait>:
  1037b4:	b500      	push	{lr}
  1037b6:	b087      	sub	sp, #28
  1037b8:	9001      	str	r0, [sp, #4]
  1037ba:	9100      	str	r1, [sp, #0]
  1037bc:	f3ef 8105 	mrs	r1, IPSR
  1037c0:	9104      	str	r1, [sp, #16]
  1037c2:	9904      	ldr	r1, [sp, #16]
  1037c4:	2900      	cmp	r1, #0
  1037c6:	d001      	beq.n	1037cc <osMutexWait+0x18>
  1037c8:	2382      	movs	r3, #130	; 0x82
  1037ca:	e00a      	b.n	1037e2 <osMutexWait+0x2e>
  1037cc:	9901      	ldr	r1, [sp, #4]
  1037ce:	9105      	str	r1, [sp, #20]
  1037d0:	9900      	ldr	r1, [sp, #0]
  1037d2:	9103      	str	r1, [sp, #12]
  1037d4:	9805      	ldr	r0, [sp, #20]
  1037d6:	9903      	ldr	r1, [sp, #12]
  1037d8:	f8df c010 	ldr.w	r12, [pc, #16]	; 1037ec <osMutexWait+0x38>
  1037dc:	df00      	svc	0
  1037de:	4603      	mov	r3, r0
  1037e0:	bf00      	nop
  1037e2:	4618      	mov	r0, r3
  1037e4:	b007      	add	sp, #28
  1037e6:	f85d fb04 	ldr.w	pc, [sp], #4
  1037ea:	0000      	.short	0x0000
  1037ec:	00103691 	.word	0x00103691

001037f0 <osMutexRelease>:
  1037f0:	b500      	push	{lr}
  1037f2:	b085      	sub	sp, #20
  1037f4:	9001      	str	r0, [sp, #4]
  1037f6:	f3ef 8005 	mrs	r0, IPSR
  1037fa:	9002      	str	r0, [sp, #8]
  1037fc:	9802      	ldr	r0, [sp, #8]
  1037fe:	2800      	cmp	r0, #0
  103800:	d001      	beq.n	103806 <osMutexRelease+0x16>
  103802:	2382      	movs	r3, #130	; 0x82
  103804:	e007      	b.n	103816 <osMutexRelease+0x26>
  103806:	9801      	ldr	r0, [sp, #4]
  103808:	9003      	str	r0, [sp, #12]
  10380a:	9803      	ldr	r0, [sp, #12]
  10380c:	f8df c010 	ldr.w	r12, [pc, #16]	; 103820 <osMutexRelease+0x30>
  103810:	df00      	svc	0
  103812:	4603      	mov	r3, r0
  103814:	bf00      	nop
  103816:	4618      	mov	r0, r3
  103818:	b005      	add	sp, #20
  10381a:	f85d fb04 	ldr.w	pc, [sp], #4
  10381e:	0000      	.short	0x0000
  103820:	001036e9 	.word	0x001036e9

00103824 <osMutexDelete>:
  103824:	b500      	push	{lr}
  103826:	b085      	sub	sp, #20
  103828:	9001      	str	r0, [sp, #4]
  10382a:	f3ef 8005 	mrs	r0, IPSR
  10382e:	9002      	str	r0, [sp, #8]
  103830:	9802      	ldr	r0, [sp, #8]
  103832:	2800      	cmp	r0, #0
  103834:	d001      	beq.n	10383a <osMutexDelete+0x16>
  103836:	2382      	movs	r3, #130	; 0x82
  103838:	e007      	b.n	10384a <osMutexDelete+0x26>
  10383a:	9801      	ldr	r0, [sp, #4]
  10383c:	9003      	str	r0, [sp, #12]
  10383e:	9803      	ldr	r0, [sp, #12]
  103840:	f8df c010 	ldr.w	r12, [pc, #16]	; 103854 <osMutexDelete+0x30>
  103844:	df00      	svc	0
  103846:	4603      	mov	r3, r0
  103848:	bf00      	nop
  10384a:	4618      	mov	r0, r3
  10384c:	b005      	add	sp, #20
  10384e:	f85d fb04 	ldr.w	pc, [sp], #4
  103852:	0000      	.short	0x0000
  103854:	00103729 	.word	0x00103729

00103858 <svcMessageCreate>:
  103858:	b500      	push	{lr}
  10385a:	b083      	sub	sp, #12
  10385c:	9001      	str	r0, [sp, #4]
  10385e:	9100      	str	r1, [sp, #0]
  103860:	9b01      	ldr	r3, [sp, #4]
  103862:	2b00      	cmp	r3, #0
  103864:	d007      	beq.n	103876 <svcMessageCreate+0x1e>
  103866:	9b01      	ldr	r3, [sp, #4]
  103868:	681b      	ldr	r3, [r3, #0]
  10386a:	2b00      	cmp	r3, #0
  10386c:	d003      	beq.n	103876 <svcMessageCreate+0x1e>
  10386e:	9b01      	ldr	r3, [sp, #4]
  103870:	685b      	ldr	r3, [r3, #4]
  103872:	2b00      	cmp	r3, #0
  103874:	d104      	bne.n	103880 <svcMessageCreate+0x28>
  103876:	2080      	movs	r0, #128	; 0x80
  103878:	f001 fa44 	bl	104d04 <sysThreadError>
  10387c:	2300      	movs	r3, #0
  10387e:	e017      	b.n	1038b0 <svcMessageCreate+0x58>
  103880:	9b01      	ldr	r3, [sp, #4]
  103882:	685b      	ldr	r3, [r3, #4]
  103884:	781b      	ldrb	r3, [r3, #0]
  103886:	2b00      	cmp	r3, #0
  103888:	d004      	beq.n	103894 <svcMessageCreate+0x3c>
  10388a:	2080      	movs	r0, #128	; 0x80
  10388c:	f001 fa3a 	bl	104d04 <sysThreadError>
  103890:	2300      	movs	r3, #0
  103892:	e00d      	b.n	1038b0 <svcMessageCreate+0x58>
  103894:	9b01      	ldr	r3, [sp, #4]
  103896:	685a      	ldr	r2, [r3, #4]
  103898:	9b01      	ldr	r3, [sp, #4]
  10389a:	681b      	ldr	r3, [r3, #0]
  10389c:	3304      	adds	r3, #4
  10389e:	b29b      	uxth	r3, r3
  1038a0:	009b      	lsls	r3, r3, #2
  1038a2:	b29b      	uxth	r3, r3
  1038a4:	4619      	mov	r1, r3
  1038a6:	4610      	mov	r0, r2
  1038a8:	f000 fb74 	bl	103f94 <rt_mbx_init>
  1038ac:	9b01      	ldr	r3, [sp, #4]
  1038ae:	685b      	ldr	r3, [r3, #4]
  1038b0:	4618      	mov	r0, r3
  1038b2:	b003      	add	sp, #12
  1038b4:	f85d fb04 	ldr.w	pc, [sp], #4

001038b8 <svcMessageGet>:
  1038b8:	e92d 47f0 	stmdb	sp!, {r4, r5, r6, r7, r8, r9, r10, lr}
  1038bc:	b086      	sub	sp, #24
  1038be:	9001      	str	r0, [sp, #4]
  1038c0:	9100      	str	r1, [sp, #0]
  1038c2:	9b01      	ldr	r3, [sp, #4]
  1038c4:	2b00      	cmp	r3, #0
  1038c6:	d10c      	bne.n	1038e2 <svcMessageGet+0x2a>
  1038c8:	2380      	movs	r3, #128	; 0x80
  1038ca:	9302      	str	r3, [sp, #8]
  1038cc:	9a02      	ldr	r2, [sp, #8]
  1038ce:	2300      	movs	r3, #0
  1038d0:	2400      	movs	r4, #0
  1038d2:	2500      	movs	r5, #0
  1038d4:	2600      	movs	r6, #0
  1038d6:	4613      	mov	r3, r2
  1038d8:	461f      	mov	r7, r3
  1038da:	46a0      	mov	r8, r4
  1038dc:	46a9      	mov	r9, r5
  1038de:	46b2      	mov	r10, r6
  1038e0:	e041      	b.n	103966 <svcMessageGet+0xae>
  1038e2:	9b01      	ldr	r3, [sp, #4]
  1038e4:	781b      	ldrb	r3, [r3, #0]
  1038e6:	2b01      	cmp	r3, #1
  1038e8:	d00c      	beq.n	103904 <svcMessageGet+0x4c>
  1038ea:	2380      	movs	r3, #128	; 0x80
  1038ec:	9302      	str	r3, [sp, #8]
  1038ee:	9a02      	ldr	r2, [sp, #8]
  1038f0:	2300      	movs	r3, #0
  1038f2:	2400      	movs	r4, #0
  1038f4:	2500      	movs	r5, #0
  1038f6:	2600      	movs	r6, #0
  1038f8:	4613      	mov	r3, r2
  1038fa:	461f      	mov	r7, r3
  1038fc:	46a0      	mov	r8, r4
  1038fe:	46a9      	mov	r9, r5
  103900:	46b2      	mov	r10, r6
  103902:	e030      	b.n	103966 <svcMessageGet+0xae>
  103904:	9800      	ldr	r0, [sp, #0]
  103906:	f7ff fbb3 	bl	103070 <rt_ms2tick>
  10390a:	4603      	mov	r3, r0
  10390c:	b29a      	uxth	r2, r3
  10390e:	ab02      	add	r3, sp, #8
  103910:	3304      	adds	r3, #4
  103912:	4619      	mov	r1, r3
  103914:	9801      	ldr	r0, [sp, #4]
  103916:	f000 fb63 	bl	103fe0 <rt_mbx_wait>
  10391a:	9005      	str	r0, [sp, #20]
  10391c:	9b05      	ldr	r3, [sp, #20]
  10391e:	2b01      	cmp	r3, #1
  103920:	d113      	bne.n	10394a <svcMessageGet+0x92>
  103922:	9b00      	ldr	r3, [sp, #0]
  103924:	2b00      	cmp	r3, #0
  103926:	d001      	beq.n	10392c <svcMessageGet+0x74>
  103928:	2340      	movs	r3, #64	; 0x40
  10392a:	e000      	b.n	10392e <svcMessageGet+0x76>
  10392c:	2300      	movs	r3, #0
  10392e:	9302      	str	r3, [sp, #8]
  103930:	9902      	ldr	r1, [sp, #8]
  103932:	9a03      	ldr	r2, [sp, #12]
  103934:	2300      	movs	r3, #0
  103936:	2400      	movs	r4, #0
  103938:	2500      	movs	r5, #0
  10393a:	2600      	movs	r6, #0
  10393c:	460b      	mov	r3, r1
  10393e:	4614      	mov	r4, r2
  103940:	461f      	mov	r7, r3
  103942:	46a0      	mov	r8, r4
  103944:	46a9      	mov	r9, r5
  103946:	46b2      	mov	r10, r6
  103948:	e00d      	b.n	103966 <svcMessageGet+0xae>
  10394a:	2310      	movs	r3, #16
  10394c:	9302      	str	r3, [sp, #8]
  10394e:	9902      	ldr	r1, [sp, #8]
  103950:	9a03      	ldr	r2, [sp, #12]
  103952:	2300      	movs	r3, #0
  103954:	2400      	movs	r4, #0
  103956:	2500      	movs	r5, #0
  103958:	2600      	movs	r6, #0
  10395a:	460b      	mov	r3, r1
  10395c:	4614      	mov	r4, r2
  10395e:	461f      	mov	r7, r3
  103960:	46a0      	mov	r8, r4
  103962:	46a9      	mov	r9, r5
  103964:	46b2      	mov	r10, r6
  103966:	463b      	mov	r3, r7
  103968:	4644      	mov	r4, r8
  10396a:	464d      	mov	r5, r9
  10396c:	4656      	mov	r6, r10
  10396e:	4618      	mov	r0, r3
  103970:	4621      	mov	r1, r4
  103972:	462a      	mov	r2, r5
  103974:	4633      	mov	r3, r6
  103976:	b006      	add	sp, #24
  103978:	e8bd 87f0 	ldmia.w	sp!, {r4, r5, r6, r7, r8, r9, r10, pc}

0010397c <isrMessagePut>:
  10397c:	b500      	push	{lr}
  10397e:	b085      	sub	sp, #20
  103980:	9003      	str	r0, [sp, #12]
  103982:	9102      	str	r1, [sp, #8]
  103984:	9201      	str	r2, [sp, #4]
  103986:	9b03      	ldr	r3, [sp, #12]
  103988:	2b00      	cmp	r3, #0
  10398a:	d002      	beq.n	103992 <isrMessagePut+0x16>
  10398c:	9b01      	ldr	r3, [sp, #4]
  10398e:	2b00      	cmp	r3, #0
  103990:	d001      	beq.n	103996 <isrMessagePut+0x1a>
  103992:	2380      	movs	r3, #128	; 0x80
  103994:	e013      	b.n	1039be <isrMessagePut+0x42>
  103996:	9b03      	ldr	r3, [sp, #12]
  103998:	781b      	ldrb	r3, [r3, #0]
  10399a:	2b01      	cmp	r3, #1
  10399c:	d001      	beq.n	1039a2 <isrMessagePut+0x26>
  10399e:	2380      	movs	r3, #128	; 0x80
  1039a0:	e00d      	b.n	1039be <isrMessagePut+0x42>
  1039a2:	9803      	ldr	r0, [sp, #12]
  1039a4:	f000 fbaa 	bl	1040fc <rt_mbx_check>
  1039a8:	4603      	mov	r3, r0
  1039aa:	2b00      	cmp	r3, #0
  1039ac:	d101      	bne.n	1039b2 <isrMessagePut+0x36>
  1039ae:	2381      	movs	r3, #129	; 0x81
  1039b0:	e005      	b.n	1039be <isrMessagePut+0x42>
  1039b2:	9b02      	ldr	r3, [sp, #8]
  1039b4:	4619      	mov	r1, r3
  1039b6:	9803      	ldr	r0, [sp, #12]
  1039b8:	f000 fbae 	bl	104118 <isr_mbx_send>
  1039bc:	2300      	movs	r3, #0
  1039be:	4618      	mov	r0, r3
  1039c0:	b005      	add	sp, #20
  1039c2:	f85d fb04 	ldr.w	pc, [sp], #4
  1039c6:	bf00      	nop

001039c8 <isrMessageGet>:
  1039c8:	b510      	push	{r4, lr}
  1039ca:	b088      	sub	sp, #32
  1039cc:	9003      	str	r0, [sp, #12]
  1039ce:	9102      	str	r1, [sp, #8]
  1039d0:	9201      	str	r2, [sp, #4]
  1039d2:	9b02      	ldr	r3, [sp, #8]
  1039d4:	2b00      	cmp	r3, #0
  1039d6:	d002      	beq.n	1039de <isrMessageGet+0x16>
  1039d8:	9b01      	ldr	r3, [sp, #4]
  1039da:	2b00      	cmp	r3, #0
  1039dc:	d009      	beq.n	1039f2 <isrMessageGet+0x2a>
  1039de:	2380      	movs	r3, #128	; 0x80
  1039e0:	9304      	str	r3, [sp, #16]
  1039e2:	9b03      	ldr	r3, [sp, #12]
  1039e4:	461c      	mov	r4, r3
  1039e6:	ab04      	add	r3, sp, #16
  1039e8:	e893 0007 	ldmia.w	r3, {r0, r1, r2}
  1039ec:	e884 0007 	stmia.w	r4, {r0, r1, r2}
  1039f0:	e02a      	b.n	103a48 <isrMessageGet+0x80>
  1039f2:	9b02      	ldr	r3, [sp, #8]
  1039f4:	781b      	ldrb	r3, [r3, #0]
  1039f6:	2b01      	cmp	r3, #1
  1039f8:	d009      	beq.n	103a0e <isrMessageGet+0x46>
  1039fa:	2380      	movs	r3, #128	; 0x80
  1039fc:	9304      	str	r3, [sp, #16]
  1039fe:	9b03      	ldr	r3, [sp, #12]
  103a00:	461c      	mov	r4, r3
  103a02:	ab04      	add	r3, sp, #16
  103a04:	e893 0007 	ldmia.w	r3, {r0, r1, r2}
  103a08:	e884 0007 	stmia.w	r4, {r0, r1, r2}
  103a0c:	e01c      	b.n	103a48 <isrMessageGet+0x80>
  103a0e:	ab04      	add	r3, sp, #16
  103a10:	3304      	adds	r3, #4
  103a12:	4619      	mov	r1, r3
  103a14:	9802      	ldr	r0, [sp, #8]
  103a16:	f000 fb91 	bl	10413c <isr_mbx_receive>
  103a1a:	9007      	str	r0, [sp, #28]
  103a1c:	9b07      	ldr	r3, [sp, #28]
  103a1e:	2b04      	cmp	r3, #4
  103a20:	d009      	beq.n	103a36 <isrMessageGet+0x6e>
  103a22:	2300      	movs	r3, #0
  103a24:	9304      	str	r3, [sp, #16]
  103a26:	9b03      	ldr	r3, [sp, #12]
  103a28:	461c      	mov	r4, r3
  103a2a:	ab04      	add	r3, sp, #16
  103a2c:	e893 0007 	ldmia.w	r3, {r0, r1, r2}
  103a30:	e884 0007 	stmia.w	r4, {r0, r1, r2}
  103a34:	e008      	b.n	103a48 <isrMessageGet+0x80>
  103a36:	2310      	movs	r3, #16
  103a38:	9304      	str	r3, [sp, #16]
  103a3a:	9b03      	ldr	r3, [sp, #12]
  103a3c:	461c      	mov	r4, r3
  103a3e:	ab04      	add	r3, sp, #16
  103a40:	e893 0007 	ldmia.w	r3, {r0, r1, r2}
  103a44:	e884 0007 	stmia.w	r4, {r0, r1, r2}
  103a48:	9803      	ldr	r0, [sp, #12]
  103a4a:	b008      	add	sp, #32
  103a4c:	bd10      	pop	{r4, pc}
  103a4e:	bf00      	nop

00103a50 <osMessageGet>:
  103a50:	b500      	push	{lr}
  103a52:	b089      	sub	sp, #36	; 0x24
  103a54:	9003      	str	r0, [sp, #12]
  103a56:	9102      	str	r1, [sp, #8]
  103a58:	9201      	str	r2, [sp, #4]
  103a5a:	f3ef 8105 	mrs	r1, IPSR
  103a5e:	9106      	str	r1, [sp, #24]
  103a60:	9906      	ldr	r1, [sp, #24]
  103a62:	2900      	cmp	r1, #0
  103a64:	d006      	beq.n	103a74 <osMessageGet+0x24>
  103a66:	9b03      	ldr	r3, [sp, #12]
  103a68:	9a01      	ldr	r2, [sp, #4]
  103a6a:	9902      	ldr	r1, [sp, #8]
  103a6c:	4618      	mov	r0, r3
  103a6e:	f7ff ffab 	bl	1039c8 <isrMessageGet>
  103a72:	e013      	b.n	103a9c <osMessageGet+0x4c>
  103a74:	9902      	ldr	r1, [sp, #8]
  103a76:	9107      	str	r1, [sp, #28]
  103a78:	9901      	ldr	r1, [sp, #4]
  103a7a:	9105      	str	r1, [sp, #20]
  103a7c:	9807      	ldr	r0, [sp, #28]
  103a7e:	9905      	ldr	r1, [sp, #20]
  103a80:	f8df c020 	ldr.w	r12, [pc, #32]	; 103aa4 <osMessageGet+0x54>
  103a84:	df00      	svc	0
  103a86:	4603      	mov	r3, r0
  103a88:	4618      	mov	r0, r3
  103a8a:	4613      	mov	r3, r2
  103a8c:	461a      	mov	r2, r3
  103a8e:	9b03      	ldr	r3, [sp, #12]
  103a90:	6018      	str	r0, [r3, #0]
  103a92:	9b03      	ldr	r3, [sp, #12]
  103a94:	6059      	str	r1, [r3, #4]
  103a96:	9b03      	ldr	r3, [sp, #12]
  103a98:	609a      	str	r2, [r3, #8]
  103a9a:	bf00      	nop
  103a9c:	9803      	ldr	r0, [sp, #12]
  103a9e:	b009      	add	sp, #36	; 0x24
  103aa0:	f85d fb04 	ldr.w	pc, [sp], #4
  103aa4:	001038b9 	.word	0x001038b9

00103aa8 <rt_evt_psh>:
  103aa8:	b500      	push	{lr}
  103aaa:	b085      	sub	sp, #20
  103aac:	9001      	str	r0, [sp, #4]
  103aae:	460b      	mov	r3, r1
  103ab0:	f8ad 3002 	strh.w	r3, [sp, #2]
  103ab4:	9b01      	ldr	r3, [sp, #4]
  103ab6:	8b1a      	ldrh	r2, [r3, #24]
  103ab8:	f8bd 3002 	ldrh.w	r3, [sp, #2]
  103abc:	4313      	orrs	r3, r2
  103abe:	b29a      	uxth	r2, r3
  103ac0:	9b01      	ldr	r3, [sp, #4]
  103ac2:	831a      	strh	r2, [r3, #24]
  103ac4:	9b01      	ldr	r3, [sp, #4]
  103ac6:	8b5b      	ldrh	r3, [r3, #26]
  103ac8:	f8ad 300e 	strh.w	r3, [sp, #14]
  103acc:	9b01      	ldr	r3, [sp, #4]
  103ace:	785b      	ldrb	r3, [r3, #1]
  103ad0:	2b06      	cmp	r3, #6
  103ad2:	d109      	bne.n	103ae8 <rt_evt_psh+0x40>
  103ad4:	9b01      	ldr	r3, [sp, #4]
  103ad6:	8b1a      	ldrh	r2, [r3, #24]
  103ad8:	f8bd 300e 	ldrh.w	r3, [sp, #14]
  103adc:	4013      	ands	r3, r2
  103ade:	b29b      	uxth	r3, r3
  103ae0:	f8bd 200e 	ldrh.w	r2, [sp, #14]
  103ae4:	429a      	cmp	r2, r3
  103ae6:	d014      	beq.n	103b12 <rt_evt_psh+0x6a>
  103ae8:	9b01      	ldr	r3, [sp, #4]
  103aea:	785b      	ldrb	r3, [r3, #1]
  103aec:	2b05      	cmp	r3, #5
  103aee:	d12e      	bne.n	103b4e <rt_evt_psh+0xa6>
  103af0:	9b01      	ldr	r3, [sp, #4]
  103af2:	8b1a      	ldrh	r2, [r3, #24]
  103af4:	f8bd 300e 	ldrh.w	r3, [sp, #14]
  103af8:	4013      	ands	r3, r2
  103afa:	b29b      	uxth	r3, r3
  103afc:	2b00      	cmp	r3, #0
  103afe:	d026      	beq.n	103b4e <rt_evt_psh+0xa6>
  103b00:	9b01      	ldr	r3, [sp, #4]
  103b02:	8b5a      	ldrh	r2, [r3, #26]
  103b04:	9b01      	ldr	r3, [sp, #4]
  103b06:	8b1b      	ldrh	r3, [r3, #24]
  103b08:	4013      	ands	r3, r2
  103b0a:	b29a      	uxth	r2, r3
  103b0c:	9b01      	ldr	r3, [sp, #4]
  103b0e:	835a      	strh	r2, [r3, #26]
  103b10:	e000      	b.n	103b14 <rt_evt_psh+0x6c>
  103b12:	bf00      	nop
  103b14:	9b01      	ldr	r3, [sp, #4]
  103b16:	8b1b      	ldrh	r3, [r3, #24]
  103b18:	b29a      	uxth	r2, r3
  103b1a:	f8bd 300e 	ldrh.w	r3, [sp, #14]
  103b1e:	43db      	mvns	r3, r3
  103b20:	b29b      	uxth	r3, r3
  103b22:	4013      	ands	r3, r2
  103b24:	b29b      	uxth	r3, r3
  103b26:	b29a      	uxth	r2, r3
  103b28:	9b01      	ldr	r3, [sp, #4]
  103b2a:	831a      	strh	r2, [r3, #24]
  103b2c:	9801      	ldr	r0, [sp, #4]
  103b2e:	f000 f9db 	bl	103ee8 <rt_rmv_dly>
  103b32:	9b01      	ldr	r3, [sp, #4]
  103b34:	2201      	movs	r2, #1
  103b36:	705a      	strb	r2, [r3, #1]
  103b38:	9b01      	ldr	r3, [sp, #4]
  103b3a:	8b5b      	ldrh	r3, [r3, #26]
  103b3c:	461a      	mov	r2, r3
  103b3e:	2108      	movs	r1, #8
  103b40:	9801      	ldr	r0, [sp, #4]
  103b42:	f001 fa13 	bl	104f6c <rt_ret_val2>
  103b46:	9901      	ldr	r1, [sp, #4]
  103b48:	4803      	ldr	r0, [pc, #12]	; (103b58 <rt_evt_psh+0xb0>)
  103b4a:	f000 f831 	bl	103bb0 <rt_put_prio>
  103b4e:	bf00      	nop
  103b50:	b005      	add	sp, #20
  103b52:	f85d fb04 	ldr.w	pc, [sp], #4
  103b56:	bf00      	nop
  103b58:	3fff484c 	.word	0x3fff484c

00103b5c <rt_inc_qi>:
  103b5c:	b088      	sub	sp, #32
  103b5e:	9003      	str	r0, [sp, #12]
  103b60:	9102      	str	r1, [sp, #8]
  103b62:	9201      	str	r2, [sp, #4]
  103b64:	f3ef 8310 	mrs	r3, PRIMASK
  103b68:	9305      	str	r3, [sp, #20]
  103b6a:	b672      	cpsid	i
  103b6c:	9b02      	ldr	r3, [sp, #8]
  103b6e:	781b      	ldrb	r3, [r3, #0]
  103b70:	9307      	str	r3, [sp, #28]
  103b72:	9a07      	ldr	r2, [sp, #28]
  103b74:	9b03      	ldr	r3, [sp, #12]
  103b76:	429a      	cmp	r2, r3
  103b78:	d215      	bcs.n	103ba6 <rt_inc_qi+0x4a>
  103b7a:	9b07      	ldr	r3, [sp, #28]
  103b7c:	b2db      	uxtb	r3, r3
  103b7e:	3301      	adds	r3, #1
  103b80:	b2da      	uxtb	r2, r3
  103b82:	9b02      	ldr	r3, [sp, #8]
  103b84:	701a      	strb	r2, [r3, #0]
  103b86:	9b01      	ldr	r3, [sp, #4]
  103b88:	781b      	ldrb	r3, [r3, #0]
  103b8a:	9307      	str	r3, [sp, #28]
  103b8c:	9b07      	ldr	r3, [sp, #28]
  103b8e:	3301      	adds	r3, #1
  103b90:	9306      	str	r3, [sp, #24]
  103b92:	9a06      	ldr	r2, [sp, #24]
  103b94:	9b03      	ldr	r3, [sp, #12]
  103b96:	429a      	cmp	r2, r3
  103b98:	d101      	bne.n	103b9e <rt_inc_qi+0x42>
  103b9a:	2300      	movs	r3, #0
  103b9c:	9306      	str	r3, [sp, #24]
  103b9e:	9b06      	ldr	r3, [sp, #24]
  103ba0:	b2da      	uxtb	r2, r3
  103ba2:	9b01      	ldr	r3, [sp, #4]
  103ba4:	701a      	strb	r2, [r3, #0]
  103ba6:	b662      	cpsie	i
  103ba8:	9b07      	ldr	r3, [sp, #28]
  103baa:	4618      	mov	r0, r3
  103bac:	b008      	add	sp, #32
  103bae:	4770      	bx	lr

00103bb0 <rt_put_prio>:
  103bb0:	b086      	sub	sp, #24
  103bb2:	9001      	str	r0, [sp, #4]
  103bb4:	9100      	str	r1, [sp, #0]
  103bb6:	2300      	movs	r3, #0
  103bb8:	9304      	str	r3, [sp, #16]
  103bba:	9b01      	ldr	r3, [sp, #4]
  103bbc:	781b      	ldrb	r3, [r3, #0]
  103bbe:	2b02      	cmp	r3, #2
  103bc0:	d007      	beq.n	103bd2 <rt_put_prio+0x22>
  103bc2:	9b01      	ldr	r3, [sp, #4]
  103bc4:	781b      	ldrb	r3, [r3, #0]
  103bc6:	2b01      	cmp	r3, #1
  103bc8:	d003      	beq.n	103bd2 <rt_put_prio+0x22>
  103bca:	9b01      	ldr	r3, [sp, #4]
  103bcc:	781b      	ldrb	r3, [r3, #0]
  103bce:	2b03      	cmp	r3, #3
  103bd0:	d101      	bne.n	103bd6 <rt_put_prio+0x26>
  103bd2:	2301      	movs	r3, #1
  103bd4:	9304      	str	r3, [sp, #16]
  103bd6:	9b00      	ldr	r3, [sp, #0]
  103bd8:	789b      	ldrb	r3, [r3, #2]
  103bda:	9303      	str	r3, [sp, #12]
  103bdc:	9b01      	ldr	r3, [sp, #4]
  103bde:	685b      	ldr	r3, [r3, #4]
  103be0:	9305      	str	r3, [sp, #20]
  103be2:	e004      	b.n	103bee <rt_put_prio+0x3e>
  103be4:	9b05      	ldr	r3, [sp, #20]
  103be6:	9301      	str	r3, [sp, #4]
  103be8:	9b05      	ldr	r3, [sp, #20]
  103bea:	685b      	ldr	r3, [r3, #4]
  103bec:	9305      	str	r3, [sp, #20]
  103bee:	9b05      	ldr	r3, [sp, #20]
  103bf0:	2b00      	cmp	r3, #0
  103bf2:	d005      	beq.n	103c00 <rt_put_prio+0x50>
  103bf4:	9b05      	ldr	r3, [sp, #20]
  103bf6:	789b      	ldrb	r3, [r3, #2]
  103bf8:	461a      	mov	r2, r3
  103bfa:	9b03      	ldr	r3, [sp, #12]
  103bfc:	429a      	cmp	r2, r3
  103bfe:	d2f1      	bcs.n	103be4 <rt_put_prio+0x34>
  103c00:	9b00      	ldr	r3, [sp, #0]
  103c02:	9a05      	ldr	r2, [sp, #20]
  103c04:	605a      	str	r2, [r3, #4]
  103c06:	9b01      	ldr	r3, [sp, #4]
  103c08:	9a00      	ldr	r2, [sp, #0]
  103c0a:	605a      	str	r2, [r3, #4]
  103c0c:	9b04      	ldr	r3, [sp, #16]
  103c0e:	2b00      	cmp	r3, #0
  103c10:	d009      	beq.n	103c26 <rt_put_prio+0x76>
  103c12:	9b05      	ldr	r3, [sp, #20]
  103c14:	2b00      	cmp	r3, #0
  103c16:	d002      	beq.n	103c1e <rt_put_prio+0x6e>
  103c18:	9b05      	ldr	r3, [sp, #20]
  103c1a:	9a00      	ldr	r2, [sp, #0]
  103c1c:	609a      	str	r2, [r3, #8]
  103c1e:	9b00      	ldr	r3, [sp, #0]
  103c20:	9a01      	ldr	r2, [sp, #4]
  103c22:	609a      	str	r2, [r3, #8]
  103c24:	e002      	b.n	103c2c <rt_put_prio+0x7c>
  103c26:	9b00      	ldr	r3, [sp, #0]
  103c28:	2200      	movs	r2, #0
  103c2a:	609a      	str	r2, [r3, #8]
  103c2c:	bf00      	nop
  103c2e:	b006      	add	sp, #24
  103c30:	4770      	bx	lr
  103c32:	bf00      	nop

00103c34 <rt_get_first>:
  103c34:	b084      	sub	sp, #16
  103c36:	9001      	str	r0, [sp, #4]
  103c38:	9b01      	ldr	r3, [sp, #4]
  103c3a:	685b      	ldr	r3, [r3, #4]
  103c3c:	9303      	str	r3, [sp, #12]
  103c3e:	9b03      	ldr	r3, [sp, #12]
  103c40:	685a      	ldr	r2, [r3, #4]
  103c42:	9b01      	ldr	r3, [sp, #4]
  103c44:	605a      	str	r2, [r3, #4]
  103c46:	9b01      	ldr	r3, [sp, #4]
  103c48:	781b      	ldrb	r3, [r3, #0]
  103c4a:	2b02      	cmp	r3, #2
  103c4c:	d007      	beq.n	103c5e <rt_get_first+0x2a>
  103c4e:	9b01      	ldr	r3, [sp, #4]
  103c50:	781b      	ldrb	r3, [r3, #0]
  103c52:	2b01      	cmp	r3, #1
  103c54:	d003      	beq.n	103c5e <rt_get_first+0x2a>
  103c56:	9b01      	ldr	r3, [sp, #4]
  103c58:	781b      	ldrb	r3, [r3, #0]
  103c5a:	2b03      	cmp	r3, #3
  103c5c:	d10e      	bne.n	103c7c <rt_get_first+0x48>
  103c5e:	9b03      	ldr	r3, [sp, #12]
  103c60:	685b      	ldr	r3, [r3, #4]
  103c62:	2b00      	cmp	r3, #0
  103c64:	d006      	beq.n	103c74 <rt_get_first+0x40>
  103c66:	9b03      	ldr	r3, [sp, #12]
  103c68:	685b      	ldr	r3, [r3, #4]
  103c6a:	9a01      	ldr	r2, [sp, #4]
  103c6c:	609a      	str	r2, [r3, #8]
  103c6e:	9b03      	ldr	r3, [sp, #12]
  103c70:	2200      	movs	r2, #0
  103c72:	605a      	str	r2, [r3, #4]
  103c74:	9b03      	ldr	r3, [sp, #12]
  103c76:	2200      	movs	r2, #0
  103c78:	609a      	str	r2, [r3, #8]
  103c7a:	e002      	b.n	103c82 <rt_get_first+0x4e>
  103c7c:	9b03      	ldr	r3, [sp, #12]
  103c7e:	2200      	movs	r2, #0
  103c80:	605a      	str	r2, [r3, #4]
  103c82:	9b03      	ldr	r3, [sp, #12]
  103c84:	4618      	mov	r0, r3
  103c86:	b004      	add	sp, #16
  103c88:	4770      	bx	lr
  103c8a:	bf00      	nop

00103c8c <rt_put_rdy_first>:
  103c8c:	b082      	sub	sp, #8
  103c8e:	9001      	str	r0, [sp, #4]
  103c90:	4b06      	ldr	r3, [pc, #24]	; (103cac <rt_put_rdy_first+0x20>)
  103c92:	685a      	ldr	r2, [r3, #4]
  103c94:	9b01      	ldr	r3, [sp, #4]
  103c96:	605a      	str	r2, [r3, #4]
  103c98:	9b01      	ldr	r3, [sp, #4]
  103c9a:	2200      	movs	r2, #0
  103c9c:	609a      	str	r2, [r3, #8]
  103c9e:	4a03      	ldr	r2, [pc, #12]	; (103cac <rt_put_rdy_first+0x20>)
  103ca0:	9b01      	ldr	r3, [sp, #4]
  103ca2:	6053      	str	r3, [r2, #4]
  103ca4:	bf00      	nop
  103ca6:	b002      	add	sp, #8
  103ca8:	4770      	bx	lr
  103caa:	bf00      	nop
  103cac:	3fff484c 	.word	0x3fff484c

00103cb0 <rt_resort_prio>:
  103cb0:	b500      	push	{lr}
  103cb2:	b085      	sub	sp, #20
  103cb4:	9001      	str	r0, [sp, #4]
  103cb6:	9b01      	ldr	r3, [sp, #4]
  103cb8:	689b      	ldr	r3, [r3, #8]
  103cba:	2b00      	cmp	r3, #0
  103cbc:	d106      	bne.n	103ccc <rt_resort_prio+0x1c>
  103cbe:	9b01      	ldr	r3, [sp, #4]
  103cc0:	785b      	ldrb	r3, [r3, #1]
  103cc2:	2b01      	cmp	r3, #1
  103cc4:	d114      	bne.n	103cf0 <rt_resort_prio+0x40>
  103cc6:	4b0c      	ldr	r3, [pc, #48]	; (103cf8 <rt_resort_prio+0x48>)
  103cc8:	9303      	str	r3, [sp, #12]
  103cca:	e00a      	b.n	103ce2 <rt_resort_prio+0x32>
  103ccc:	9b01      	ldr	r3, [sp, #4]
  103cce:	689b      	ldr	r3, [r3, #8]
  103cd0:	9303      	str	r3, [sp, #12]
  103cd2:	e002      	b.n	103cda <rt_resort_prio+0x2a>
  103cd4:	9b03      	ldr	r3, [sp, #12]
  103cd6:	689b      	ldr	r3, [r3, #8]
  103cd8:	9303      	str	r3, [sp, #12]
  103cda:	9b03      	ldr	r3, [sp, #12]
  103cdc:	781b      	ldrb	r3, [r3, #0]
  103cde:	2b00      	cmp	r3, #0
  103ce0:	d0f8      	beq.n	103cd4 <rt_resort_prio+0x24>
  103ce2:	9801      	ldr	r0, [sp, #4]
  103ce4:	f000 f8d2 	bl	103e8c <rt_rmv_list>
  103ce8:	9901      	ldr	r1, [sp, #4]
  103cea:	9803      	ldr	r0, [sp, #12]
  103cec:	f7ff ff60 	bl	103bb0 <rt_put_prio>
  103cf0:	bf00      	nop
  103cf2:	b005      	add	sp, #20
  103cf4:	f85d fb04 	ldr.w	pc, [sp], #4
  103cf8:	3fff484c 	.word	0x3fff484c

00103cfc <rt_put_dly>:
  103cfc:	b086      	sub	sp, #24
  103cfe:	9001      	str	r0, [sp, #4]
  103d00:	460b      	mov	r3, r1
  103d02:	f8ad 3002 	strh.w	r3, [sp, #2]
  103d06:	f8bd 3002 	ldrh.w	r3, [sp, #2]
  103d0a:	9303      	str	r3, [sp, #12]
  103d0c:	4b2b      	ldr	r3, [pc, #172]	; (103dbc <rt_put_dly+0xc0>)
  103d0e:	9305      	str	r3, [sp, #20]
  103d10:	9b05      	ldr	r3, [sp, #20]
  103d12:	68db      	ldr	r3, [r3, #12]
  103d14:	2b00      	cmp	r3, #0
  103d16:	d102      	bne.n	103d1e <rt_put_dly+0x22>
  103d18:	2300      	movs	r3, #0
  103d1a:	9304      	str	r3, [sp, #16]
  103d1c:	e007      	b.n	103d2e <rt_put_dly+0x32>
  103d1e:	4b27      	ldr	r3, [pc, #156]	; (103dbc <rt_put_dly+0xc0>)
  103d20:	8a9b      	ldrh	r3, [r3, #20]
  103d22:	9304      	str	r3, [sp, #16]
  103d24:	e021      	b.n	103d6a <rt_put_dly+0x6e>
  103d26:	9b05      	ldr	r3, [sp, #20]
  103d28:	68db      	ldr	r3, [r3, #12]
  103d2a:	2b00      	cmp	r3, #0
  103d2c:	d114      	bne.n	103d58 <rt_put_dly+0x5c>
  103d2e:	9b01      	ldr	r3, [sp, #4]
  103d30:	2200      	movs	r2, #0
  103d32:	60da      	str	r2, [r3, #12]
  103d34:	9b05      	ldr	r3, [sp, #20]
  103d36:	9a01      	ldr	r2, [sp, #4]
  103d38:	60da      	str	r2, [r3, #12]
  103d3a:	9b01      	ldr	r3, [sp, #4]
  103d3c:	9a05      	ldr	r2, [sp, #20]
  103d3e:	611a      	str	r2, [r3, #16]
  103d40:	9b03      	ldr	r3, [sp, #12]
  103d42:	b29a      	uxth	r2, r3
  103d44:	9b04      	ldr	r3, [sp, #16]
  103d46:	b29b      	uxth	r3, r3
  103d48:	1ad3      	subs	r3, r2, r3
  103d4a:	b29a      	uxth	r2, r3
  103d4c:	9b05      	ldr	r3, [sp, #20]
  103d4e:	829a      	strh	r2, [r3, #20]
  103d50:	9b01      	ldr	r3, [sp, #4]
  103d52:	2200      	movs	r2, #0
  103d54:	829a      	strh	r2, [r3, #20]
  103d56:	e02e      	b.n	103db6 <rt_put_dly+0xba>
  103d58:	9b05      	ldr	r3, [sp, #20]
  103d5a:	68db      	ldr	r3, [r3, #12]
  103d5c:	9305      	str	r3, [sp, #20]
  103d5e:	9b05      	ldr	r3, [sp, #20]
  103d60:	8a9b      	ldrh	r3, [r3, #20]
  103d62:	461a      	mov	r2, r3
  103d64:	9b04      	ldr	r3, [sp, #16]
  103d66:	4413      	add	r3, r2
  103d68:	9304      	str	r3, [sp, #16]
  103d6a:	9a04      	ldr	r2, [sp, #16]
  103d6c:	9b03      	ldr	r3, [sp, #12]
  103d6e:	429a      	cmp	r2, r3
  103d70:	d3d9      	bcc.n	103d26 <rt_put_dly+0x2a>
  103d72:	9b05      	ldr	r3, [sp, #20]
  103d74:	68da      	ldr	r2, [r3, #12]
  103d76:	9b01      	ldr	r3, [sp, #4]
  103d78:	60da      	str	r2, [r3, #12]
  103d7a:	9b05      	ldr	r3, [sp, #20]
  103d7c:	9a01      	ldr	r2, [sp, #4]
  103d7e:	60da      	str	r2, [r3, #12]
  103d80:	9b01      	ldr	r3, [sp, #4]
  103d82:	9a05      	ldr	r2, [sp, #20]
  103d84:	611a      	str	r2, [r3, #16]
  103d86:	9b01      	ldr	r3, [sp, #4]
  103d88:	68db      	ldr	r3, [r3, #12]
  103d8a:	2b00      	cmp	r3, #0
  103d8c:	d003      	beq.n	103d96 <rt_put_dly+0x9a>
  103d8e:	9b01      	ldr	r3, [sp, #4]
  103d90:	68db      	ldr	r3, [r3, #12]
  103d92:	9a01      	ldr	r2, [sp, #4]
  103d94:	611a      	str	r2, [r3, #16]
  103d96:	9b04      	ldr	r3, [sp, #16]
  103d98:	b29a      	uxth	r2, r3
  103d9a:	9b03      	ldr	r3, [sp, #12]
  103d9c:	b29b      	uxth	r3, r3
  103d9e:	1ad3      	subs	r3, r2, r3
  103da0:	b29a      	uxth	r2, r3
  103da2:	9b01      	ldr	r3, [sp, #4]
  103da4:	829a      	strh	r2, [r3, #20]
  103da6:	9b05      	ldr	r3, [sp, #20]
  103da8:	8a9a      	ldrh	r2, [r3, #20]
  103daa:	9b01      	ldr	r3, [sp, #4]
  103dac:	8a9b      	ldrh	r3, [r3, #20]
  103dae:	1ad3      	subs	r3, r2, r3
  103db0:	b29a      	uxth	r2, r3
  103db2:	9b05      	ldr	r3, [sp, #20]
  103db4:	829a      	strh	r2, [r3, #20]
  103db6:	b006      	add	sp, #24
  103db8:	4770      	bx	lr
  103dba:	bf00      	nop
  103dbc:	3fff4864 	.word	0x3fff4864

00103dc0 <rt_dec_dly>:
  103dc0:	b500      	push	{lr}
  103dc2:	b083      	sub	sp, #12
  103dc4:	4b2e      	ldr	r3, [pc, #184]	; (103e80 <rt_dec_dly+0xc0>)
  103dc6:	68db      	ldr	r3, [r3, #12]
  103dc8:	2b00      	cmp	r3, #0
  103dca:	d054      	beq.n	103e76 <rt_dec_dly+0xb6>
  103dcc:	4b2c      	ldr	r3, [pc, #176]	; (103e80 <rt_dec_dly+0xc0>)
  103dce:	8a9b      	ldrh	r3, [r3, #20]
  103dd0:	3b01      	subs	r3, #1
  103dd2:	b29a      	uxth	r2, r3
  103dd4:	4b2a      	ldr	r3, [pc, #168]	; (103e80 <rt_dec_dly+0xc0>)
  103dd6:	829a      	strh	r2, [r3, #20]
  103dd8:	e044      	b.n	103e64 <rt_dec_dly+0xa4>
  103dda:	4b29      	ldr	r3, [pc, #164]	; (103e80 <rt_dec_dly+0xc0>)
  103ddc:	68db      	ldr	r3, [r3, #12]
  103dde:	9301      	str	r3, [sp, #4]
  103de0:	9b01      	ldr	r3, [sp, #4]
  103de2:	689b      	ldr	r3, [r3, #8]
  103de4:	2b00      	cmp	r3, #0
  103de6:	d013      	beq.n	103e10 <rt_dec_dly+0x50>
  103de8:	9b01      	ldr	r3, [sp, #4]
  103dea:	689b      	ldr	r3, [r3, #8]
  103dec:	9a01      	ldr	r2, [sp, #4]
  103dee:	6852      	ldr	r2, [r2, #4]
  103df0:	605a      	str	r2, [r3, #4]
  103df2:	9b01      	ldr	r3, [sp, #4]
  103df4:	685b      	ldr	r3, [r3, #4]
  103df6:	2b00      	cmp	r3, #0
  103df8:	d007      	beq.n	103e0a <rt_dec_dly+0x4a>
  103dfa:	9b01      	ldr	r3, [sp, #4]
  103dfc:	685b      	ldr	r3, [r3, #4]
  103dfe:	9a01      	ldr	r2, [sp, #4]
  103e00:	6892      	ldr	r2, [r2, #8]
  103e02:	609a      	str	r2, [r3, #8]
  103e04:	9b01      	ldr	r3, [sp, #4]
  103e06:	2200      	movs	r2, #0
  103e08:	605a      	str	r2, [r3, #4]
  103e0a:	9b01      	ldr	r3, [sp, #4]
  103e0c:	2200      	movs	r2, #0
  103e0e:	609a      	str	r2, [r3, #8]
  103e10:	9901      	ldr	r1, [sp, #4]
  103e12:	481c      	ldr	r0, [pc, #112]	; (103e84 <rt_dec_dly+0xc4>)
  103e14:	f7ff fecc 	bl	103bb0 <rt_put_prio>
  103e18:	9b01      	ldr	r3, [sp, #4]
  103e1a:	8a9a      	ldrh	r2, [r3, #20]
  103e1c:	4b18      	ldr	r3, [pc, #96]	; (103e80 <rt_dec_dly+0xc0>)
  103e1e:	829a      	strh	r2, [r3, #20]
  103e20:	9b01      	ldr	r3, [sp, #4]
  103e22:	785b      	ldrb	r3, [r3, #1]
  103e24:	2b04      	cmp	r3, #4
  103e26:	d108      	bne.n	103e3a <rt_dec_dly+0x7a>
  103e28:	9b01      	ldr	r3, [sp, #4]
  103e2a:	8ada      	ldrh	r2, [r3, #22]
  103e2c:	4b16      	ldr	r3, [pc, #88]	; (103e88 <rt_dec_dly+0xc8>)
  103e2e:	681b      	ldr	r3, [r3, #0]
  103e30:	b29b      	uxth	r3, r3
  103e32:	4413      	add	r3, r2
  103e34:	b29a      	uxth	r2, r3
  103e36:	9b01      	ldr	r3, [sp, #4]
  103e38:	829a      	strh	r2, [r3, #20]
  103e3a:	9b01      	ldr	r3, [sp, #4]
  103e3c:	2201      	movs	r2, #1
  103e3e:	705a      	strb	r2, [r3, #1]
  103e40:	9b01      	ldr	r3, [sp, #4]
  103e42:	68db      	ldr	r3, [r3, #12]
  103e44:	4a0e      	ldr	r2, [pc, #56]	; (103e80 <rt_dec_dly+0xc0>)
  103e46:	60d3      	str	r3, [r2, #12]
  103e48:	9b01      	ldr	r3, [sp, #4]
  103e4a:	68db      	ldr	r3, [r3, #12]
  103e4c:	2b00      	cmp	r3, #0
  103e4e:	d006      	beq.n	103e5e <rt_dec_dly+0x9e>
  103e50:	9b01      	ldr	r3, [sp, #4]
  103e52:	68db      	ldr	r3, [r3, #12]
  103e54:	4a0a      	ldr	r2, [pc, #40]	; (103e80 <rt_dec_dly+0xc0>)
  103e56:	611a      	str	r2, [r3, #16]
  103e58:	9b01      	ldr	r3, [sp, #4]
  103e5a:	2200      	movs	r2, #0
  103e5c:	60da      	str	r2, [r3, #12]
  103e5e:	9b01      	ldr	r3, [sp, #4]
  103e60:	2200      	movs	r2, #0
  103e62:	611a      	str	r2, [r3, #16]
  103e64:	4b06      	ldr	r3, [pc, #24]	; (103e80 <rt_dec_dly+0xc0>)
  103e66:	8a9b      	ldrh	r3, [r3, #20]
  103e68:	2b00      	cmp	r3, #0
  103e6a:	d105      	bne.n	103e78 <rt_dec_dly+0xb8>
  103e6c:	4b04      	ldr	r3, [pc, #16]	; (103e80 <rt_dec_dly+0xc0>)
  103e6e:	68db      	ldr	r3, [r3, #12]
  103e70:	2b00      	cmp	r3, #0
  103e72:	d1b2      	bne.n	103dda <rt_dec_dly+0x1a>
  103e74:	e000      	b.n	103e78 <rt_dec_dly+0xb8>
  103e76:	bf00      	nop
  103e78:	b003      	add	sp, #12
  103e7a:	f85d fb04 	ldr.w	pc, [sp], #4
  103e7e:	bf00      	nop
  103e80:	3fff4864 	.word	0x3fff4864
  103e84:	3fff484c 	.word	0x3fff484c
  103e88:	3fff48bc 	.word	0x3fff48bc

00103e8c <rt_rmv_list>:
  103e8c:	b084      	sub	sp, #16
  103e8e:	9001      	str	r0, [sp, #4]
  103e90:	9b01      	ldr	r3, [sp, #4]
  103e92:	689b      	ldr	r3, [r3, #8]
  103e94:	2b00      	cmp	r3, #0
  103e96:	d00e      	beq.n	103eb6 <rt_rmv_list+0x2a>
  103e98:	9b01      	ldr	r3, [sp, #4]
  103e9a:	689b      	ldr	r3, [r3, #8]
  103e9c:	9a01      	ldr	r2, [sp, #4]
  103e9e:	6852      	ldr	r2, [r2, #4]
  103ea0:	605a      	str	r2, [r3, #4]
  103ea2:	9b01      	ldr	r3, [sp, #4]
  103ea4:	685b      	ldr	r3, [r3, #4]
  103ea6:	2b00      	cmp	r3, #0
  103ea8:	d019      	beq.n	103ede <rt_rmv_list+0x52>
  103eaa:	9b01      	ldr	r3, [sp, #4]
  103eac:	685b      	ldr	r3, [r3, #4]
  103eae:	9a01      	ldr	r2, [sp, #4]
  103eb0:	6892      	ldr	r2, [r2, #8]
  103eb2:	609a      	str	r2, [r3, #8]
  103eb4:	e013      	b.n	103ede <rt_rmv_list+0x52>
  103eb6:	4b0b      	ldr	r3, [pc, #44]	; (103ee4 <rt_rmv_list+0x58>)
  103eb8:	9303      	str	r3, [sp, #12]
  103eba:	e00c      	b.n	103ed6 <rt_rmv_list+0x4a>
  103ebc:	9b03      	ldr	r3, [sp, #12]
  103ebe:	685a      	ldr	r2, [r3, #4]
  103ec0:	9b01      	ldr	r3, [sp, #4]
  103ec2:	429a      	cmp	r2, r3
  103ec4:	d104      	bne.n	103ed0 <rt_rmv_list+0x44>
  103ec6:	9b01      	ldr	r3, [sp, #4]
  103ec8:	685a      	ldr	r2, [r3, #4]
  103eca:	9b03      	ldr	r3, [sp, #12]
  103ecc:	605a      	str	r2, [r3, #4]
  103ece:	e007      	b.n	103ee0 <rt_rmv_list+0x54>
  103ed0:	9b03      	ldr	r3, [sp, #12]
  103ed2:	685b      	ldr	r3, [r3, #4]
  103ed4:	9303      	str	r3, [sp, #12]
  103ed6:	9b03      	ldr	r3, [sp, #12]
  103ed8:	2b00      	cmp	r3, #0
  103eda:	d1ef      	bne.n	103ebc <rt_rmv_list+0x30>
  103edc:	e000      	b.n	103ee0 <rt_rmv_list+0x54>
  103ede:	bf00      	nop
  103ee0:	b004      	add	sp, #16
  103ee2:	4770      	bx	lr
  103ee4:	3fff484c 	.word	0x3fff484c

00103ee8 <rt_rmv_dly>:
  103ee8:	b084      	sub	sp, #16
  103eea:	9001      	str	r0, [sp, #4]
  103eec:	9b01      	ldr	r3, [sp, #4]
  103eee:	691b      	ldr	r3, [r3, #16]
  103ef0:	9303      	str	r3, [sp, #12]
  103ef2:	9b03      	ldr	r3, [sp, #12]
  103ef4:	2b00      	cmp	r3, #0
  103ef6:	d01d      	beq.n	103f34 <rt_rmv_dly+0x4c>
  103ef8:	9b01      	ldr	r3, [sp, #4]
  103efa:	68da      	ldr	r2, [r3, #12]
  103efc:	9b03      	ldr	r3, [sp, #12]
  103efe:	60da      	str	r2, [r3, #12]
  103f00:	9b01      	ldr	r3, [sp, #4]
  103f02:	68db      	ldr	r3, [r3, #12]
  103f04:	2b00      	cmp	r3, #0
  103f06:	d00f      	beq.n	103f28 <rt_rmv_dly+0x40>
  103f08:	9b03      	ldr	r3, [sp, #12]
  103f0a:	8a9a      	ldrh	r2, [r3, #20]
  103f0c:	9b01      	ldr	r3, [sp, #4]
  103f0e:	8a9b      	ldrh	r3, [r3, #20]
  103f10:	4413      	add	r3, r2
  103f12:	b29a      	uxth	r2, r3
  103f14:	9b03      	ldr	r3, [sp, #12]
  103f16:	829a      	strh	r2, [r3, #20]
  103f18:	9b01      	ldr	r3, [sp, #4]
  103f1a:	68db      	ldr	r3, [r3, #12]
  103f1c:	9a03      	ldr	r2, [sp, #12]
  103f1e:	611a      	str	r2, [r3, #16]
  103f20:	9b01      	ldr	r3, [sp, #4]
  103f22:	2200      	movs	r2, #0
  103f24:	60da      	str	r2, [r3, #12]
  103f26:	e002      	b.n	103f2e <rt_rmv_dly+0x46>
  103f28:	9b03      	ldr	r3, [sp, #12]
  103f2a:	2200      	movs	r2, #0
  103f2c:	829a      	strh	r2, [r3, #20]
  103f2e:	9b01      	ldr	r3, [sp, #4]
  103f30:	2200      	movs	r2, #0
  103f32:	611a      	str	r2, [r3, #16]
  103f34:	bf00      	nop
  103f36:	b004      	add	sp, #16
  103f38:	4770      	bx	lr
  103f3a:	bf00      	nop

00103f3c <rt_psq_enq>:
  103f3c:	b500      	push	{lr}
  103f3e:	b085      	sub	sp, #20
  103f40:	9001      	str	r0, [sp, #4]
  103f42:	9100      	str	r1, [sp, #0]
  103f44:	4b11      	ldr	r3, [pc, #68]	; (103f8c <rt_psq_enq+0x50>)
  103f46:	78db      	ldrb	r3, [r3, #3]
  103f48:	4618      	mov	r0, r3
  103f4a:	4b11      	ldr	r3, [pc, #68]	; (103f90 <rt_psq_enq+0x54>)
  103f4c:	4a0f      	ldr	r2, [pc, #60]	; (103f8c <rt_psq_enq+0x50>)
  103f4e:	4619      	mov	r1, r3
  103f50:	f7ff fe04 	bl	103b5c <rt_inc_qi>
  103f54:	9003      	str	r0, [sp, #12]
  103f56:	4b0d      	ldr	r3, [pc, #52]	; (103f8c <rt_psq_enq+0x50>)
  103f58:	78db      	ldrb	r3, [r3, #3]
  103f5a:	461a      	mov	r2, r3
  103f5c:	9b03      	ldr	r3, [sp, #12]
  103f5e:	429a      	cmp	r2, r3
  103f60:	d90c      	bls.n	103f7c <rt_psq_enq+0x40>
  103f62:	4a0a      	ldr	r2, [pc, #40]	; (103f8c <rt_psq_enq+0x50>)
  103f64:	9b03      	ldr	r3, [sp, #12]
  103f66:	00db      	lsls	r3, r3, #3
  103f68:	4413      	add	r3, r2
  103f6a:	9a01      	ldr	r2, [sp, #4]
  103f6c:	605a      	str	r2, [r3, #4]
  103f6e:	4a07      	ldr	r2, [pc, #28]	; (103f8c <rt_psq_enq+0x50>)
  103f70:	9b03      	ldr	r3, [sp, #12]
  103f72:	00db      	lsls	r3, r3, #3
  103f74:	4413      	add	r3, r2
  103f76:	9a00      	ldr	r2, [sp, #0]
  103f78:	609a      	str	r2, [r3, #8]
  103f7a:	e002      	b.n	103f82 <rt_psq_enq+0x46>
  103f7c:	2002      	movs	r0, #2
  103f7e:	f000 feb7 	bl	104cf0 <os_error>
  103f82:	bf00      	nop
  103f84:	b005      	add	sp, #20
  103f86:	f85d fb04 	ldr.w	pc, [sp], #4
  103f8a:	bf00      	nop
  103f8c:	3fff48c0 	.word	0x3fff48c0
  103f90:	3fff48c2 	.word	0x3fff48c2

00103f94 <rt_mbx_init>:
  103f94:	b084      	sub	sp, #16
  103f96:	9001      	str	r0, [sp, #4]
  103f98:	460b      	mov	r3, r1
  103f9a:	f8ad 3002 	strh.w	r3, [sp, #2]
  103f9e:	9b01      	ldr	r3, [sp, #4]
  103fa0:	9303      	str	r3, [sp, #12]
  103fa2:	9b03      	ldr	r3, [sp, #12]
  103fa4:	2201      	movs	r2, #1
  103fa6:	701a      	strb	r2, [r3, #0]
  103fa8:	9b03      	ldr	r3, [sp, #12]
  103faa:	2200      	movs	r2, #0
  103fac:	705a      	strb	r2, [r3, #1]
  103fae:	9b03      	ldr	r3, [sp, #12]
  103fb0:	2200      	movs	r2, #0
  103fb2:	709a      	strb	r2, [r3, #2]
  103fb4:	9b03      	ldr	r3, [sp, #12]
  103fb6:	2200      	movs	r2, #0
  103fb8:	605a      	str	r2, [r3, #4]
  103fba:	9b03      	ldr	r3, [sp, #12]
  103fbc:	2200      	movs	r2, #0
  103fbe:	811a      	strh	r2, [r3, #8]
  103fc0:	9b03      	ldr	r3, [sp, #12]
  103fc2:	2200      	movs	r2, #0
  103fc4:	815a      	strh	r2, [r3, #10]
  103fc6:	9b03      	ldr	r3, [sp, #12]
  103fc8:	2200      	movs	r2, #0
  103fca:	819a      	strh	r2, [r3, #12]
  103fcc:	f8bd 3002 	ldrh.w	r3, [sp, #2]
  103fd0:	3b10      	subs	r3, #16
  103fd2:	089b      	lsrs	r3, r3, #2
  103fd4:	b29a      	uxth	r2, r3
  103fd6:	9b03      	ldr	r3, [sp, #12]
  103fd8:	81da      	strh	r2, [r3, #14]
  103fda:	bf00      	nop
  103fdc:	b004      	add	sp, #16
  103fde:	4770      	bx	lr

00103fe0 <rt_mbx_wait>:
  103fe0:	b500      	push	{lr}
  103fe2:	b089      	sub	sp, #36	; 0x24
  103fe4:	9003      	str	r0, [sp, #12]
  103fe6:	9102      	str	r1, [sp, #8]
  103fe8:	4613      	mov	r3, r2
  103fea:	f8ad 3006 	strh.w	r3, [sp, #6]
  103fee:	9b03      	ldr	r3, [sp, #12]
  103ff0:	9307      	str	r3, [sp, #28]
  103ff2:	9b07      	ldr	r3, [sp, #28]
  103ff4:	899b      	ldrh	r3, [r3, #12]
  103ff6:	2b00      	cmp	r3, #0
  103ff8:	d053      	beq.n	1040a2 <rt_mbx_wait+0xc2>
  103ffa:	9b07      	ldr	r3, [sp, #28]
  103ffc:	895b      	ldrh	r3, [r3, #10]
  103ffe:	461a      	mov	r2, r3
  104000:	9b07      	ldr	r3, [sp, #28]
  104002:	3204      	adds	r2, #4
  104004:	f853 2022 	ldr.w	r2, [r3, r2, lsl #2]
  104008:	9b02      	ldr	r3, [sp, #8]
  10400a:	601a      	str	r2, [r3, #0]
  10400c:	9b07      	ldr	r3, [sp, #28]
  10400e:	895b      	ldrh	r3, [r3, #10]
  104010:	3301      	adds	r3, #1
  104012:	b29a      	uxth	r2, r3
  104014:	9b07      	ldr	r3, [sp, #28]
  104016:	815a      	strh	r2, [r3, #10]
  104018:	9b07      	ldr	r3, [sp, #28]
  10401a:	895a      	ldrh	r2, [r3, #10]
  10401c:	9b07      	ldr	r3, [sp, #28]
  10401e:	89db      	ldrh	r3, [r3, #14]
  104020:	429a      	cmp	r2, r3
  104022:	d102      	bne.n	10402a <rt_mbx_wait+0x4a>
  104024:	9b07      	ldr	r3, [sp, #28]
  104026:	2200      	movs	r2, #0
  104028:	815a      	strh	r2, [r3, #10]
  10402a:	9b07      	ldr	r3, [sp, #28]
  10402c:	685b      	ldr	r3, [r3, #4]
  10402e:	2b00      	cmp	r3, #0
  104030:	d02a      	beq.n	104088 <rt_mbx_wait+0xa8>
  104032:	9b07      	ldr	r3, [sp, #28]
  104034:	785b      	ldrb	r3, [r3, #1]
  104036:	2b02      	cmp	r3, #2
  104038:	d126      	bne.n	104088 <rt_mbx_wait+0xa8>
  10403a:	9807      	ldr	r0, [sp, #28]
  10403c:	f7ff fdfa 	bl	103c34 <rt_get_first>
  104040:	9006      	str	r0, [sp, #24]
  104042:	2100      	movs	r1, #0
  104044:	9806      	ldr	r0, [sp, #24]
  104046:	f000 ff81 	bl	104f4c <rt_ret_val>
  10404a:	9b07      	ldr	r3, [sp, #28]
  10404c:	891b      	ldrh	r3, [r3, #8]
  10404e:	461a      	mov	r2, r3
  104050:	9b06      	ldr	r3, [sp, #24]
  104052:	69d9      	ldr	r1, [r3, #28]
  104054:	9b07      	ldr	r3, [sp, #28]
  104056:	3204      	adds	r2, #4
  104058:	f843 1022 	str.w	r1, [r3, r2, lsl #2]
  10405c:	9b07      	ldr	r3, [sp, #28]
  10405e:	891b      	ldrh	r3, [r3, #8]
  104060:	3301      	adds	r3, #1
  104062:	b29a      	uxth	r2, r3
  104064:	9b07      	ldr	r3, [sp, #28]
  104066:	811a      	strh	r2, [r3, #8]
  104068:	9b07      	ldr	r3, [sp, #28]
  10406a:	891a      	ldrh	r2, [r3, #8]
  10406c:	9b07      	ldr	r3, [sp, #28]
  10406e:	89db      	ldrh	r3, [r3, #14]
  104070:	429a      	cmp	r2, r3
  104072:	d102      	bne.n	10407a <rt_mbx_wait+0x9a>
  104074:	9b07      	ldr	r3, [sp, #28]
  104076:	2200      	movs	r2, #0
  104078:	811a      	strh	r2, [r3, #8]
  10407a:	9806      	ldr	r0, [sp, #24]
  10407c:	f7ff ff34 	bl	103ee8 <rt_rmv_dly>
  104080:	9806      	ldr	r0, [sp, #24]
  104082:	f000 fc7b 	bl	10497c <rt_dispatch>
  104086:	e00a      	b.n	10409e <rt_mbx_wait+0xbe>
  104088:	f3ef 8310 	mrs	r3, PRIMASK
  10408c:	9305      	str	r3, [sp, #20]
  10408e:	b672      	cpsid	i
  104090:	9b07      	ldr	r3, [sp, #28]
  104092:	899b      	ldrh	r3, [r3, #12]
  104094:	3b01      	subs	r3, #1
  104096:	b29a      	uxth	r2, r3
  104098:	9b07      	ldr	r3, [sp, #28]
  10409a:	819a      	strh	r2, [r3, #12]
  10409c:	b662      	cpsie	i
  10409e:	2300      	movs	r3, #0
  1040a0:	e026      	b.n	1040f0 <rt_mbx_wait+0x110>
  1040a2:	f8bd 3006 	ldrh.w	r3, [sp, #6]
  1040a6:	2b00      	cmp	r3, #0
  1040a8:	d101      	bne.n	1040ae <rt_mbx_wait+0xce>
  1040aa:	2301      	movs	r3, #1
  1040ac:	e020      	b.n	1040f0 <rt_mbx_wait+0x110>
  1040ae:	9b07      	ldr	r3, [sp, #28]
  1040b0:	685b      	ldr	r3, [r3, #4]
  1040b2:	2b00      	cmp	r3, #0
  1040b4:	d006      	beq.n	1040c4 <rt_mbx_wait+0xe4>
  1040b6:	4b10      	ldr	r3, [pc, #64]	; (1040f8 <rt_mbx_wait+0x118>)
  1040b8:	681b      	ldr	r3, [r3, #0]
  1040ba:	4619      	mov	r1, r3
  1040bc:	9807      	ldr	r0, [sp, #28]
  1040be:	f7ff fd77 	bl	103bb0 <rt_put_prio>
  1040c2:	e00e      	b.n	1040e2 <rt_mbx_wait+0x102>
  1040c4:	4b0c      	ldr	r3, [pc, #48]	; (1040f8 <rt_mbx_wait+0x118>)
  1040c6:	681a      	ldr	r2, [r3, #0]
  1040c8:	9b07      	ldr	r3, [sp, #28]
  1040ca:	605a      	str	r2, [r3, #4]
  1040cc:	4b0a      	ldr	r3, [pc, #40]	; (1040f8 <rt_mbx_wait+0x118>)
  1040ce:	681b      	ldr	r3, [r3, #0]
  1040d0:	2200      	movs	r2, #0
  1040d2:	605a      	str	r2, [r3, #4]
  1040d4:	4b08      	ldr	r3, [pc, #32]	; (1040f8 <rt_mbx_wait+0x118>)
  1040d6:	681b      	ldr	r3, [r3, #0]
  1040d8:	9a07      	ldr	r2, [sp, #28]
  1040da:	609a      	str	r2, [r3, #8]
  1040dc:	9b07      	ldr	r3, [sp, #28]
  1040de:	2201      	movs	r2, #1
  1040e0:	705a      	strb	r2, [r3, #1]
  1040e2:	f8bd 3006 	ldrh.w	r3, [sp, #6]
  1040e6:	2108      	movs	r1, #8
  1040e8:	4618      	mov	r0, r3
  1040ea:	f000 fc79 	bl	1049e0 <rt_block>
  1040ee:	2301      	movs	r3, #1
  1040f0:	4618      	mov	r0, r3
  1040f2:	b009      	add	sp, #36	; 0x24
  1040f4:	f85d fb04 	ldr.w	pc, [sp], #4
  1040f8:	3fff4880 	.word	0x3fff4880

001040fc <rt_mbx_check>:
  1040fc:	b084      	sub	sp, #16
  1040fe:	9001      	str	r0, [sp, #4]
  104100:	9b01      	ldr	r3, [sp, #4]
  104102:	9303      	str	r3, [sp, #12]
  104104:	9b03      	ldr	r3, [sp, #12]
  104106:	89db      	ldrh	r3, [r3, #14]
  104108:	461a      	mov	r2, r3
  10410a:	9b03      	ldr	r3, [sp, #12]
  10410c:	899b      	ldrh	r3, [r3, #12]
  10410e:	1ad3      	subs	r3, r2, r3
  104110:	4618      	mov	r0, r3
  104112:	b004      	add	sp, #16
  104114:	4770      	bx	lr
  104116:	bf00      	nop

00104118 <isr_mbx_send>:
  104118:	b500      	push	{lr}
  10411a:	b085      	sub	sp, #20
  10411c:	9001      	str	r0, [sp, #4]
  10411e:	9100      	str	r1, [sp, #0]
  104120:	9b01      	ldr	r3, [sp, #4]
  104122:	9303      	str	r3, [sp, #12]
  104124:	9b00      	ldr	r3, [sp, #0]
  104126:	4619      	mov	r1, r3
  104128:	9803      	ldr	r0, [sp, #12]
  10412a:	f7ff ff07 	bl	103f3c <rt_psq_enq>
  10412e:	f000 fabb 	bl	1046a8 <rt_psh_req>
  104132:	bf00      	nop
  104134:	b005      	add	sp, #20
  104136:	f85d fb04 	ldr.w	pc, [sp], #4
  10413a:	bf00      	nop

0010413c <isr_mbx_receive>:
  10413c:	b500      	push	{lr}
  10413e:	b085      	sub	sp, #20
  104140:	9001      	str	r0, [sp, #4]
  104142:	9100      	str	r1, [sp, #0]
  104144:	9b01      	ldr	r3, [sp, #4]
  104146:	9303      	str	r3, [sp, #12]
  104148:	9b03      	ldr	r3, [sp, #12]
  10414a:	899b      	ldrh	r3, [r3, #12]
  10414c:	2b00      	cmp	r3, #0
  10414e:	d02e      	beq.n	1041ae <isr_mbx_receive+0x72>
  104150:	9b03      	ldr	r3, [sp, #12]
  104152:	895b      	ldrh	r3, [r3, #10]
  104154:	461a      	mov	r2, r3
  104156:	9b03      	ldr	r3, [sp, #12]
  104158:	3204      	adds	r2, #4
  10415a:	f853 2022 	ldr.w	r2, [r3, r2, lsl #2]
  10415e:	9b00      	ldr	r3, [sp, #0]
  104160:	601a      	str	r2, [r3, #0]
  104162:	9b03      	ldr	r3, [sp, #12]
  104164:	785b      	ldrb	r3, [r3, #1]
  104166:	2b02      	cmp	r3, #2
  104168:	d105      	bne.n	104176 <isr_mbx_receive+0x3a>
  10416a:	2100      	movs	r1, #0
  10416c:	9803      	ldr	r0, [sp, #12]
  10416e:	f7ff fee5 	bl	103f3c <rt_psq_enq>
  104172:	f000 fa99 	bl	1046a8 <rt_psh_req>
  104176:	f3ef 8310 	mrs	r3, PRIMASK
  10417a:	9302      	str	r3, [sp, #8]
  10417c:	b672      	cpsid	i
  10417e:	9b03      	ldr	r3, [sp, #12]
  104180:	899b      	ldrh	r3, [r3, #12]
  104182:	3b01      	subs	r3, #1
  104184:	b29a      	uxth	r2, r3
  104186:	9b03      	ldr	r3, [sp, #12]
  104188:	819a      	strh	r2, [r3, #12]
  10418a:	b662      	cpsie	i
  10418c:	9b03      	ldr	r3, [sp, #12]
  10418e:	895b      	ldrh	r3, [r3, #10]
  104190:	3301      	adds	r3, #1
  104192:	b29a      	uxth	r2, r3
  104194:	9b03      	ldr	r3, [sp, #12]
  104196:	815a      	strh	r2, [r3, #10]
  104198:	9b03      	ldr	r3, [sp, #12]
  10419a:	895a      	ldrh	r2, [r3, #10]
  10419c:	9b03      	ldr	r3, [sp, #12]
  10419e:	89db      	ldrh	r3, [r3, #14]
  1041a0:	429a      	cmp	r2, r3
  1041a2:	d102      	bne.n	1041aa <isr_mbx_receive+0x6e>
  1041a4:	9b03      	ldr	r3, [sp, #12]
  1041a6:	2200      	movs	r2, #0
  1041a8:	815a      	strh	r2, [r3, #10]
  1041aa:	2304      	movs	r3, #4
  1041ac:	e000      	b.n	1041b0 <isr_mbx_receive+0x74>
  1041ae:	2300      	movs	r3, #0
  1041b0:	4618      	mov	r0, r3
  1041b2:	b005      	add	sp, #20
  1041b4:	f85d fb04 	ldr.w	pc, [sp], #4

001041b8 <rt_mbx_psh>:
  1041b8:	b500      	push	{lr}
  1041ba:	b087      	sub	sp, #28
  1041bc:	9001      	str	r0, [sp, #4]
  1041be:	9100      	str	r1, [sp, #0]
  1041c0:	9b01      	ldr	r3, [sp, #4]
  1041c2:	685b      	ldr	r3, [r3, #4]
  1041c4:	2b00      	cmp	r3, #0
  1041c6:	d070      	beq.n	1042aa <rt_mbx_psh+0xf2>
  1041c8:	9b01      	ldr	r3, [sp, #4]
  1041ca:	785b      	ldrb	r3, [r3, #1]
  1041cc:	2b02      	cmp	r3, #2
  1041ce:	d020      	beq.n	104212 <rt_mbx_psh+0x5a>
  1041d0:	2b03      	cmp	r3, #3
  1041d2:	d002      	beq.n	1041da <rt_mbx_psh+0x22>
  1041d4:	2b01      	cmp	r3, #1
  1041d6:	d052      	beq.n	10427e <rt_mbx_psh+0xc6>
  1041d8:	e095      	b.n	104306 <rt_mbx_psh+0x14e>
  1041da:	9800      	ldr	r0, [sp, #0]
  1041dc:	f000 f89a 	bl	104314 <rt_alloc_box>
  1041e0:	9005      	str	r0, [sp, #20]
  1041e2:	9b05      	ldr	r3, [sp, #20]
  1041e4:	2b00      	cmp	r3, #0
  1041e6:	f000 808d 	beq.w	104304 <rt_mbx_psh+0x14c>
  1041ea:	9801      	ldr	r0, [sp, #4]
  1041ec:	f7ff fd22 	bl	103c34 <rt_get_first>
  1041f0:	9004      	str	r0, [sp, #16]
  1041f2:	9b05      	ldr	r3, [sp, #20]
  1041f4:	4619      	mov	r1, r3
  1041f6:	9804      	ldr	r0, [sp, #16]
  1041f8:	f000 fea8 	bl	104f4c <rt_ret_val>
  1041fc:	9b04      	ldr	r3, [sp, #16]
  1041fe:	2201      	movs	r2, #1
  104200:	705a      	strb	r2, [r3, #1]
  104202:	9804      	ldr	r0, [sp, #16]
  104204:	f7ff fe70 	bl	103ee8 <rt_rmv_dly>
  104208:	9904      	ldr	r1, [sp, #16]
  10420a:	4841      	ldr	r0, [pc, #260]	; (104310 <rt_mbx_psh+0x158>)
  10420c:	f7ff fcd0 	bl	103bb0 <rt_put_prio>
  104210:	e079      	b.n	104306 <rt_mbx_psh+0x14e>
  104212:	9801      	ldr	r0, [sp, #4]
  104214:	f7ff fd0e 	bl	103c34 <rt_get_first>
  104218:	9004      	str	r0, [sp, #16]
  10421a:	2100      	movs	r1, #0
  10421c:	9804      	ldr	r0, [sp, #16]
  10421e:	f000 fe95 	bl	104f4c <rt_ret_val>
  104222:	9b01      	ldr	r3, [sp, #4]
  104224:	891b      	ldrh	r3, [r3, #8]
  104226:	461a      	mov	r2, r3
  104228:	9b04      	ldr	r3, [sp, #16]
  10422a:	69d9      	ldr	r1, [r3, #28]
  10422c:	9b01      	ldr	r3, [sp, #4]
  10422e:	3204      	adds	r2, #4
  104230:	f843 1022 	str.w	r1, [r3, r2, lsl #2]
  104234:	f3ef 8310 	mrs	r3, PRIMASK
  104238:	9303      	str	r3, [sp, #12]
  10423a:	b672      	cpsid	i
  10423c:	9b01      	ldr	r3, [sp, #4]
  10423e:	899b      	ldrh	r3, [r3, #12]
  104240:	3301      	adds	r3, #1
  104242:	b29a      	uxth	r2, r3
  104244:	9b01      	ldr	r3, [sp, #4]
  104246:	819a      	strh	r2, [r3, #12]
  104248:	b662      	cpsie	i
  10424a:	9b01      	ldr	r3, [sp, #4]
  10424c:	891b      	ldrh	r3, [r3, #8]
  10424e:	3301      	adds	r3, #1
  104250:	b29a      	uxth	r2, r3
  104252:	9b01      	ldr	r3, [sp, #4]
  104254:	811a      	strh	r2, [r3, #8]
  104256:	9b01      	ldr	r3, [sp, #4]
  104258:	891a      	ldrh	r2, [r3, #8]
  10425a:	9b01      	ldr	r3, [sp, #4]
  10425c:	89db      	ldrh	r3, [r3, #14]
  10425e:	429a      	cmp	r2, r3
  104260:	d102      	bne.n	104268 <rt_mbx_psh+0xb0>
  104262:	9b01      	ldr	r3, [sp, #4]
  104264:	2200      	movs	r2, #0
  104266:	811a      	strh	r2, [r3, #8]
  104268:	9b04      	ldr	r3, [sp, #16]
  10426a:	2201      	movs	r2, #1
  10426c:	705a      	strb	r2, [r3, #1]
  10426e:	9804      	ldr	r0, [sp, #16]
  104270:	f7ff fe3a 	bl	103ee8 <rt_rmv_dly>
  104274:	9904      	ldr	r1, [sp, #16]
  104276:	4826      	ldr	r0, [pc, #152]	; (104310 <rt_mbx_psh+0x158>)
  104278:	f7ff fc9a 	bl	103bb0 <rt_put_prio>
  10427c:	e043      	b.n	104306 <rt_mbx_psh+0x14e>
  10427e:	9801      	ldr	r0, [sp, #4]
  104280:	f7ff fcd8 	bl	103c34 <rt_get_first>
  104284:	9004      	str	r0, [sp, #16]
  104286:	9b00      	ldr	r3, [sp, #0]
  104288:	461a      	mov	r2, r3
  10428a:	2110      	movs	r1, #16
  10428c:	9804      	ldr	r0, [sp, #16]
  10428e:	f000 fe6d 	bl	104f6c <rt_ret_val2>
  104292:	9b04      	ldr	r3, [sp, #16]
  104294:	2201      	movs	r2, #1
  104296:	705a      	strb	r2, [r3, #1]
  104298:	9804      	ldr	r0, [sp, #16]
  10429a:	f7ff fe25 	bl	103ee8 <rt_rmv_dly>
  10429e:	9904      	ldr	r1, [sp, #16]
  1042a0:	481b      	ldr	r0, [pc, #108]	; (104310 <rt_mbx_psh+0x158>)
  1042a2:	f7ff fc85 	bl	103bb0 <rt_put_prio>
  1042a6:	bf00      	nop
  1042a8:	e02d      	b.n	104306 <rt_mbx_psh+0x14e>
  1042aa:	9b01      	ldr	r3, [sp, #4]
  1042ac:	899a      	ldrh	r2, [r3, #12]
  1042ae:	9b01      	ldr	r3, [sp, #4]
  1042b0:	89db      	ldrh	r3, [r3, #14]
  1042b2:	429a      	cmp	r2, r3
  1042b4:	d222      	bcs.n	1042fc <rt_mbx_psh+0x144>
  1042b6:	9b01      	ldr	r3, [sp, #4]
  1042b8:	891b      	ldrh	r3, [r3, #8]
  1042ba:	461a      	mov	r2, r3
  1042bc:	9b01      	ldr	r3, [sp, #4]
  1042be:	3204      	adds	r2, #4
  1042c0:	9900      	ldr	r1, [sp, #0]
  1042c2:	f843 1022 	str.w	r1, [r3, r2, lsl #2]
  1042c6:	f3ef 8310 	mrs	r3, PRIMASK
  1042ca:	9302      	str	r3, [sp, #8]
  1042cc:	b672      	cpsid	i
  1042ce:	9b01      	ldr	r3, [sp, #4]
  1042d0:	899b      	ldrh	r3, [r3, #12]
  1042d2:	3301      	adds	r3, #1
  1042d4:	b29a      	uxth	r2, r3
  1042d6:	9b01      	ldr	r3, [sp, #4]
  1042d8:	819a      	strh	r2, [r3, #12]
  1042da:	b662      	cpsie	i
  1042dc:	9b01      	ldr	r3, [sp, #4]
  1042de:	891b      	ldrh	r3, [r3, #8]
  1042e0:	3301      	adds	r3, #1
  1042e2:	b29a      	uxth	r2, r3
  1042e4:	9b01      	ldr	r3, [sp, #4]
  1042e6:	811a      	strh	r2, [r3, #8]
  1042e8:	9b01      	ldr	r3, [sp, #4]
  1042ea:	891a      	ldrh	r2, [r3, #8]
  1042ec:	9b01      	ldr	r3, [sp, #4]
  1042ee:	89db      	ldrh	r3, [r3, #14]
  1042f0:	429a      	cmp	r2, r3
  1042f2:	d108      	bne.n	104306 <rt_mbx_psh+0x14e>
  1042f4:	9b01      	ldr	r3, [sp, #4]
  1042f6:	2200      	movs	r2, #0
  1042f8:	811a      	strh	r2, [r3, #8]
  1042fa:	e004      	b.n	104306 <rt_mbx_psh+0x14e>
  1042fc:	2003      	movs	r0, #3
  1042fe:	f000 fcf7 	bl	104cf0 <os_error>
  104302:	e000      	b.n	104306 <rt_mbx_psh+0x14e>
  104304:	bf00      	nop
  104306:	bf00      	nop
  104308:	b007      	add	sp, #28
  10430a:	f85d fb04 	ldr.w	pc, [sp], #4
  10430e:	bf00      	nop
  104310:	3fff484c 	.word	0x3fff484c

00104314 <rt_alloc_box>:
  104314:	b086      	sub	sp, #24
  104316:	9001      	str	r0, [sp, #4]
  104318:	f3ef 8310 	mrs	r3, PRIMASK
  10431c:	9303      	str	r3, [sp, #12]
  10431e:	b672      	cpsid	i
  104320:	9b03      	ldr	r3, [sp, #12]
  104322:	f003 0301 	and.w	r3, r3, #1
  104326:	9305      	str	r3, [sp, #20]
  104328:	9b01      	ldr	r3, [sp, #4]
  10432a:	681b      	ldr	r3, [r3, #0]
  10432c:	9304      	str	r3, [sp, #16]
  10432e:	9b04      	ldr	r3, [sp, #16]
  104330:	2b00      	cmp	r3, #0
  104332:	d003      	beq.n	10433c <rt_alloc_box+0x28>
  104334:	9b04      	ldr	r3, [sp, #16]
  104336:	681a      	ldr	r2, [r3, #0]
  104338:	9b01      	ldr	r3, [sp, #4]
  10433a:	601a      	str	r2, [r3, #0]
  10433c:	9b05      	ldr	r3, [sp, #20]
  10433e:	2b00      	cmp	r3, #0
  104340:	d100      	bne.n	104344 <rt_alloc_box+0x30>
  104342:	b662      	cpsie	i
  104344:	9b04      	ldr	r3, [sp, #16]
  104346:	4618      	mov	r0, r3
  104348:	b006      	add	sp, #24
  10434a:	4770      	bx	lr

0010434c <rt_free_box>:
  10434c:	b084      	sub	sp, #16
  10434e:	9001      	str	r0, [sp, #4]
  104350:	9100      	str	r1, [sp, #0]
  104352:	9a00      	ldr	r2, [sp, #0]
  104354:	9b01      	ldr	r3, [sp, #4]
  104356:	429a      	cmp	r2, r3
  104358:	d304      	bcc.n	104364 <rt_free_box+0x18>
  10435a:	9b01      	ldr	r3, [sp, #4]
  10435c:	685a      	ldr	r2, [r3, #4]
  10435e:	9b00      	ldr	r3, [sp, #0]
  104360:	429a      	cmp	r2, r3
  104362:	d801      	bhi.n	104368 <rt_free_box+0x1c>
  104364:	2301      	movs	r3, #1
  104366:	e013      	b.n	104390 <rt_free_box+0x44>
  104368:	f3ef 8310 	mrs	r3, PRIMASK
  10436c:	9302      	str	r3, [sp, #8]
  10436e:	b672      	cpsid	i
  104370:	9b02      	ldr	r3, [sp, #8]
  104372:	f003 0301 	and.w	r3, r3, #1
  104376:	9303      	str	r3, [sp, #12]
  104378:	9b01      	ldr	r3, [sp, #4]
  10437a:	681a      	ldr	r2, [r3, #0]
  10437c:	9b00      	ldr	r3, [sp, #0]
  10437e:	601a      	str	r2, [r3, #0]
  104380:	9b01      	ldr	r3, [sp, #4]
  104382:	9a00      	ldr	r2, [sp, #0]
  104384:	601a      	str	r2, [r3, #0]
  104386:	9b03      	ldr	r3, [sp, #12]
  104388:	2b00      	cmp	r3, #0
  10438a:	d100      	bne.n	10438e <rt_free_box+0x42>
  10438c:	b662      	cpsie	i
  10438e:	2300      	movs	r3, #0
  104390:	4618      	mov	r0, r3
  104392:	b004      	add	sp, #16
  104394:	4770      	bx	lr
  104396:	bf00      	nop

00104398 <rt_mut_init>:
  104398:	b084      	sub	sp, #16
  10439a:	9001      	str	r0, [sp, #4]
  10439c:	9b01      	ldr	r3, [sp, #4]
  10439e:	9303      	str	r3, [sp, #12]
  1043a0:	9b03      	ldr	r3, [sp, #12]
  1043a2:	2203      	movs	r2, #3
  1043a4:	701a      	strb	r2, [r3, #0]
  1043a6:	9b03      	ldr	r3, [sp, #12]
  1043a8:	2200      	movs	r2, #0
  1043aa:	705a      	strb	r2, [r3, #1]
  1043ac:	9b03      	ldr	r3, [sp, #12]
  1043ae:	2200      	movs	r2, #0
  1043b0:	805a      	strh	r2, [r3, #2]
  1043b2:	9b03      	ldr	r3, [sp, #12]
  1043b4:	2200      	movs	r2, #0
  1043b6:	605a      	str	r2, [r3, #4]
  1043b8:	9b03      	ldr	r3, [sp, #12]
  1043ba:	2200      	movs	r2, #0
  1043bc:	609a      	str	r2, [r3, #8]
  1043be:	bf00      	nop
  1043c0:	b004      	add	sp, #16
  1043c2:	4770      	bx	lr

001043c4 <rt_mut_delete>:
  1043c4:	b500      	push	{lr}
  1043c6:	b085      	sub	sp, #20
  1043c8:	9001      	str	r0, [sp, #4]
  1043ca:	9b01      	ldr	r3, [sp, #4]
  1043cc:	9303      	str	r3, [sp, #12]
  1043ce:	9b03      	ldr	r3, [sp, #12]
  1043d0:	885b      	ldrh	r3, [r3, #2]
  1043d2:	2b00      	cmp	r3, #0
  1043d4:	d022      	beq.n	10441c <rt_mut_delete+0x58>
  1043d6:	9b03      	ldr	r3, [sp, #12]
  1043d8:	689b      	ldr	r3, [r3, #8]
  1043da:	9a03      	ldr	r2, [sp, #12]
  1043dc:	7852      	ldrb	r2, [r2, #1]
  1043de:	709a      	strb	r2, [r3, #2]
  1043e0:	9b03      	ldr	r3, [sp, #12]
  1043e2:	689a      	ldr	r2, [r3, #8]
  1043e4:	4b20      	ldr	r3, [pc, #128]	; (104468 <rt_mut_delete+0xa4>)
  1043e6:	681b      	ldr	r3, [r3, #0]
  1043e8:	429a      	cmp	r2, r3
  1043ea:	d017      	beq.n	10441c <rt_mut_delete+0x58>
  1043ec:	9b03      	ldr	r3, [sp, #12]
  1043ee:	689b      	ldr	r3, [r3, #8]
  1043f0:	4618      	mov	r0, r3
  1043f2:	f7ff fc5d 	bl	103cb0 <rt_resort_prio>
  1043f6:	e011      	b.n	10441c <rt_mut_delete+0x58>
  1043f8:	9803      	ldr	r0, [sp, #12]
  1043fa:	f7ff fc1b 	bl	103c34 <rt_get_first>
  1043fe:	9002      	str	r0, [sp, #8]
  104400:	2100      	movs	r1, #0
  104402:	9802      	ldr	r0, [sp, #8]
  104404:	f000 fda2 	bl	104f4c <rt_ret_val>
  104408:	9802      	ldr	r0, [sp, #8]
  10440a:	f7ff fd6d 	bl	103ee8 <rt_rmv_dly>
  10440e:	9b02      	ldr	r3, [sp, #8]
  104410:	2201      	movs	r2, #1
  104412:	705a      	strb	r2, [r3, #1]
  104414:	9902      	ldr	r1, [sp, #8]
  104416:	4815      	ldr	r0, [pc, #84]	; (10446c <rt_mut_delete+0xa8>)
  104418:	f7ff fbca 	bl	103bb0 <rt_put_prio>
  10441c:	9b03      	ldr	r3, [sp, #12]
  10441e:	685b      	ldr	r3, [r3, #4]
  104420:	2b00      	cmp	r3, #0
  104422:	d1e9      	bne.n	1043f8 <rt_mut_delete+0x34>
  104424:	4b11      	ldr	r3, [pc, #68]	; (10446c <rt_mut_delete+0xa8>)
  104426:	685b      	ldr	r3, [r3, #4]
  104428:	2b00      	cmp	r3, #0
  10442a:	d014      	beq.n	104456 <rt_mut_delete+0x92>
  10442c:	4b0f      	ldr	r3, [pc, #60]	; (10446c <rt_mut_delete+0xa8>)
  10442e:	685b      	ldr	r3, [r3, #4]
  104430:	789a      	ldrb	r2, [r3, #2]
  104432:	4b0d      	ldr	r3, [pc, #52]	; (104468 <rt_mut_delete+0xa4>)
  104434:	681b      	ldr	r3, [r3, #0]
  104436:	789b      	ldrb	r3, [r3, #2]
  104438:	429a      	cmp	r2, r3
  10443a:	d90c      	bls.n	104456 <rt_mut_delete+0x92>
  10443c:	4b0a      	ldr	r3, [pc, #40]	; (104468 <rt_mut_delete+0xa4>)
  10443e:	681b      	ldr	r3, [r3, #0]
  104440:	4619      	mov	r1, r3
  104442:	480a      	ldr	r0, [pc, #40]	; (10446c <rt_mut_delete+0xa8>)
  104444:	f7ff fbb4 	bl	103bb0 <rt_put_prio>
  104448:	4b07      	ldr	r3, [pc, #28]	; (104468 <rt_mut_delete+0xa4>)
  10444a:	681b      	ldr	r3, [r3, #0]
  10444c:	2201      	movs	r2, #1
  10444e:	705a      	strb	r2, [r3, #1]
  104450:	2000      	movs	r0, #0
  104452:	f000 fa93 	bl	10497c <rt_dispatch>
  104456:	9b03      	ldr	r3, [sp, #12]
  104458:	2200      	movs	r2, #0
  10445a:	701a      	strb	r2, [r3, #0]
  10445c:	2300      	movs	r3, #0
  10445e:	4618      	mov	r0, r3
  104460:	b005      	add	sp, #20
  104462:	f85d fb04 	ldr.w	pc, [sp], #4
  104466:	bf00      	nop
  104468:	3fff4880 	.word	0x3fff4880
  10446c:	3fff484c 	.word	0x3fff484c

00104470 <rt_mut_release>:
  104470:	b500      	push	{lr}
  104472:	b085      	sub	sp, #20
  104474:	9001      	str	r0, [sp, #4]
  104476:	9b01      	ldr	r3, [sp, #4]
  104478:	9303      	str	r3, [sp, #12]
  10447a:	9b03      	ldr	r3, [sp, #12]
  10447c:	885b      	ldrh	r3, [r3, #2]
  10447e:	2b00      	cmp	r3, #0
  104480:	d005      	beq.n	10448e <rt_mut_release+0x1e>
  104482:	9b03      	ldr	r3, [sp, #12]
  104484:	689a      	ldr	r2, [r3, #8]
  104486:	4b35      	ldr	r3, [pc, #212]	; (10455c <rt_mut_release+0xec>)
  104488:	681b      	ldr	r3, [r3, #0]
  10448a:	429a      	cmp	r2, r3
  10448c:	d001      	beq.n	104492 <rt_mut_release+0x22>
  10448e:	23ff      	movs	r3, #255	; 0xff
  104490:	e060      	b.n	104554 <rt_mut_release+0xe4>
  104492:	9b03      	ldr	r3, [sp, #12]
  104494:	885b      	ldrh	r3, [r3, #2]
  104496:	3b01      	subs	r3, #1
  104498:	b29a      	uxth	r2, r3
  10449a:	9b03      	ldr	r3, [sp, #12]
  10449c:	805a      	strh	r2, [r3, #2]
  10449e:	9b03      	ldr	r3, [sp, #12]
  1044a0:	885b      	ldrh	r3, [r3, #2]
  1044a2:	2b00      	cmp	r3, #0
  1044a4:	d001      	beq.n	1044aa <rt_mut_release+0x3a>
  1044a6:	2300      	movs	r3, #0
  1044a8:	e054      	b.n	104554 <rt_mut_release+0xe4>
  1044aa:	4b2c      	ldr	r3, [pc, #176]	; (10455c <rt_mut_release+0xec>)
  1044ac:	681b      	ldr	r3, [r3, #0]
  1044ae:	9a03      	ldr	r2, [sp, #12]
  1044b0:	7852      	ldrb	r2, [r2, #1]
  1044b2:	709a      	strb	r2, [r3, #2]
  1044b4:	9b03      	ldr	r3, [sp, #12]
  1044b6:	685b      	ldr	r3, [r3, #4]
  1044b8:	2b00      	cmp	r3, #0
  1044ba:	d035      	beq.n	104528 <rt_mut_release+0xb8>
  1044bc:	9803      	ldr	r0, [sp, #12]
  1044be:	f7ff fbb9 	bl	103c34 <rt_get_first>
  1044c2:	9002      	str	r0, [sp, #8]
  1044c4:	2100      	movs	r1, #0
  1044c6:	9802      	ldr	r0, [sp, #8]
  1044c8:	f000 fd40 	bl	104f4c <rt_ret_val>
  1044cc:	9802      	ldr	r0, [sp, #8]
  1044ce:	f7ff fd0b 	bl	103ee8 <rt_rmv_dly>
  1044d2:	9b03      	ldr	r3, [sp, #12]
  1044d4:	2201      	movs	r2, #1
  1044d6:	805a      	strh	r2, [r3, #2]
  1044d8:	9b03      	ldr	r3, [sp, #12]
  1044da:	9a02      	ldr	r2, [sp, #8]
  1044dc:	609a      	str	r2, [r3, #8]
  1044de:	9b02      	ldr	r3, [sp, #8]
  1044e0:	789a      	ldrb	r2, [r3, #2]
  1044e2:	9b03      	ldr	r3, [sp, #12]
  1044e4:	705a      	strb	r2, [r3, #1]
  1044e6:	4b1d      	ldr	r3, [pc, #116]	; (10455c <rt_mut_release+0xec>)
  1044e8:	681b      	ldr	r3, [r3, #0]
  1044ea:	789a      	ldrb	r2, [r3, #2]
  1044ec:	4b1c      	ldr	r3, [pc, #112]	; (104560 <rt_mut_release+0xf0>)
  1044ee:	685b      	ldr	r3, [r3, #4]
  1044f0:	789b      	ldrb	r3, [r3, #2]
  1044f2:	429a      	cmp	r2, r3
  1044f4:	d303      	bcc.n	1044fe <rt_mut_release+0x8e>
  1044f6:	9802      	ldr	r0, [sp, #8]
  1044f8:	f000 fa40 	bl	10497c <rt_dispatch>
  1044fc:	e029      	b.n	104552 <rt_mut_release+0xe2>
  1044fe:	4b17      	ldr	r3, [pc, #92]	; (10455c <rt_mut_release+0xec>)
  104500:	681b      	ldr	r3, [r3, #0]
  104502:	4619      	mov	r1, r3
  104504:	4816      	ldr	r0, [pc, #88]	; (104560 <rt_mut_release+0xf0>)
  104506:	f7ff fb53 	bl	103bb0 <rt_put_prio>
  10450a:	9902      	ldr	r1, [sp, #8]
  10450c:	4814      	ldr	r0, [pc, #80]	; (104560 <rt_mut_release+0xf0>)
  10450e:	f7ff fb4f 	bl	103bb0 <rt_put_prio>
  104512:	4b12      	ldr	r3, [pc, #72]	; (10455c <rt_mut_release+0xec>)
  104514:	681b      	ldr	r3, [r3, #0]
  104516:	2201      	movs	r2, #1
  104518:	705a      	strb	r2, [r3, #1]
  10451a:	9b02      	ldr	r3, [sp, #8]
  10451c:	2201      	movs	r2, #1
  10451e:	705a      	strb	r2, [r3, #1]
  104520:	2000      	movs	r0, #0
  104522:	f000 fa2b 	bl	10497c <rt_dispatch>
  104526:	e014      	b.n	104552 <rt_mut_release+0xe2>
  104528:	4b0d      	ldr	r3, [pc, #52]	; (104560 <rt_mut_release+0xf0>)
  10452a:	685b      	ldr	r3, [r3, #4]
  10452c:	789a      	ldrb	r2, [r3, #2]
  10452e:	4b0b      	ldr	r3, [pc, #44]	; (10455c <rt_mut_release+0xec>)
  104530:	681b      	ldr	r3, [r3, #0]
  104532:	789b      	ldrb	r3, [r3, #2]
  104534:	429a      	cmp	r2, r3
  104536:	d90c      	bls.n	104552 <rt_mut_release+0xe2>
  104538:	4b08      	ldr	r3, [pc, #32]	; (10455c <rt_mut_release+0xec>)
  10453a:	681b      	ldr	r3, [r3, #0]
  10453c:	4619      	mov	r1, r3
  10453e:	4808      	ldr	r0, [pc, #32]	; (104560 <rt_mut_release+0xf0>)
  104540:	f7ff fb36 	bl	103bb0 <rt_put_prio>
  104544:	4b05      	ldr	r3, [pc, #20]	; (10455c <rt_mut_release+0xec>)
  104546:	681b      	ldr	r3, [r3, #0]
  104548:	2201      	movs	r2, #1
  10454a:	705a      	strb	r2, [r3, #1]
  10454c:	2000      	movs	r0, #0
  10454e:	f000 fa15 	bl	10497c <rt_dispatch>
  104552:	2300      	movs	r3, #0
  104554:	4618      	mov	r0, r3
  104556:	b005      	add	sp, #20
  104558:	f85d fb04 	ldr.w	pc, [sp], #4
  10455c:	3fff4880 	.word	0x3fff4880
  104560:	3fff484c 	.word	0x3fff484c

00104564 <rt_mut_wait>:
  104564:	b500      	push	{lr}
  104566:	b085      	sub	sp, #20
  104568:	9001      	str	r0, [sp, #4]
  10456a:	460b      	mov	r3, r1
  10456c:	f8ad 3002 	strh.w	r3, [sp, #2]
  104570:	9b01      	ldr	r3, [sp, #4]
  104572:	9303      	str	r3, [sp, #12]
  104574:	9b03      	ldr	r3, [sp, #12]
  104576:	885b      	ldrh	r3, [r3, #2]
  104578:	2b00      	cmp	r3, #0
  10457a:	d109      	bne.n	104590 <rt_mut_wait+0x2c>
  10457c:	4b28      	ldr	r3, [pc, #160]	; (104620 <rt_mut_wait+0xbc>)
  10457e:	681a      	ldr	r2, [r3, #0]
  104580:	9b03      	ldr	r3, [sp, #12]
  104582:	609a      	str	r2, [r3, #8]
  104584:	4b26      	ldr	r3, [pc, #152]	; (104620 <rt_mut_wait+0xbc>)
  104586:	681b      	ldr	r3, [r3, #0]
  104588:	789a      	ldrb	r2, [r3, #2]
  10458a:	9b03      	ldr	r3, [sp, #12]
  10458c:	705a      	strb	r2, [r3, #1]
  10458e:	e005      	b.n	10459c <rt_mut_wait+0x38>
  104590:	9b03      	ldr	r3, [sp, #12]
  104592:	689a      	ldr	r2, [r3, #8]
  104594:	4b22      	ldr	r3, [pc, #136]	; (104620 <rt_mut_wait+0xbc>)
  104596:	681b      	ldr	r3, [r3, #0]
  104598:	429a      	cmp	r2, r3
  10459a:	d107      	bne.n	1045ac <rt_mut_wait+0x48>
  10459c:	9b03      	ldr	r3, [sp, #12]
  10459e:	885b      	ldrh	r3, [r3, #2]
  1045a0:	3301      	adds	r3, #1
  1045a2:	b29a      	uxth	r2, r3
  1045a4:	9b03      	ldr	r3, [sp, #12]
  1045a6:	805a      	strh	r2, [r3, #2]
  1045a8:	2300      	movs	r3, #0
  1045aa:	e035      	b.n	104618 <rt_mut_wait+0xb4>
  1045ac:	f8bd 3002 	ldrh.w	r3, [sp, #2]
  1045b0:	2b00      	cmp	r3, #0
  1045b2:	d101      	bne.n	1045b8 <rt_mut_wait+0x54>
  1045b4:	2301      	movs	r3, #1
  1045b6:	e02f      	b.n	104618 <rt_mut_wait+0xb4>
  1045b8:	9b03      	ldr	r3, [sp, #12]
  1045ba:	785a      	ldrb	r2, [r3, #1]
  1045bc:	4b18      	ldr	r3, [pc, #96]	; (104620 <rt_mut_wait+0xbc>)
  1045be:	681b      	ldr	r3, [r3, #0]
  1045c0:	789b      	ldrb	r3, [r3, #2]
  1045c2:	429a      	cmp	r2, r3
  1045c4:	d20a      	bcs.n	1045dc <rt_mut_wait+0x78>
  1045c6:	9b03      	ldr	r3, [sp, #12]
  1045c8:	689b      	ldr	r3, [r3, #8]
  1045ca:	4a15      	ldr	r2, [pc, #84]	; (104620 <rt_mut_wait+0xbc>)
  1045cc:	6812      	ldr	r2, [r2, #0]
  1045ce:	7892      	ldrb	r2, [r2, #2]
  1045d0:	709a      	strb	r2, [r3, #2]
  1045d2:	9b03      	ldr	r3, [sp, #12]
  1045d4:	689b      	ldr	r3, [r3, #8]
  1045d6:	4618      	mov	r0, r3
  1045d8:	f7ff fb6a 	bl	103cb0 <rt_resort_prio>
  1045dc:	9b03      	ldr	r3, [sp, #12]
  1045de:	685b      	ldr	r3, [r3, #4]
  1045e0:	2b00      	cmp	r3, #0
  1045e2:	d006      	beq.n	1045f2 <rt_mut_wait+0x8e>
  1045e4:	4b0e      	ldr	r3, [pc, #56]	; (104620 <rt_mut_wait+0xbc>)
  1045e6:	681b      	ldr	r3, [r3, #0]
  1045e8:	4619      	mov	r1, r3
  1045ea:	9803      	ldr	r0, [sp, #12]
  1045ec:	f7ff fae0 	bl	103bb0 <rt_put_prio>
  1045f0:	e00b      	b.n	10460a <rt_mut_wait+0xa6>
  1045f2:	4b0b      	ldr	r3, [pc, #44]	; (104620 <rt_mut_wait+0xbc>)
  1045f4:	681a      	ldr	r2, [r3, #0]
  1045f6:	9b03      	ldr	r3, [sp, #12]
  1045f8:	605a      	str	r2, [r3, #4]
  1045fa:	4b09      	ldr	r3, [pc, #36]	; (104620 <rt_mut_wait+0xbc>)
  1045fc:	681b      	ldr	r3, [r3, #0]
  1045fe:	2200      	movs	r2, #0
  104600:	605a      	str	r2, [r3, #4]
  104602:	4b07      	ldr	r3, [pc, #28]	; (104620 <rt_mut_wait+0xbc>)
  104604:	681b      	ldr	r3, [r3, #0]
  104606:	9a03      	ldr	r2, [sp, #12]
  104608:	609a      	str	r2, [r3, #8]
  10460a:	f8bd 3002 	ldrh.w	r3, [sp, #2]
  10460e:	2109      	movs	r1, #9
  104610:	4618      	mov	r0, r3
  104612:	f000 f9e5 	bl	1049e0 <rt_block>
  104616:	2301      	movs	r3, #1
  104618:	4618      	mov	r0, r3
  10461a:	b005      	add	sp, #20
  10461c:	f85d fb04 	ldr.w	pc, [sp], #4
  104620:	3fff4880 	.word	0x3fff4880

00104624 <rt_sem_psh>:
  104624:	b500      	push	{lr}
  104626:	b085      	sub	sp, #20
  104628:	9001      	str	r0, [sp, #4]
  10462a:	9b01      	ldr	r3, [sp, #4]
  10462c:	685b      	ldr	r3, [r3, #4]
  10462e:	2b00      	cmp	r3, #0
  104630:	d012      	beq.n	104658 <rt_sem_psh+0x34>
  104632:	9801      	ldr	r0, [sp, #4]
  104634:	f7ff fafe 	bl	103c34 <rt_get_first>
  104638:	9003      	str	r0, [sp, #12]
  10463a:	9803      	ldr	r0, [sp, #12]
  10463c:	f7ff fc54 	bl	103ee8 <rt_rmv_dly>
  104640:	9b03      	ldr	r3, [sp, #12]
  104642:	2201      	movs	r2, #1
  104644:	705a      	strb	r2, [r3, #1]
  104646:	2101      	movs	r1, #1
  104648:	9803      	ldr	r0, [sp, #12]
  10464a:	f000 fc7f 	bl	104f4c <rt_ret_val>
  10464e:	9903      	ldr	r1, [sp, #12]
  104650:	4806      	ldr	r0, [pc, #24]	; (10466c <rt_sem_psh+0x48>)
  104652:	f7ff faad 	bl	103bb0 <rt_put_prio>
  104656:	e005      	b.n	104664 <rt_sem_psh+0x40>
  104658:	9b01      	ldr	r3, [sp, #4]
  10465a:	885b      	ldrh	r3, [r3, #2]
  10465c:	3301      	adds	r3, #1
  10465e:	b29a      	uxth	r2, r3
  104660:	9b01      	ldr	r3, [sp, #4]
  104662:	805a      	strh	r2, [r3, #2]
  104664:	bf00      	nop
  104666:	b005      	add	sp, #20
  104668:	f85d fb04 	ldr.w	pc, [sp], #4
  10466c:	3fff484c 	.word	0x3fff484c

00104670 <rt_systick_init>:
  104670:	4a08      	ldr	r2, [pc, #32]	; (104694 <rt_systick_init+0x24>)
  104672:	4b09      	ldr	r3, [pc, #36]	; (104698 <rt_systick_init+0x28>)
  104674:	681b      	ldr	r3, [r3, #0]
  104676:	6013      	str	r3, [r2, #0]
  104678:	4b08      	ldr	r3, [pc, #32]	; (10469c <rt_systick_init+0x2c>)
  10467a:	2200      	movs	r2, #0
  10467c:	601a      	str	r2, [r3, #0]
  10467e:	4b08      	ldr	r3, [pc, #32]	; (1046a0 <rt_systick_init+0x30>)
  104680:	2207      	movs	r2, #7
  104682:	601a      	str	r2, [r3, #0]
  104684:	4a07      	ldr	r2, [pc, #28]	; (1046a4 <rt_systick_init+0x34>)
  104686:	4b07      	ldr	r3, [pc, #28]	; (1046a4 <rt_systick_init+0x34>)
  104688:	681b      	ldr	r3, [r3, #0]
  10468a:	f043 437f 	orr.w	r3, r3, #4278190080	; 0xff000000
  10468e:	6013      	str	r3, [r2, #0]
  104690:	bf00      	nop
  104692:	4770      	bx	lr
  104694:	e000e014 	.word	0xe000e014
  104698:	0010dfb0 	.word	0x0010dfb0
  10469c:	e000e018 	.word	0xe000e018
  1046a0:	e000e010 	.word	0xe000e010
  1046a4:	e000ed20 	.word	0xe000ed20

001046a8 <rt_psh_req>:
  1046a8:	4b07      	ldr	r3, [pc, #28]	; (1046c8 <rt_psh_req+0x20>)
  1046aa:	781b      	ldrb	r3, [r3, #0]
  1046ac:	b2db      	uxtb	r3, r3
  1046ae:	2b00      	cmp	r3, #0
  1046b0:	d104      	bne.n	1046bc <rt_psh_req+0x14>
  1046b2:	4b06      	ldr	r3, [pc, #24]	; (1046cc <rt_psh_req+0x24>)
  1046b4:	f04f 5280 	mov.w	r2, #268435456	; 0x10000000
  1046b8:	601a      	str	r2, [r3, #0]
  1046ba:	e002      	b.n	1046c2 <rt_psh_req+0x1a>
  1046bc:	4b04      	ldr	r3, [pc, #16]	; (1046d0 <rt_psh_req+0x28>)
  1046be:	2201      	movs	r2, #1
  1046c0:	701a      	strb	r2, [r3, #0]
  1046c2:	bf00      	nop
  1046c4:	4770      	bx	lr
  1046c6:	bf00      	nop
  1046c8:	3fff45a0 	.word	0x3fff45a0
  1046cc:	e000ed04 	.word	0xe000ed04
  1046d0:	3fff45a1 	.word	0x3fff45a1

001046d4 <rt_pop_req>:
  1046d4:	b500      	push	{lr}
  1046d6:	b085      	sub	sp, #20
  1046d8:	4b2d      	ldr	r3, [pc, #180]	; (104790 <rt_pop_req+0xbc>)
  1046da:	681b      	ldr	r3, [r3, #0]
  1046dc:	2201      	movs	r2, #1
  1046de:	705a      	strb	r2, [r3, #1]
  1046e0:	4b2b      	ldr	r3, [pc, #172]	; (104790 <rt_pop_req+0xbc>)
  1046e2:	681b      	ldr	r3, [r3, #0]
  1046e4:	4618      	mov	r0, r3
  1046e6:	f7ff fad1 	bl	103c8c <rt_put_rdy_first>
  1046ea:	4b2a      	ldr	r3, [pc, #168]	; (104794 <rt_pop_req+0xc0>)
  1046ec:	785b      	ldrb	r3, [r3, #1]
  1046ee:	9303      	str	r3, [sp, #12]
  1046f0:	e03a      	b.n	104768 <rt_pop_req+0x94>
  1046f2:	4a28      	ldr	r2, [pc, #160]	; (104794 <rt_pop_req+0xc0>)
  1046f4:	9b03      	ldr	r3, [sp, #12]
  1046f6:	00db      	lsls	r3, r3, #3
  1046f8:	4413      	add	r3, r2
  1046fa:	685b      	ldr	r3, [r3, #4]
  1046fc:	9302      	str	r3, [sp, #8]
  1046fe:	9b02      	ldr	r3, [sp, #8]
  104700:	781b      	ldrb	r3, [r3, #0]
  104702:	2b00      	cmp	r3, #0
  104704:	d10a      	bne.n	10471c <rt_pop_req+0x48>
  104706:	4a23      	ldr	r2, [pc, #140]	; (104794 <rt_pop_req+0xc0>)
  104708:	9b03      	ldr	r3, [sp, #12]
  10470a:	00db      	lsls	r3, r3, #3
  10470c:	4413      	add	r3, r2
  10470e:	689b      	ldr	r3, [r3, #8]
  104710:	b29b      	uxth	r3, r3
  104712:	4619      	mov	r1, r3
  104714:	9802      	ldr	r0, [sp, #8]
  104716:	f7ff f9c7 	bl	103aa8 <rt_evt_psh>
  10471a:	e010      	b.n	10473e <rt_pop_req+0x6a>
  10471c:	9b02      	ldr	r3, [sp, #8]
  10471e:	781b      	ldrb	r3, [r3, #0]
  104720:	2b01      	cmp	r3, #1
  104722:	d109      	bne.n	104738 <rt_pop_req+0x64>
  104724:	4a1b      	ldr	r2, [pc, #108]	; (104794 <rt_pop_req+0xc0>)
  104726:	9b03      	ldr	r3, [sp, #12]
  104728:	00db      	lsls	r3, r3, #3
  10472a:	4413      	add	r3, r2
  10472c:	689b      	ldr	r3, [r3, #8]
  10472e:	4619      	mov	r1, r3
  104730:	9802      	ldr	r0, [sp, #8]
  104732:	f7ff fd41 	bl	1041b8 <rt_mbx_psh>
  104736:	e002      	b.n	10473e <rt_pop_req+0x6a>
  104738:	9802      	ldr	r0, [sp, #8]
  10473a:	f7ff ff73 	bl	104624 <rt_sem_psh>
  10473e:	9b03      	ldr	r3, [sp, #12]
  104740:	3301      	adds	r3, #1
  104742:	9303      	str	r3, [sp, #12]
  104744:	4b13      	ldr	r3, [pc, #76]	; (104794 <rt_pop_req+0xc0>)
  104746:	78db      	ldrb	r3, [r3, #3]
  104748:	461a      	mov	r2, r3
  10474a:	9b03      	ldr	r3, [sp, #12]
  10474c:	4293      	cmp	r3, r2
  10474e:	d101      	bne.n	104754 <rt_pop_req+0x80>
  104750:	2300      	movs	r3, #0
  104752:	9303      	str	r3, [sp, #12]
  104754:	f3ef 8310 	mrs	r3, PRIMASK
  104758:	9301      	str	r3, [sp, #4]
  10475a:	b672      	cpsid	i
  10475c:	4b0e      	ldr	r3, [pc, #56]	; (104798 <rt_pop_req+0xc4>)
  10475e:	781a      	ldrb	r2, [r3, #0]
  104760:	3a01      	subs	r2, #1
  104762:	b2d2      	uxtb	r2, r2
  104764:	701a      	strb	r2, [r3, #0]
  104766:	b662      	cpsie	i
  104768:	4b0a      	ldr	r3, [pc, #40]	; (104794 <rt_pop_req+0xc0>)
  10476a:	789b      	ldrb	r3, [r3, #2]
  10476c:	2b00      	cmp	r3, #0
  10476e:	d1c0      	bne.n	1046f2 <rt_pop_req+0x1e>
  104770:	4b08      	ldr	r3, [pc, #32]	; (104794 <rt_pop_req+0xc0>)
  104772:	9a03      	ldr	r2, [sp, #12]
  104774:	b2d2      	uxtb	r2, r2
  104776:	705a      	strb	r2, [r3, #1]
  104778:	4808      	ldr	r0, [pc, #32]	; (10479c <rt_pop_req+0xc8>)
  10477a:	f7ff fa5b 	bl	103c34 <rt_get_first>
  10477e:	9000      	str	r0, [sp, #0]
  104780:	9800      	ldr	r0, [sp, #0]
  104782:	f000 f8ed 	bl	104960 <rt_switch_req>
  104786:	bf00      	nop
  104788:	b005      	add	sp, #20
  10478a:	f85d fb04 	ldr.w	pc, [sp], #4
  10478e:	bf00      	nop
  104790:	3fff4880 	.word	0x3fff4880
  104794:	3fff48c0 	.word	0x3fff48c0
  104798:	3fff48c2 	.word	0x3fff48c2
  10479c:	3fff484c 	.word	0x3fff484c

001047a0 <os_tick_init>:
  1047a0:	b508      	push	{r3, lr}
  1047a2:	f7ff ff65 	bl	104670 <rt_systick_init>
  1047a6:	f04f 33ff 	mov.w	r3, #4294967295
  1047aa:	4618      	mov	r0, r3
  1047ac:	bd08      	pop	{r3, pc}
  1047ae:	bf00      	nop

001047b0 <os_tick_irqack>:
  1047b0:	bf00      	nop
  1047b2:	4770      	bx	lr

001047b4 <rt_systick>:
  1047b4:	b500      	push	{lr}
  1047b6:	b083      	sub	sp, #12
  1047b8:	4b0f      	ldr	r3, [pc, #60]	; (1047f8 <rt_systick+0x44>)
  1047ba:	681b      	ldr	r3, [r3, #0]
  1047bc:	2201      	movs	r2, #1
  1047be:	705a      	strb	r2, [r3, #1]
  1047c0:	4b0d      	ldr	r3, [pc, #52]	; (1047f8 <rt_systick+0x44>)
  1047c2:	681b      	ldr	r3, [r3, #0]
  1047c4:	4618      	mov	r0, r3
  1047c6:	f7ff fa61 	bl	103c8c <rt_put_rdy_first>
  1047ca:	f000 fbf1 	bl	104fb0 <rt_chk_robin>
  1047ce:	4b0b      	ldr	r3, [pc, #44]	; (1047fc <rt_systick+0x48>)
  1047d0:	681b      	ldr	r3, [r3, #0]
  1047d2:	3301      	adds	r3, #1
  1047d4:	4a09      	ldr	r2, [pc, #36]	; (1047fc <rt_systick+0x48>)
  1047d6:	6013      	str	r3, [r2, #0]
  1047d8:	f7ff faf2 	bl	103dc0 <rt_dec_dly>
  1047dc:	f7fe febe 	bl	10355c <sysTimerTick>
  1047e0:	4807      	ldr	r0, [pc, #28]	; (104800 <rt_systick+0x4c>)
  1047e2:	f7ff fa27 	bl	103c34 <rt_get_first>
  1047e6:	9001      	str	r0, [sp, #4]
  1047e8:	9801      	ldr	r0, [sp, #4]
  1047ea:	f000 f8b9 	bl	104960 <rt_switch_req>
  1047ee:	bf00      	nop
  1047f0:	b003      	add	sp, #12
  1047f2:	f85d fb04 	ldr.w	pc, [sp], #4
  1047f6:	bf00      	nop
  1047f8:	3fff4880 	.word	0x3fff4880
  1047fc:	3fff48bc 	.word	0x3fff48bc
  104800:	3fff484c 	.word	0x3fff484c

00104804 <rt_stk_check>:
  104804:	b508      	push	{r3, lr}
  104806:	4b0c      	ldr	r3, [pc, #48]	; (104838 <rt_stk_check+0x34>)
  104808:	681b      	ldr	r3, [r3, #0]
  10480a:	78db      	ldrb	r3, [r3, #3]
  10480c:	2b01      	cmp	r3, #1
  10480e:	d011      	beq.n	104834 <rt_stk_check+0x30>
  104810:	4b09      	ldr	r3, [pc, #36]	; (104838 <rt_stk_check+0x34>)
  104812:	681b      	ldr	r3, [r3, #0]
  104814:	6a9b      	ldr	r3, [r3, #40]	; 0x28
  104816:	4a08      	ldr	r2, [pc, #32]	; (104838 <rt_stk_check+0x34>)
  104818:	6812      	ldr	r2, [r2, #0]
  10481a:	6ad2      	ldr	r2, [r2, #44]	; 0x2c
  10481c:	4293      	cmp	r3, r2
  10481e:	d306      	bcc.n	10482e <rt_stk_check+0x2a>
  104820:	4b05      	ldr	r3, [pc, #20]	; (104838 <rt_stk_check+0x34>)
  104822:	681b      	ldr	r3, [r3, #0]
  104824:	6adb      	ldr	r3, [r3, #44]	; 0x2c
  104826:	681b      	ldr	r3, [r3, #0]
  104828:	4a04      	ldr	r2, [pc, #16]	; (10483c <rt_stk_check+0x38>)
  10482a:	4293      	cmp	r3, r2
  10482c:	d002      	beq.n	104834 <rt_stk_check+0x30>
  10482e:	2001      	movs	r0, #1
  104830:	f000 fa5e 	bl	104cf0 <os_error>
  104834:	bf00      	nop
  104836:	bd08      	pop	{r3, pc}
  104838:	3fff4880 	.word	0x3fff4880
  10483c:	e25a2ea5 	.word	0xe25a2ea5

00104840 <rt_svc_init>:
  104840:	b084      	sub	sp, #16
  104842:	4a1a      	ldr	r2, [pc, #104]	; (1048ac <rt_svc_init+0x6c>)
  104844:	4b19      	ldr	r3, [pc, #100]	; (1048ac <rt_svc_init+0x6c>)
  104846:	681b      	ldr	r3, [r3, #0]
  104848:	f443 037f 	orr.w	r3, r3, #16711680	; 0xff0000
  10484c:	6013      	str	r3, [r2, #0]
  10484e:	4b17      	ldr	r3, [pc, #92]	; (1048ac <rt_svc_init+0x6c>)
  104850:	681b      	ldr	r3, [r3, #0]
  104852:	021b      	lsls	r3, r3, #8
  104854:	f003 437f 	and.w	r3, r3, #4278190080	; 0xff000000
  104858:	43db      	mvns	r3, r3
  10485a:	9301      	str	r3, [sp, #4]
  10485c:	9b01      	ldr	r3, [sp, #4]
  10485e:	fab3 f383 	clz	r3, r3
  104862:	f88d 3003 	strb.w	r3, [sp, #3]
  104866:	f89d 3003 	ldrb.w	r3, [sp, #3]
  10486a:	f1c3 0308 	rsb	r3, r3, #8
  10486e:	9303      	str	r3, [sp, #12]
  104870:	4b0f      	ldr	r3, [pc, #60]	; (1048b0 <rt_svc_init+0x70>)
  104872:	681b      	ldr	r3, [r3, #0]
  104874:	0a1b      	lsrs	r3, r3, #8
  104876:	f003 0307 	and.w	r3, r3, #7
  10487a:	9302      	str	r3, [sp, #8]
  10487c:	9a02      	ldr	r2, [sp, #8]
  10487e:	9b03      	ldr	r3, [sp, #12]
  104880:	429a      	cmp	r2, r3
  104882:	db02      	blt.n	10488a <rt_svc_init+0x4a>
  104884:	9b02      	ldr	r3, [sp, #8]
  104886:	3301      	adds	r3, #1
  104888:	9303      	str	r3, [sp, #12]
  10488a:	490a      	ldr	r1, [pc, #40]	; (1048b4 <rt_svc_init+0x74>)
  10488c:	f06f 7280 	mvn.w	r2, #16777216	; 0x1000000
  104890:	9b03      	ldr	r3, [sp, #12]
  104892:	fa02 f303 	lsl.w	r3, r2, r3
  104896:	f003 427f 	and.w	r2, r3, #4278190080	; 0xff000000
  10489a:	4b06      	ldr	r3, [pc, #24]	; (1048b4 <rt_svc_init+0x74>)
  10489c:	681b      	ldr	r3, [r3, #0]
  10489e:	f023 437f 	bic.w	r3, r3, #4278190080	; 0xff000000
  1048a2:	4313      	orrs	r3, r2
  1048a4:	600b      	str	r3, [r1, #0]
  1048a6:	bf00      	nop
  1048a8:	b004      	add	sp, #16
  1048aa:	4770      	bx	lr
  1048ac:	e000ed20 	.word	0xe000ed20
  1048b0:	e000ed0c 	.word	0xe000ed0c
  1048b4:	e000ed1c 	.word	0xe000ed1c

001048b8 <rt_get_TID>:
  1048b8:	b082      	sub	sp, #8
  1048ba:	2301      	movs	r3, #1
  1048bc:	9301      	str	r3, [sp, #4]
  1048be:	e00b      	b.n	1048d8 <rt_get_TID+0x20>
  1048c0:	9b01      	ldr	r3, [sp, #4]
  1048c2:	3b01      	subs	r3, #1
  1048c4:	4a09      	ldr	r2, [pc, #36]	; (1048ec <rt_get_TID+0x34>)
  1048c6:	f852 3023 	ldr.w	r3, [r2, r3, lsl #2]
  1048ca:	2b00      	cmp	r3, #0
  1048cc:	d101      	bne.n	1048d2 <rt_get_TID+0x1a>
  1048ce:	9b01      	ldr	r3, [sp, #4]
  1048d0:	e009      	b.n	1048e6 <rt_get_TID+0x2e>
  1048d2:	9b01      	ldr	r3, [sp, #4]
  1048d4:	3301      	adds	r3, #1
  1048d6:	9301      	str	r3, [sp, #4]
  1048d8:	4b05      	ldr	r3, [pc, #20]	; (1048f0 <rt_get_TID+0x38>)
  1048da:	881b      	ldrh	r3, [r3, #0]
  1048dc:	461a      	mov	r2, r3
  1048de:	9b01      	ldr	r3, [sp, #4]
  1048e0:	429a      	cmp	r2, r3
  1048e2:	d2ed      	bcs.n	1048c0 <rt_get_TID+0x8>
  1048e4:	2300      	movs	r3, #0
  1048e6:	4618      	mov	r0, r3
  1048e8:	b002      	add	sp, #8
  1048ea:	4770      	bx	lr
  1048ec:	3fff516c 	.word	0x3fff516c
  1048f0:	0010dfaa 	.word	0x0010dfaa

001048f4 <rt_init_context>:
  1048f4:	b500      	push	{lr}
  1048f6:	b085      	sub	sp, #20
  1048f8:	9003      	str	r0, [sp, #12]
  1048fa:	460b      	mov	r3, r1
  1048fc:	9201      	str	r2, [sp, #4]
  1048fe:	f88d 300b 	strb.w	r3, [sp, #11]
  104902:	9b03      	ldr	r3, [sp, #12]
  104904:	2200      	movs	r2, #0
  104906:	701a      	strb	r2, [r3, #0]
  104908:	9b03      	ldr	r3, [sp, #12]
  10490a:	2201      	movs	r2, #1
  10490c:	705a      	strb	r2, [r3, #1]
  10490e:	9b03      	ldr	r3, [sp, #12]
  104910:	f89d 200b 	ldrb.w	r2, [sp, #11]
  104914:	709a      	strb	r2, [r3, #2]
  104916:	9b03      	ldr	r3, [sp, #12]
  104918:	2200      	movs	r2, #0
  10491a:	605a      	str	r2, [r3, #4]
  10491c:	9b03      	ldr	r3, [sp, #12]
  10491e:	2200      	movs	r2, #0
  104920:	609a      	str	r2, [r3, #8]
  104922:	9b03      	ldr	r3, [sp, #12]
  104924:	2200      	movs	r2, #0
  104926:	60da      	str	r2, [r3, #12]
  104928:	9b03      	ldr	r3, [sp, #12]
  10492a:	2200      	movs	r2, #0
  10492c:	611a      	str	r2, [r3, #16]
  10492e:	9b03      	ldr	r3, [sp, #12]
  104930:	2200      	movs	r2, #0
  104932:	829a      	strh	r2, [r3, #20]
  104934:	9b03      	ldr	r3, [sp, #12]
  104936:	2200      	movs	r2, #0
  104938:	82da      	strh	r2, [r3, #22]
  10493a:	9b03      	ldr	r3, [sp, #12]
  10493c:	2200      	movs	r2, #0
  10493e:	831a      	strh	r2, [r3, #24]
  104940:	9b03      	ldr	r3, [sp, #12]
  104942:	2200      	movs	r2, #0
  104944:	835a      	strh	r2, [r3, #26]
  104946:	9b03      	ldr	r3, [sp, #12]
  104948:	2200      	movs	r2, #0
  10494a:	f883 2020 	strb.w	r2, [r3, #32]
  10494e:	9901      	ldr	r1, [sp, #4]
  104950:	9803      	ldr	r0, [sp, #12]
  104952:	f000 faab 	bl	104eac <rt_init_stack>
  104956:	bf00      	nop
  104958:	b005      	add	sp, #20
  10495a:	f85d fb04 	ldr.w	pc, [sp], #4
  10495e:	bf00      	nop

00104960 <rt_switch_req>:
  104960:	b082      	sub	sp, #8
  104962:	9001      	str	r0, [sp, #4]
  104964:	4a04      	ldr	r2, [pc, #16]	; (104978 <rt_switch_req+0x18>)
  104966:	9b01      	ldr	r3, [sp, #4]
  104968:	6053      	str	r3, [r2, #4]
  10496a:	9b01      	ldr	r3, [sp, #4]
  10496c:	2202      	movs	r2, #2
  10496e:	705a      	strb	r2, [r3, #1]
  104970:	bf00      	nop
  104972:	b002      	add	sp, #8
  104974:	4770      	bx	lr
  104976:	bf00      	nop
  104978:	3fff4880 	.word	0x3fff4880

0010497c <rt_dispatch>:
  10497c:	b500      	push	{lr}
  10497e:	b083      	sub	sp, #12
  104980:	9001      	str	r0, [sp, #4]
  104982:	9b01      	ldr	r3, [sp, #4]
  104984:	2b00      	cmp	r3, #0
  104986:	d107      	bne.n	104998 <rt_dispatch+0x1c>
  104988:	4813      	ldr	r0, [pc, #76]	; (1049d8 <rt_dispatch+0x5c>)
  10498a:	f7ff f953 	bl	103c34 <rt_get_first>
  10498e:	9001      	str	r0, [sp, #4]
  104990:	9801      	ldr	r0, [sp, #4]
  104992:	f7ff ffe5 	bl	104960 <rt_switch_req>
  104996:	e01a      	b.n	1049ce <rt_dispatch+0x52>
  104998:	9b01      	ldr	r3, [sp, #4]
  10499a:	789a      	ldrb	r2, [r3, #2]
  10499c:	4b0f      	ldr	r3, [pc, #60]	; (1049dc <rt_dispatch+0x60>)
  10499e:	681b      	ldr	r3, [r3, #0]
  1049a0:	789b      	ldrb	r3, [r3, #2]
  1049a2:	429a      	cmp	r2, r3
  1049a4:	d90c      	bls.n	1049c0 <rt_dispatch+0x44>
  1049a6:	4b0d      	ldr	r3, [pc, #52]	; (1049dc <rt_dispatch+0x60>)
  1049a8:	681b      	ldr	r3, [r3, #0]
  1049aa:	4618      	mov	r0, r3
  1049ac:	f7ff f96e 	bl	103c8c <rt_put_rdy_first>
  1049b0:	4b0a      	ldr	r3, [pc, #40]	; (1049dc <rt_dispatch+0x60>)
  1049b2:	681b      	ldr	r3, [r3, #0]
  1049b4:	2201      	movs	r2, #1
  1049b6:	705a      	strb	r2, [r3, #1]
  1049b8:	9801      	ldr	r0, [sp, #4]
  1049ba:	f7ff ffd1 	bl	104960 <rt_switch_req>
  1049be:	e006      	b.n	1049ce <rt_dispatch+0x52>
  1049c0:	9b01      	ldr	r3, [sp, #4]
  1049c2:	2201      	movs	r2, #1
  1049c4:	705a      	strb	r2, [r3, #1]
  1049c6:	9901      	ldr	r1, [sp, #4]
  1049c8:	4803      	ldr	r0, [pc, #12]	; (1049d8 <rt_dispatch+0x5c>)
  1049ca:	f7ff f8f1 	bl	103bb0 <rt_put_prio>
  1049ce:	bf00      	nop
  1049d0:	b003      	add	sp, #12
  1049d2:	f85d fb04 	ldr.w	pc, [sp], #4
  1049d6:	bf00      	nop
  1049d8:	3fff484c 	.word	0x3fff484c
  1049dc:	3fff4880 	.word	0x3fff4880

001049e0 <rt_block>:
  1049e0:	b500      	push	{lr}
  1049e2:	b085      	sub	sp, #20
  1049e4:	4603      	mov	r3, r0
  1049e6:	460a      	mov	r2, r1
  1049e8:	f8ad 3006 	strh.w	r3, [sp, #6]
  1049ec:	4613      	mov	r3, r2
  1049ee:	f88d 3005 	strb.w	r3, [sp, #5]
  1049f2:	f8bd 3006 	ldrh.w	r3, [sp, #6]
  1049f6:	2b00      	cmp	r3, #0
  1049f8:	d019      	beq.n	104a2e <rt_block+0x4e>
  1049fa:	f8bd 3006 	ldrh.w	r3, [sp, #6]
  1049fe:	f64f 72ff 	movw	r2, #65535	; 0xffff
  104a02:	4293      	cmp	r3, r2
  104a04:	d007      	beq.n	104a16 <rt_block+0x36>
  104a06:	4b0c      	ldr	r3, [pc, #48]	; (104a38 <rt_block+0x58>)
  104a08:	681b      	ldr	r3, [r3, #0]
  104a0a:	f8bd 2006 	ldrh.w	r2, [sp, #6]
  104a0e:	4611      	mov	r1, r2
  104a10:	4618      	mov	r0, r3
  104a12:	f7ff f973 	bl	103cfc <rt_put_dly>
  104a16:	4b08      	ldr	r3, [pc, #32]	; (104a38 <rt_block+0x58>)
  104a18:	681b      	ldr	r3, [r3, #0]
  104a1a:	f89d 2005 	ldrb.w	r2, [sp, #5]
  104a1e:	705a      	strb	r2, [r3, #1]
  104a20:	4806      	ldr	r0, [pc, #24]	; (104a3c <rt_block+0x5c>)
  104a22:	f7ff f907 	bl	103c34 <rt_get_first>
  104a26:	9003      	str	r0, [sp, #12]
  104a28:	9803      	ldr	r0, [sp, #12]
  104a2a:	f7ff ff99 	bl	104960 <rt_switch_req>
  104a2e:	bf00      	nop
  104a30:	b005      	add	sp, #20
  104a32:	f85d fb04 	ldr.w	pc, [sp], #4
  104a36:	bf00      	nop
  104a38:	3fff4880 	.word	0x3fff4880
  104a3c:	3fff484c 	.word	0x3fff484c

00104a40 <rt_tsk_self>:
  104a40:	4b05      	ldr	r3, [pc, #20]	; (104a58 <rt_tsk_self+0x18>)
  104a42:	681b      	ldr	r3, [r3, #0]
  104a44:	2b00      	cmp	r3, #0
  104a46:	d101      	bne.n	104a4c <rt_tsk_self+0xc>
  104a48:	2300      	movs	r3, #0
  104a4a:	e002      	b.n	104a52 <rt_tsk_self+0x12>
  104a4c:	4b02      	ldr	r3, [pc, #8]	; (104a58 <rt_tsk_self+0x18>)
  104a4e:	681b      	ldr	r3, [r3, #0]
  104a50:	78db      	ldrb	r3, [r3, #3]
  104a52:	4618      	mov	r0, r3
  104a54:	4770      	bx	lr
  104a56:	bf00      	nop
  104a58:	3fff4880 	.word	0x3fff4880

00104a5c <rt_tsk_prio>:
  104a5c:	b500      	push	{lr}
  104a5e:	b085      	sub	sp, #20
  104a60:	9001      	str	r0, [sp, #4]
  104a62:	460b      	mov	r3, r1
  104a64:	f88d 3003 	strb.w	r3, [sp, #3]
  104a68:	9b01      	ldr	r3, [sp, #4]
  104a6a:	2b00      	cmp	r3, #0
  104a6c:	d11c      	bne.n	104aa8 <rt_tsk_prio+0x4c>
  104a6e:	4b27      	ldr	r3, [pc, #156]	; (104b0c <rt_tsk_prio+0xb0>)
  104a70:	681b      	ldr	r3, [r3, #0]
  104a72:	f89d 2003 	ldrb.w	r2, [sp, #3]
  104a76:	709a      	strb	r2, [r3, #2]
  104a78:	e000      	b.n	104a7c <rt_tsk_prio+0x20>
  104a7a:	bf00      	nop
  104a7c:	4b24      	ldr	r3, [pc, #144]	; (104b10 <rt_tsk_prio+0xb4>)
  104a7e:	685b      	ldr	r3, [r3, #4]
  104a80:	789b      	ldrb	r3, [r3, #2]
  104a82:	f89d 2003 	ldrb.w	r2, [sp, #3]
  104a86:	429a      	cmp	r2, r3
  104a88:	d20c      	bcs.n	104aa4 <rt_tsk_prio+0x48>
  104a8a:	4b20      	ldr	r3, [pc, #128]	; (104b0c <rt_tsk_prio+0xb0>)
  104a8c:	681b      	ldr	r3, [r3, #0]
  104a8e:	4619      	mov	r1, r3
  104a90:	481f      	ldr	r0, [pc, #124]	; (104b10 <rt_tsk_prio+0xb4>)
  104a92:	f7ff f88d 	bl	103bb0 <rt_put_prio>
  104a96:	4b1d      	ldr	r3, [pc, #116]	; (104b0c <rt_tsk_prio+0xb0>)
  104a98:	681b      	ldr	r3, [r3, #0]
  104a9a:	2201      	movs	r2, #1
  104a9c:	705a      	strb	r2, [r3, #1]
  104a9e:	2000      	movs	r0, #0
  104aa0:	f7ff ff6c 	bl	10497c <rt_dispatch>
  104aa4:	2300      	movs	r3, #0
  104aa6:	e02c      	b.n	104b02 <rt_tsk_prio+0xa6>
  104aa8:	4b1a      	ldr	r3, [pc, #104]	; (104b14 <rt_tsk_prio+0xb8>)
  104aaa:	881b      	ldrh	r3, [r3, #0]
  104aac:	461a      	mov	r2, r3
  104aae:	9b01      	ldr	r3, [sp, #4]
  104ab0:	429a      	cmp	r2, r3
  104ab2:	d306      	bcc.n	104ac2 <rt_tsk_prio+0x66>
  104ab4:	9b01      	ldr	r3, [sp, #4]
  104ab6:	3b01      	subs	r3, #1
  104ab8:	4a17      	ldr	r2, [pc, #92]	; (104b18 <rt_tsk_prio+0xbc>)
  104aba:	f852 3023 	ldr.w	r3, [r2, r3, lsl #2]
  104abe:	2b00      	cmp	r3, #0
  104ac0:	d101      	bne.n	104ac6 <rt_tsk_prio+0x6a>
  104ac2:	23ff      	movs	r3, #255	; 0xff
  104ac4:	e01d      	b.n	104b02 <rt_tsk_prio+0xa6>
  104ac6:	9b01      	ldr	r3, [sp, #4]
  104ac8:	3b01      	subs	r3, #1
  104aca:	4a13      	ldr	r2, [pc, #76]	; (104b18 <rt_tsk_prio+0xbc>)
  104acc:	f852 3023 	ldr.w	r3, [r2, r3, lsl #2]
  104ad0:	9303      	str	r3, [sp, #12]
  104ad2:	9b03      	ldr	r3, [sp, #12]
  104ad4:	f89d 2003 	ldrb.w	r2, [sp, #3]
  104ad8:	709a      	strb	r2, [r3, #2]
  104ada:	4b0c      	ldr	r3, [pc, #48]	; (104b0c <rt_tsk_prio+0xb0>)
  104adc:	681a      	ldr	r2, [r3, #0]
  104ade:	9b03      	ldr	r3, [sp, #12]
  104ae0:	429a      	cmp	r2, r3
  104ae2:	d0ca      	beq.n	104a7a <rt_tsk_prio+0x1e>
  104ae4:	9803      	ldr	r0, [sp, #12]
  104ae6:	f7ff f8e3 	bl	103cb0 <rt_resort_prio>
  104aea:	9b03      	ldr	r3, [sp, #12]
  104aec:	785b      	ldrb	r3, [r3, #1]
  104aee:	2b01      	cmp	r3, #1
  104af0:	d106      	bne.n	104b00 <rt_tsk_prio+0xa4>
  104af2:	4807      	ldr	r0, [pc, #28]	; (104b10 <rt_tsk_prio+0xb4>)
  104af4:	f7ff f89e 	bl	103c34 <rt_get_first>
  104af8:	9003      	str	r0, [sp, #12]
  104afa:	9803      	ldr	r0, [sp, #12]
  104afc:	f7ff ff3e 	bl	10497c <rt_dispatch>
  104b00:	2300      	movs	r3, #0
  104b02:	4618      	mov	r0, r3
  104b04:	b005      	add	sp, #20
  104b06:	f85d fb04 	ldr.w	pc, [sp], #4
  104b0a:	bf00      	nop
  104b0c:	3fff4880 	.word	0x3fff4880
  104b10:	3fff484c 	.word	0x3fff484c
  104b14:	0010dfaa 	.word	0x0010dfaa
  104b18:	3fff516c 	.word	0x3fff516c

00104b1c <rt_tsk_delete>:
  104b1c:	b510      	push	{r4, lr}
  104b1e:	b084      	sub	sp, #16
  104b20:	9001      	str	r0, [sp, #4]
  104b22:	9b01      	ldr	r3, [sp, #4]
  104b24:	2b00      	cmp	r3, #0
  104b26:	d006      	beq.n	104b36 <rt_tsk_delete+0x1a>
  104b28:	4b26      	ldr	r3, [pc, #152]	; (104bc4 <rt_tsk_delete+0xa8>)
  104b2a:	681b      	ldr	r3, [r3, #0]
  104b2c:	78db      	ldrb	r3, [r3, #3]
  104b2e:	461a      	mov	r2, r3
  104b30:	9b01      	ldr	r3, [sp, #4]
  104b32:	429a      	cmp	r2, r3
  104b34:	d11e      	bne.n	104b74 <rt_tsk_delete+0x58>
  104b36:	4b23      	ldr	r3, [pc, #140]	; (104bc4 <rt_tsk_delete+0xa8>)
  104b38:	681b      	ldr	r3, [r3, #0]
  104b3a:	2200      	movs	r2, #0
  104b3c:	705a      	strb	r2, [r3, #1]
  104b3e:	4b21      	ldr	r3, [pc, #132]	; (104bc4 <rt_tsk_delete+0xa8>)
  104b40:	681c      	ldr	r4, [r3, #0]
  104b42:	f000 f918 	bl	104d76 <rt_get_PSP>
  104b46:	4603      	mov	r3, r0
  104b48:	62a3      	str	r3, [r4, #40]	; 0x28
  104b4a:	f7ff fe5b 	bl	104804 <rt_stk_check>
  104b4e:	4b1d      	ldr	r3, [pc, #116]	; (104bc4 <rt_tsk_delete+0xa8>)
  104b50:	681b      	ldr	r3, [r3, #0]
  104b52:	78db      	ldrb	r3, [r3, #3]
  104b54:	3b01      	subs	r3, #1
  104b56:	4a1c      	ldr	r2, [pc, #112]	; (104bc8 <rt_tsk_delete+0xac>)
  104b58:	2100      	movs	r1, #0
  104b5a:	f842 1023 	str.w	r1, [r2, r3, lsl #2]
  104b5e:	4b19      	ldr	r3, [pc, #100]	; (104bc4 <rt_tsk_delete+0xa8>)
  104b60:	681b      	ldr	r3, [r3, #0]
  104b62:	2200      	movs	r2, #0
  104b64:	62da      	str	r2, [r3, #44]	; 0x2c
  104b66:	4b17      	ldr	r3, [pc, #92]	; (104bc4 <rt_tsk_delete+0xa8>)
  104b68:	2200      	movs	r2, #0
  104b6a:	601a      	str	r2, [r3, #0]
  104b6c:	2000      	movs	r0, #0
  104b6e:	f7ff ff05 	bl	10497c <rt_dispatch>
  104b72:	e023      	b.n	104bbc <rt_tsk_delete+0xa0>
  104b74:	4b15      	ldr	r3, [pc, #84]	; (104bcc <rt_tsk_delete+0xb0>)
  104b76:	881b      	ldrh	r3, [r3, #0]
  104b78:	461a      	mov	r2, r3
  104b7a:	9b01      	ldr	r3, [sp, #4]
  104b7c:	429a      	cmp	r2, r3
  104b7e:	d306      	bcc.n	104b8e <rt_tsk_delete+0x72>
  104b80:	9b01      	ldr	r3, [sp, #4]
  104b82:	3b01      	subs	r3, #1
  104b84:	4a10      	ldr	r2, [pc, #64]	; (104bc8 <rt_tsk_delete+0xac>)
  104b86:	f852 3023 	ldr.w	r3, [r2, r3, lsl #2]
  104b8a:	2b00      	cmp	r3, #0
  104b8c:	d101      	bne.n	104b92 <rt_tsk_delete+0x76>
  104b8e:	23ff      	movs	r3, #255	; 0xff
  104b90:	e015      	b.n	104bbe <rt_tsk_delete+0xa2>
  104b92:	9b01      	ldr	r3, [sp, #4]
  104b94:	3b01      	subs	r3, #1
  104b96:	4a0c      	ldr	r2, [pc, #48]	; (104bc8 <rt_tsk_delete+0xac>)
  104b98:	f852 3023 	ldr.w	r3, [r2, r3, lsl #2]
  104b9c:	9303      	str	r3, [sp, #12]
  104b9e:	9803      	ldr	r0, [sp, #12]
  104ba0:	f7ff f974 	bl	103e8c <rt_rmv_list>
  104ba4:	9803      	ldr	r0, [sp, #12]
  104ba6:	f7ff f99f 	bl	103ee8 <rt_rmv_dly>
  104baa:	9b01      	ldr	r3, [sp, #4]
  104bac:	3b01      	subs	r3, #1
  104bae:	4a06      	ldr	r2, [pc, #24]	; (104bc8 <rt_tsk_delete+0xac>)
  104bb0:	2100      	movs	r1, #0
  104bb2:	f842 1023 	str.w	r1, [r2, r3, lsl #2]
  104bb6:	9b03      	ldr	r3, [sp, #12]
  104bb8:	2200      	movs	r2, #0
  104bba:	62da      	str	r2, [r3, #44]	; 0x2c
  104bbc:	2300      	movs	r3, #0
  104bbe:	4618      	mov	r0, r3
  104bc0:	b004      	add	sp, #16
  104bc2:	bd10      	pop	{r4, pc}
  104bc4:	3fff4880 	.word	0x3fff4880
  104bc8:	3fff516c 	.word	0x3fff516c
  104bcc:	0010dfaa 	.word	0x0010dfaa

00104bd0 <rt_sys_init>:
  104bd0:	b500      	push	{lr}
  104bd2:	b083      	sub	sp, #12
  104bd4:	2300      	movs	r3, #0
  104bd6:	9301      	str	r3, [sp, #4]
  104bd8:	e007      	b.n	104bea <rt_sys_init+0x1a>
  104bda:	4a24      	ldr	r2, [pc, #144]	; (104c6c <rt_sys_init+0x9c>)
  104bdc:	9b01      	ldr	r3, [sp, #4]
  104bde:	2100      	movs	r1, #0
  104be0:	f842 1023 	str.w	r1, [r2, r3, lsl #2]
  104be4:	9b01      	ldr	r3, [sp, #4]
  104be6:	3301      	adds	r3, #1
  104be8:	9301      	str	r3, [sp, #4]
  104bea:	4b21      	ldr	r3, [pc, #132]	; (104c70 <rt_sys_init+0xa0>)
  104bec:	881b      	ldrh	r3, [r3, #0]
  104bee:	461a      	mov	r2, r3
  104bf0:	9b01      	ldr	r3, [sp, #4]
  104bf2:	429a      	cmp	r2, r3
  104bf4:	d8f1      	bhi.n	104bda <rt_sys_init+0xa>
  104bf6:	4b1f      	ldr	r3, [pc, #124]	; (104c74 <rt_sys_init+0xa4>)
  104bf8:	22ff      	movs	r2, #255	; 0xff
  104bfa:	70da      	strb	r2, [r3, #3]
  104bfc:	4b1e      	ldr	r3, [pc, #120]	; (104c78 <rt_sys_init+0xa8>)
  104bfe:	881b      	ldrh	r3, [r3, #0]
  104c00:	461a      	mov	r2, r3
  104c02:	4b1c      	ldr	r3, [pc, #112]	; (104c74 <rt_sys_init+0xa4>)
  104c04:	625a      	str	r2, [r3, #36]	; 0x24
  104c06:	4b1b      	ldr	r3, [pc, #108]	; (104c74 <rt_sys_init+0xa4>)
  104c08:	4a1c      	ldr	r2, [pc, #112]	; (104c7c <rt_sys_init+0xac>)
  104c0a:	62da      	str	r2, [r3, #44]	; 0x2c
  104c0c:	4a1c      	ldr	r2, [pc, #112]	; (104c80 <rt_sys_init+0xb0>)
  104c0e:	2100      	movs	r1, #0
  104c10:	4818      	ldr	r0, [pc, #96]	; (104c74 <rt_sys_init+0xa4>)
  104c12:	f7ff fe6f 	bl	1048f4 <rt_init_context>
  104c16:	4b1b      	ldr	r3, [pc, #108]	; (104c84 <rt_sys_init+0xb4>)
  104c18:	2204      	movs	r2, #4
  104c1a:	701a      	strb	r2, [r3, #0]
  104c1c:	4b19      	ldr	r3, [pc, #100]	; (104c84 <rt_sys_init+0xb4>)
  104c1e:	2200      	movs	r2, #0
  104c20:	605a      	str	r2, [r3, #4]
  104c22:	4b19      	ldr	r3, [pc, #100]	; (104c88 <rt_sys_init+0xb8>)
  104c24:	2204      	movs	r2, #4
  104c26:	701a      	strb	r2, [r3, #0]
  104c28:	4b17      	ldr	r3, [pc, #92]	; (104c88 <rt_sys_init+0xb8>)
  104c2a:	2200      	movs	r2, #0
  104c2c:	60da      	str	r2, [r3, #12]
  104c2e:	4b16      	ldr	r3, [pc, #88]	; (104c88 <rt_sys_init+0xb8>)
  104c30:	2200      	movs	r2, #0
  104c32:	611a      	str	r2, [r3, #16]
  104c34:	4b14      	ldr	r3, [pc, #80]	; (104c88 <rt_sys_init+0xb8>)
  104c36:	2200      	movs	r2, #0
  104c38:	829a      	strh	r2, [r3, #20]
  104c3a:	4b14      	ldr	r3, [pc, #80]	; (104c8c <rt_sys_init+0xbc>)
  104c3c:	4a0d      	ldr	r2, [pc, #52]	; (104c74 <rt_sys_init+0xa4>)
  104c3e:	601a      	str	r2, [r3, #0]
  104c40:	4b12      	ldr	r3, [pc, #72]	; (104c8c <rt_sys_init+0xbc>)
  104c42:	681b      	ldr	r3, [r3, #0]
  104c44:	2202      	movs	r2, #2
  104c46:	705a      	strb	r2, [r3, #1]
  104c48:	4b11      	ldr	r3, [pc, #68]	; (104c90 <rt_sys_init+0xc0>)
  104c4a:	2200      	movs	r2, #0
  104c4c:	701a      	strb	r2, [r3, #0]
  104c4e:	4b10      	ldr	r3, [pc, #64]	; (104c90 <rt_sys_init+0xc0>)
  104c50:	2200      	movs	r2, #0
  104c52:	705a      	strb	r2, [r3, #1]
  104c54:	4b0e      	ldr	r3, [pc, #56]	; (104c90 <rt_sys_init+0xc0>)
  104c56:	4a0f      	ldr	r2, [pc, #60]	; (104c94 <rt_sys_init+0xc4>)
  104c58:	7812      	ldrb	r2, [r2, #0]
  104c5a:	70da      	strb	r2, [r3, #3]
  104c5c:	f000 f99a 	bl	104f94 <rt_init_robin>
  104c60:	f7ff fdee 	bl	104840 <rt_svc_init>
  104c64:	bf00      	nop
  104c66:	b003      	add	sp, #12
  104c68:	f85d fb04 	ldr.w	pc, [sp], #4
  104c6c:	3fff516c 	.word	0x3fff516c
  104c70:	0010dfaa 	.word	0x0010dfaa
  104c74:	3fff4888 	.word	0x3fff4888
  104c78:	0010dfbc 	.word	0x0010dfbc
  104c7c:	3fff5184 	.word	0x3fff5184
  104c80:	00104ce5 	.word	0x00104ce5
  104c84:	3fff484c 	.word	0x3fff484c
  104c88:	3fff4864 	.word	0x3fff4864
  104c8c:	3fff4880 	.word	0x3fff4880
  104c90:	3fff48c0 	.word	0x3fff48c0
  104c94:	0010dfbe 	.word	0x0010dfbe

00104c98 <rt_sys_start>:
  104c98:	b508      	push	{r3, lr}
  104c9a:	f7ff fd81 	bl	1047a0 <os_tick_init>
  104c9e:	4602      	mov	r2, r0
  104ca0:	4b0f      	ldr	r3, [pc, #60]	; (104ce0 <rt_sys_start+0x48>)
  104ca2:	601a      	str	r2, [r3, #0]
  104ca4:	4b0e      	ldr	r3, [pc, #56]	; (104ce0 <rt_sys_start+0x48>)
  104ca6:	681b      	ldr	r3, [r3, #0]
  104ca8:	2b00      	cmp	r3, #0
  104caa:	db17      	blt.n	104cdc <rt_sys_start+0x44>
  104cac:	4b0c      	ldr	r3, [pc, #48]	; (104ce0 <rt_sys_start+0x48>)
  104cae:	681b      	ldr	r3, [r3, #0]
  104cb0:	f103 4360 	add.w	r3, r3, #3758096384	; 0xe0000000
  104cb4:	f503 4364 	add.w	r3, r3, #58368	; 0xe400
  104cb8:	22ff      	movs	r2, #255	; 0xff
  104cba:	701a      	strb	r2, [r3, #0]
  104cbc:	4b08      	ldr	r3, [pc, #32]	; (104ce0 <rt_sys_start+0x48>)
  104cbe:	681b      	ldr	r3, [r3, #0]
  104cc0:	115b      	asrs	r3, r3, #5
  104cc2:	009b      	lsls	r3, r3, #2
  104cc4:	f103 4360 	add.w	r3, r3, #3758096384	; 0xe0000000
  104cc8:	f503 4361 	add.w	r3, r3, #57600	; 0xe100
  104ccc:	4a04      	ldr	r2, [pc, #16]	; (104ce0 <rt_sys_start+0x48>)
  104cce:	6812      	ldr	r2, [r2, #0]
  104cd0:	f002 021f 	and.w	r2, r2, #31
  104cd4:	2101      	movs	r1, #1
  104cd6:	fa01 f202 	lsl.w	r2, r1, r2
  104cda:	601a      	str	r2, [r3, #0]
  104cdc:	bf00      	nop
  104cde:	bd08      	pop	{r3, pc}
  104ce0:	3fff487c 	.word	0x3fff487c

00104ce4 <os_idle_demon>:
  104ce4:	b508      	push	{r3, lr}
  104ce6:	f000 f8d9 	bl	104e9c <rtos_idle_loop>
  104cea:	bf00      	nop
  104cec:	bd08      	pop	{r3, pc}
  104cee:	bf00      	nop

00104cf0 <os_error>:
  104cf0:	b500      	push	{lr}
  104cf2:	b083      	sub	sp, #12
  104cf4:	9001      	str	r0, [sp, #4]
  104cf6:	f000 f9a1 	bl	10503c <mbed_die>
  104cfa:	bf00      	nop
  104cfc:	b003      	add	sp, #12
  104cfe:	f85d fb04 	ldr.w	pc, [sp], #4
  104d02:	bf00      	nop

00104d04 <sysThreadError>:
  104d04:	b500      	push	{lr}
  104d06:	b083      	sub	sp, #12
  104d08:	9001      	str	r0, [sp, #4]
  104d0a:	9b01      	ldr	r3, [sp, #4]
  104d0c:	2b00      	cmp	r3, #0
  104d0e:	d001      	beq.n	104d14 <sysThreadError+0x10>
  104d10:	f000 f994 	bl	10503c <mbed_die>
  104d14:	bf00      	nop
  104d16:	b003      	add	sp, #12
  104d18:	f85d fb04 	ldr.w	pc, [sp], #4

00104d1c <set_main_stack>:
  104d1c:	4903      	ldr	r1, [pc, #12]	; (104d2c <set_main_stack+0x10>)
  104d1e:	4b04      	ldr	r3, [pc, #16]	; (104d30 <set_main_stack+0x14>)
  104d20:	4a04      	ldr	r2, [pc, #16]	; (104d34 <set_main_stack+0x18>)
  104d22:	1a5b      	subs	r3, r3, r1
  104d24:	6093      	str	r3, [r2, #8]
  104d26:	60d1      	str	r1, [r2, #12]
  104d28:	4770      	bx	lr
  104d2a:	bf00      	nop
  104d2c:	3fff53a0 	.word	0x3fff53a0
  104d30:	3fffd400 	.word	0x3fffd400
  104d34:	3fff4050 	.word	0x3fff4050

00104d38 <software_init_hook>:
  104d38:	2000      	movs	r0, #0
  104d3a:	2100      	movs	r1, #0
  104d3c:	4604      	mov	r4, r0
  104d3e:	460d      	mov	r5, r1
  104d40:	4809      	ldr	r0, [pc, #36]	; (104d68 <software_init_hook+0x30>)
  104d42:	f003 fd27 	bl	108794 <atexit>
  104d46:	f004 f8a1 	bl	108e8c <__libc_init_array>
  104d4a:	4620      	mov	r0, r4
  104d4c:	4629      	mov	r1, r5
  104d4e:	f7fe fa3b 	bl	1031c8 <osKernelInitialize>
  104d52:	f7ff ffe3 	bl	104d1c <set_main_stack>
  104d56:	4805      	ldr	r0, [pc, #20]	; (104d6c <software_init_hook+0x34>)
  104d58:	2100      	movs	r1, #0
  104d5a:	f7fe fb4f 	bl	1033fc <osThreadCreate>
  104d5e:	f7fe fa53 	bl	103208 <osKernelStart>
  104d62:	f003 fd31 	bl	1087c8 <exit>
  104d66:	0000      	.short	0x0000
  104d68:	00108bed 	.word	0x00108bed
  104d6c:	3fff4050 	.word	0x3fff4050

00104d70 <rt_set_PSP>:
  104d70:	f380 8809 	msr	PSP, r0
  104d74:	4770      	bx	lr

00104d76 <rt_get_PSP>:
  104d76:	f3ef 8009 	mrs	r0, PSP
  104d7a:	4770      	bx	lr

00104d7c <os_set_env>:
  104d7c:	4668      	mov	r0, sp
  104d7e:	f380 8809 	msr	PSP, r0
  104d82:	483f      	ldr	r0, [pc, #252]	; (104e80 <OS_Tick_Handler+0xc>)
  104d84:	7800      	ldrb	r0, [r0, #0]
  104d86:	07c0      	lsls	r0, r0, #31
  104d88:	bf14      	ite	ne
  104d8a:	2002      	movne	r0, #2
  104d8c:	2003      	moveq	r0, #3
  104d8e:	f380 8814 	msr	CONTROL, r0
  104d92:	4770      	bx	lr

00104d94 <_alloc_box>:
  104d94:	f8df c0ec 	ldr.w	r12, [pc, #236]	; 104e84 <OS_Tick_Handler+0x10>
  104d98:	f3ef 8305 	mrs	r3, IPSR
  104d9c:	061b      	lsls	r3, r3, #24
  104d9e:	bf18      	it	ne
  104da0:	4760      	bxne	r12
  104da2:	f3ef 8314 	mrs	r3, CONTROL
  104da6:	07db      	lsls	r3, r3, #31
  104da8:	bf08      	it	eq
  104daa:	4760      	bxeq	r12
  104dac:	df00      	svc	0
  104dae:	4770      	bx	lr

00104db0 <_free_box>:
  104db0:	f8df c0d4 	ldr.w	r12, [pc, #212]	; 104e88 <OS_Tick_Handler+0x14>
  104db4:	f3ef 8305 	mrs	r3, IPSR
  104db8:	061b      	lsls	r3, r3, #24
  104dba:	bf18      	it	ne
  104dbc:	4760      	bxne	r12
  104dbe:	f3ef 8314 	mrs	r3, CONTROL
  104dc2:	07db      	lsls	r3, r3, #31
  104dc4:	bf08      	it	eq
  104dc6:	4760      	bxeq	r12
  104dc8:	df00      	svc	0
  104dca:	4770      	bx	lr

00104dcc <SVC_Handler>:
  104dcc:	f3ef 8009 	mrs	r0, PSP
  104dd0:	6981      	ldr	r1, [r0, #24]
  104dd2:	f811 1c02 	ldrb.w	r1, [r1, #-2]
  104dd6:	b9f1      	cbnz	r1, 104e16 <SVC_User>
  104dd8:	e890 100f 	ldmia.w	r0, {r0, r1, r2, r3, r12}
  104ddc:	47e0      	blx	r12
  104dde:	f3ef 8c09 	mrs	r12, PSP
  104de2:	e88c 0007 	stmia.w	r12, {r0, r1, r2}
  104de6:	4b29      	ldr	r3, [pc, #164]	; (104e8c <OS_Tick_Handler+0x18>)
  104de8:	e893 0006 	ldmia.w	r3, {r1, r2}
  104dec:	4291      	cmp	r1, r2
  104dee:	d00f      	beq.n	104e10 <SVC_Exit>
  104df0:	b139      	cbz	r1, 104e02 <SVC_Next>
  104df2:	e92c 0ff0 	stmdb	r12!, {r4, r5, r6, r7, r8, r9, r10, r11}
  104df6:	f8c1 c028 	str.w	r12, [r1, #40]	; 0x28
  104dfa:	b40c      	push	{r2, r3}
  104dfc:	f7ff fd02 	bl	104804 <rt_stk_check>
  104e00:	bc0c      	pop	{r2, r3}

00104e02 <SVC_Next>:
  104e02:	601a      	str	r2, [r3, #0]
  104e04:	f8d2 c028 	ldr.w	r12, [r2, #40]	; 0x28
  104e08:	e8bc 0ff0 	ldmia.w	r12!, {r4, r5, r6, r7, r8, r9, r10, r11}
  104e0c:	f38c 8809 	msr	PSP, r12

00104e10 <SVC_Exit>:
  104e10:	f06f 0e02 	mvn.w	lr, #2
  104e14:	4770      	bx	lr

00104e16 <SVC_User>:
  104e16:	b510      	push	{r4, lr}
  104e18:	4a1d      	ldr	r2, [pc, #116]	; (104e90 <OS_Tick_Handler+0x1c>)
  104e1a:	6812      	ldr	r2, [r2, #0]
  104e1c:	4291      	cmp	r1, r2
  104e1e:	d809      	bhi.n	104e34 <SVC_Done>
  104e20:	4c1c      	ldr	r4, [pc, #112]	; (104e94 <OS_Tick_Handler+0x20>)
  104e22:	f854 4021 	ldr.w	r4, [r4, r1, lsl #2]
  104e26:	e890 100f 	ldmia.w	r0, {r0, r1, r2, r3, r12}
  104e2a:	47a0      	blx	r4
  104e2c:	f3ef 8c09 	mrs	r12, PSP
  104e30:	e88c 000f 	stmia.w	r12, {r0, r1, r2, r3}

00104e34 <SVC_Done>:
  104e34:	bd10      	pop	{r4, pc}

00104e36 <PendSV_Handler>:
  104e36:	f7ff fc4d 	bl	1046d4 <rt_pop_req>

00104e3a <Sys_Switch>:
  104e3a:	4b14      	ldr	r3, [pc, #80]	; (104e8c <OS_Tick_Handler+0x18>)
  104e3c:	e893 0006 	ldmia.w	r3, {r1, r2}
  104e40:	4291      	cmp	r1, r2
  104e42:	d010      	beq.n	104e66 <Sys_Exit>
  104e44:	f3ef 8c09 	mrs	r12, PSP
  104e48:	e92c 0ff0 	stmdb	r12!, {r4, r5, r6, r7, r8, r9, r10, r11}
  104e4c:	f8c1 c028 	str.w	r12, [r1, #40]	; 0x28
  104e50:	b40c      	push	{r2, r3}
  104e52:	f7ff fcd7 	bl	104804 <rt_stk_check>
  104e56:	bc0c      	pop	{r2, r3}
  104e58:	601a      	str	r2, [r3, #0]
  104e5a:	f8d2 c028 	ldr.w	r12, [r2, #40]	; 0x28
  104e5e:	e8bc 0ff0 	ldmia.w	r12!, {r4, r5, r6, r7, r8, r9, r10, r11}
  104e62:	f38c 8809 	msr	PSP, r12

00104e66 <Sys_Exit>:
  104e66:	f06f 0e02 	mvn.w	lr, #2
  104e6a:	4770      	bx	lr

00104e6c <SysTick_Handler>:
  104e6c:	f7ff fca2 	bl	1047b4 <rt_systick>
  104e70:	f7ff bfe3 	b.w	104e3a <Sys_Switch>

00104e74 <OS_Tick_Handler>:
  104e74:	f7ff fc9c 	bl	1047b0 <os_tick_irqack>
  104e78:	f7ff fc9c 	bl	1047b4 <rt_systick>
  104e7c:	f7ff bfdd 	b.w	104e3a <Sys_Switch>
  104e80:	0010dfb4 	.word	0x0010dfb4
  104e84:	00104315 	.word	0x00104315
  104e88:	0010434d 	.word	0x0010434d
  104e8c:	3fff4880 	.word	0x3fff4880
  104e90:	00000000 	.word	0x00000000
  104e94:	fffffffc 	.word	0xfffffffc

00104e98 <default_idle_hook>:
  104e98:	bf00      	nop
  104e9a:	4770      	bx	lr

00104e9c <rtos_idle_loop>:
  104e9c:	b508      	push	{r3, lr}
  104e9e:	4b02      	ldr	r3, [pc, #8]	; (104ea8 <rtos_idle_loop+0xc>)
  104ea0:	681b      	ldr	r3, [r3, #0]
  104ea2:	4798      	blx	r3
  104ea4:	e7fb      	b.n	104e9e <rtos_idle_loop+0x2>
  104ea6:	bf00      	nop
  104ea8:	3fff4094 	.word	0x3fff4094

00104eac <rt_init_stack>:
  104eac:	b086      	sub	sp, #24
  104eae:	9001      	str	r0, [sp, #4]
  104eb0:	9100      	str	r1, [sp, #0]
  104eb2:	9b01      	ldr	r3, [sp, #4]
  104eb4:	6a5b      	ldr	r3, [r3, #36]	; 0x24
  104eb6:	089b      	lsrs	r3, r3, #2
  104eb8:	9303      	str	r3, [sp, #12]
  104eba:	9b01      	ldr	r3, [sp, #4]
  104ebc:	6ada      	ldr	r2, [r3, #44]	; 0x2c
  104ebe:	9b03      	ldr	r3, [sp, #12]
  104ec0:	009b      	lsls	r3, r3, #2
  104ec2:	4413      	add	r3, r2
  104ec4:	9305      	str	r3, [sp, #20]
  104ec6:	9b05      	ldr	r3, [sp, #20]
  104ec8:	f003 0304 	and.w	r3, r3, #4
  104ecc:	2b00      	cmp	r3, #0
  104ece:	d002      	beq.n	104ed6 <rt_init_stack+0x2a>
  104ed0:	9b05      	ldr	r3, [sp, #20]
  104ed2:	3b04      	subs	r3, #4
  104ed4:	9305      	str	r3, [sp, #20]
  104ed6:	9b05      	ldr	r3, [sp, #20]
  104ed8:	3b40      	subs	r3, #64	; 0x40
  104eda:	9305      	str	r3, [sp, #20]
  104edc:	9b05      	ldr	r3, [sp, #20]
  104ede:	333c      	adds	r3, #60	; 0x3c
  104ee0:	f04f 7280 	mov.w	r2, #16777216	; 0x1000000
  104ee4:	601a      	str	r2, [r3, #0]
  104ee6:	9b05      	ldr	r3, [sp, #20]
  104ee8:	3338      	adds	r3, #56	; 0x38
  104eea:	9a00      	ldr	r2, [sp, #0]
  104eec:	601a      	str	r2, [r3, #0]
  104eee:	2300      	movs	r3, #0
  104ef0:	9304      	str	r3, [sp, #16]
  104ef2:	e008      	b.n	104f06 <rt_init_stack+0x5a>
  104ef4:	9b04      	ldr	r3, [sp, #16]
  104ef6:	009b      	lsls	r3, r3, #2
  104ef8:	9a05      	ldr	r2, [sp, #20]
  104efa:	4413      	add	r3, r2
  104efc:	2200      	movs	r2, #0
  104efe:	601a      	str	r2, [r3, #0]
  104f00:	9b04      	ldr	r3, [sp, #16]
  104f02:	3301      	adds	r3, #1
  104f04:	9304      	str	r3, [sp, #16]
  104f06:	9b04      	ldr	r3, [sp, #16]
  104f08:	2b0d      	cmp	r3, #13
  104f0a:	d9f3      	bls.n	104ef4 <rt_init_stack+0x48>
  104f0c:	9b05      	ldr	r3, [sp, #20]
  104f0e:	3320      	adds	r3, #32
  104f10:	9a01      	ldr	r2, [sp, #4]
  104f12:	69d2      	ldr	r2, [r2, #28]
  104f14:	601a      	str	r2, [r3, #0]
  104f16:	9a05      	ldr	r2, [sp, #20]
  104f18:	9b01      	ldr	r3, [sp, #4]
  104f1a:	629a      	str	r2, [r3, #40]	; 0x28
  104f1c:	9b01      	ldr	r3, [sp, #4]
  104f1e:	9a00      	ldr	r2, [sp, #0]
  104f20:	631a      	str	r2, [r3, #48]	; 0x30
  104f22:	9b01      	ldr	r3, [sp, #4]
  104f24:	78db      	ldrb	r3, [r3, #3]
  104f26:	2b01      	cmp	r3, #1
  104f28:	d003      	beq.n	104f32 <rt_init_stack+0x86>
  104f2a:	9b01      	ldr	r3, [sp, #4]
  104f2c:	6adb      	ldr	r3, [r3, #44]	; 0x2c
  104f2e:	4a02      	ldr	r2, [pc, #8]	; (104f38 <rt_init_stack+0x8c>)
  104f30:	601a      	str	r2, [r3, #0]
  104f32:	bf00      	nop
  104f34:	b006      	add	sp, #24
  104f36:	4770      	bx	lr
  104f38:	e25a2ea5 	.word	0xe25a2ea5

00104f3c <rt_ret_regs>:
  104f3c:	b082      	sub	sp, #8
  104f3e:	9001      	str	r0, [sp, #4]
  104f40:	9b01      	ldr	r3, [sp, #4]
  104f42:	6a9b      	ldr	r3, [r3, #40]	; 0x28
  104f44:	3320      	adds	r3, #32
  104f46:	4618      	mov	r0, r3
  104f48:	b002      	add	sp, #8
  104f4a:	4770      	bx	lr

00104f4c <rt_ret_val>:
  104f4c:	b500      	push	{lr}
  104f4e:	b085      	sub	sp, #20
  104f50:	9001      	str	r0, [sp, #4]
  104f52:	9100      	str	r1, [sp, #0]
  104f54:	9801      	ldr	r0, [sp, #4]
  104f56:	f7ff fff1 	bl	104f3c <rt_ret_regs>
  104f5a:	9003      	str	r0, [sp, #12]
  104f5c:	9b03      	ldr	r3, [sp, #12]
  104f5e:	9a00      	ldr	r2, [sp, #0]
  104f60:	601a      	str	r2, [r3, #0]
  104f62:	bf00      	nop
  104f64:	b005      	add	sp, #20
  104f66:	f85d fb04 	ldr.w	pc, [sp], #4
  104f6a:	bf00      	nop

00104f6c <rt_ret_val2>:
  104f6c:	b500      	push	{lr}
  104f6e:	b087      	sub	sp, #28
  104f70:	9003      	str	r0, [sp, #12]
  104f72:	9102      	str	r1, [sp, #8]
  104f74:	9201      	str	r2, [sp, #4]
  104f76:	9803      	ldr	r0, [sp, #12]
  104f78:	f7ff ffe0 	bl	104f3c <rt_ret_regs>
  104f7c:	9005      	str	r0, [sp, #20]
  104f7e:	9b05      	ldr	r3, [sp, #20]
  104f80:	9a02      	ldr	r2, [sp, #8]
  104f82:	601a      	str	r2, [r3, #0]
  104f84:	9b05      	ldr	r3, [sp, #20]
  104f86:	3304      	adds	r3, #4
  104f88:	9a01      	ldr	r2, [sp, #4]
  104f8a:	601a      	str	r2, [r3, #0]
  104f8c:	bf00      	nop
  104f8e:	b007      	add	sp, #28
  104f90:	f85d fb04 	ldr.w	pc, [sp], #4

00104f94 <rt_init_robin>:
  104f94:	4b04      	ldr	r3, [pc, #16]	; (104fa8 <rt_init_robin+0x14>)
  104f96:	2200      	movs	r2, #0
  104f98:	601a      	str	r2, [r3, #0]
  104f9a:	4b04      	ldr	r3, [pc, #16]	; (104fac <rt_init_robin+0x18>)
  104f9c:	681b      	ldr	r3, [r3, #0]
  104f9e:	b29a      	uxth	r2, r3
  104fa0:	4b01      	ldr	r3, [pc, #4]	; (104fa8 <rt_init_robin+0x14>)
  104fa2:	80da      	strh	r2, [r3, #6]
  104fa4:	bf00      	nop
  104fa6:	4770      	bx	lr
  104fa8:	3fff5384 	.word	0x3fff5384
  104fac:	0010dfac 	.word	0x0010dfac

00104fb0 <rt_chk_robin>:
  104fb0:	b500      	push	{lr}
  104fb2:	b083      	sub	sp, #12
  104fb4:	4b15      	ldr	r3, [pc, #84]	; (10500c <rt_chk_robin+0x5c>)
  104fb6:	681a      	ldr	r2, [r3, #0]
  104fb8:	4b15      	ldr	r3, [pc, #84]	; (105010 <rt_chk_robin+0x60>)
  104fba:	685b      	ldr	r3, [r3, #4]
  104fbc:	429a      	cmp	r2, r3
  104fbe:	d00e      	beq.n	104fde <rt_chk_robin+0x2e>
  104fc0:	4b13      	ldr	r3, [pc, #76]	; (105010 <rt_chk_robin+0x60>)
  104fc2:	685b      	ldr	r3, [r3, #4]
  104fc4:	4a11      	ldr	r2, [pc, #68]	; (10500c <rt_chk_robin+0x5c>)
  104fc6:	6013      	str	r3, [r2, #0]
  104fc8:	4b12      	ldr	r3, [pc, #72]	; (105014 <rt_chk_robin+0x64>)
  104fca:	681b      	ldr	r3, [r3, #0]
  104fcc:	b29a      	uxth	r2, r3
  104fce:	4b0f      	ldr	r3, [pc, #60]	; (10500c <rt_chk_robin+0x5c>)
  104fd0:	88db      	ldrh	r3, [r3, #6]
  104fd2:	4413      	add	r3, r2
  104fd4:	b29b      	uxth	r3, r3
  104fd6:	3b01      	subs	r3, #1
  104fd8:	b29a      	uxth	r2, r3
  104fda:	4b0c      	ldr	r3, [pc, #48]	; (10500c <rt_chk_robin+0x5c>)
  104fdc:	809a      	strh	r2, [r3, #4]
  104fde:	4b0b      	ldr	r3, [pc, #44]	; (10500c <rt_chk_robin+0x5c>)
  104fe0:	889b      	ldrh	r3, [r3, #4]
  104fe2:	461a      	mov	r2, r3
  104fe4:	4b0b      	ldr	r3, [pc, #44]	; (105014 <rt_chk_robin+0x64>)
  104fe6:	681b      	ldr	r3, [r3, #0]
  104fe8:	b29b      	uxth	r3, r3
  104fea:	429a      	cmp	r2, r3
  104fec:	d10a      	bne.n	105004 <rt_chk_robin+0x54>
  104fee:	4b07      	ldr	r3, [pc, #28]	; (10500c <rt_chk_robin+0x5c>)
  104ff0:	2200      	movs	r2, #0
  104ff2:	601a      	str	r2, [r3, #0]
  104ff4:	4806      	ldr	r0, [pc, #24]	; (105010 <rt_chk_robin+0x60>)
  104ff6:	f7fe fe1d 	bl	103c34 <rt_get_first>
  104ffa:	9001      	str	r0, [sp, #4]
  104ffc:	9901      	ldr	r1, [sp, #4]
  104ffe:	4804      	ldr	r0, [pc, #16]	; (105010 <rt_chk_robin+0x60>)
  105000:	f7fe fdd6 	bl	103bb0 <rt_put_prio>
  105004:	bf00      	nop
  105006:	b003      	add	sp, #12
  105008:	f85d fb04 	ldr.w	pc, [sp], #4
  10500c:	3fff5384 	.word	0x3fff5384
  105010:	3fff484c 	.word	0x3fff484c
  105014:	3fff48bc 	.word	0x3fff48bc

00105018 <mbed_assert_internal>:
  105018:	b500      	push	{lr}
  10501a:	b085      	sub	sp, #20
  10501c:	9003      	str	r0, [sp, #12]
  10501e:	9102      	str	r1, [sp, #8]
  105020:	9201      	str	r2, [sp, #4]
  105022:	9b01      	ldr	r3, [sp, #4]
  105024:	9a02      	ldr	r2, [sp, #8]
  105026:	9903      	ldr	r1, [sp, #12]
  105028:	4803      	ldr	r0, [pc, #12]	; (105038 <mbed_assert_internal+0x20>)
  10502a:	f000 f811 	bl	105050 <error>
  10502e:	bf00      	nop
  105030:	b005      	add	sp, #20
  105032:	f85d fb04 	ldr.w	pc, [sp], #4
  105036:	bf00      	nop
  105038:	0010dfc0 	.word	0x0010dfc0

0010503c <mbed_die>:
  10503c:	b508      	push	{r3, lr}
  10503e:	b672      	cpsid	i
  105040:	2096      	movs	r0, #150	; 0x96
  105042:	f000 f9f7 	bl	105434 <wait_ms>
  105046:	2096      	movs	r0, #150	; 0x96
  105048:	f000 f9f4 	bl	105434 <wait_ms>
  10504c:	e7f8      	b.n	105040 <mbed_die+0x4>
  10504e:	bf00      	nop

00105050 <error>:
  105050:	b40f      	push	{r0, r1, r2, r3}
  105052:	b508      	push	{r3, lr}
  105054:	2001      	movs	r0, #1
  105056:	f003 fbb7 	bl	1087c8 <exit>
  10505a:	bf00      	nop

0010505c <gpio_write>:
  10505c:	b500      	push	{lr}
  10505e:	b083      	sub	sp, #12
  105060:	9001      	str	r0, [sp, #4]
  105062:	9100      	str	r1, [sp, #0]
  105064:	9b01      	ldr	r3, [sp, #4]
  105066:	681b      	ldr	r3, [r3, #0]
  105068:	f1b3 3fff 	cmp.w	r3, #4294967295
  10506c:	d104      	bne.n	105078 <gpio_write+0x1c>
  10506e:	2224      	movs	r2, #36	; 0x24
  105070:	490e      	ldr	r1, [pc, #56]	; (1050ac <gpio_write+0x50>)
  105072:	480f      	ldr	r0, [pc, #60]	; (1050b0 <gpio_write+0x54>)
  105074:	f7ff ffd0 	bl	105018 <mbed_assert_internal>
  105078:	9b00      	ldr	r3, [sp, #0]
  10507a:	2b00      	cmp	r3, #0
  10507c:	d009      	beq.n	105092 <gpio_write+0x36>
  10507e:	9b01      	ldr	r3, [sp, #4]
  105080:	68db      	ldr	r3, [r3, #12]
  105082:	9a01      	ldr	r2, [sp, #4]
  105084:	68d2      	ldr	r2, [r2, #12]
  105086:	6812      	ldr	r2, [r2, #0]
  105088:	9901      	ldr	r1, [sp, #4]
  10508a:	6809      	ldr	r1, [r1, #0]
  10508c:	430a      	orrs	r2, r1
  10508e:	601a      	str	r2, [r3, #0]
  105090:	e008      	b.n	1050a4 <gpio_write+0x48>
  105092:	9b01      	ldr	r3, [sp, #4]
  105094:	691b      	ldr	r3, [r3, #16]
  105096:	9a01      	ldr	r2, [sp, #4]
  105098:	6912      	ldr	r2, [r2, #16]
  10509a:	6812      	ldr	r2, [r2, #0]
  10509c:	9901      	ldr	r1, [sp, #4]
  10509e:	6809      	ldr	r1, [r1, #0]
  1050a0:	430a      	orrs	r2, r1
  1050a2:	601a      	str	r2, [r3, #0]
  1050a4:	bf00      	nop
  1050a6:	b003      	add	sp, #12
  1050a8:	f85d fb04 	ldr.w	pc, [sp], #4
  1050ac:	0010dff4 	.word	0x0010dff4
  1050b0:	0010e040 	.word	0x0010e040

001050b4 <_gpio_init_in>:
  1050b4:	b500      	push	{lr}
  1050b6:	b085      	sub	sp, #20
  1050b8:	9003      	str	r0, [sp, #12]
  1050ba:	9102      	str	r1, [sp, #8]
  1050bc:	4613      	mov	r3, r2
  1050be:	f88d 3007 	strb.w	r3, [sp, #7]
  1050c2:	9902      	ldr	r1, [sp, #8]
  1050c4:	9803      	ldr	r0, [sp, #12]
  1050c6:	f000 fa7d 	bl	1055c4 <gpio_init>
  1050ca:	9b02      	ldr	r3, [sp, #8]
  1050cc:	f1b3 3fff 	cmp.w	r3, #4294967295
  1050d0:	d009      	beq.n	1050e6 <_gpio_init_in+0x32>
  1050d2:	2100      	movs	r1, #0
  1050d4:	9803      	ldr	r0, [sp, #12]
  1050d6:	f000 fab1 	bl	10563c <gpio_dir>
  1050da:	f89d 3007 	ldrb.w	r3, [sp, #7]
  1050de:	4619      	mov	r1, r3
  1050e0:	9803      	ldr	r0, [sp, #12]
  1050e2:	f000 faa3 	bl	10562c <gpio_mode>
  1050e6:	bf00      	nop
  1050e8:	b005      	add	sp, #20
  1050ea:	f85d fb04 	ldr.w	pc, [sp], #4
  1050ee:	bf00      	nop

001050f0 <PAD_out_Config>:
  1050f0:	b082      	sub	sp, #8
  1050f2:	9001      	str	r0, [sp, #4]
  1050f4:	9b01      	ldr	r3, [sp, #4]
  1050f6:	2b01      	cmp	r3, #1
  1050f8:	d103      	bne.n	105102 <PAD_out_Config+0x12>
  1050fa:	4b2d      	ldr	r3, [pc, #180]	; (1051b0 <PAD_out_Config+0xc0>)
  1050fc:	2205      	movs	r2, #5
  1050fe:	601a      	str	r2, [r3, #0]
  105100:	e052      	b.n	1051a8 <PAD_out_Config+0xb8>
  105102:	9b01      	ldr	r3, [sp, #4]
  105104:	2b02      	cmp	r3, #2
  105106:	d103      	bne.n	105110 <PAD_out_Config+0x20>
  105108:	4b29      	ldr	r3, [pc, #164]	; (1051b0 <PAD_out_Config+0xc0>)
  10510a:	2205      	movs	r2, #5
  10510c:	601a      	str	r2, [r3, #0]
  10510e:	e04b      	b.n	1051a8 <PAD_out_Config+0xb8>
  105110:	9b01      	ldr	r3, [sp, #4]
  105112:	2b10      	cmp	r3, #16
  105114:	d103      	bne.n	10511e <PAD_out_Config+0x2e>
  105116:	4b26      	ldr	r3, [pc, #152]	; (1051b0 <PAD_out_Config+0xc0>)
  105118:	2205      	movs	r2, #5
  10511a:	611a      	str	r2, [r3, #16]
  10511c:	e044      	b.n	1051a8 <PAD_out_Config+0xb8>
  10511e:	9b01      	ldr	r3, [sp, #4]
  105120:	2b20      	cmp	r3, #32
  105122:	d103      	bne.n	10512c <PAD_out_Config+0x3c>
  105124:	4b22      	ldr	r3, [pc, #136]	; (1051b0 <PAD_out_Config+0xc0>)
  105126:	2205      	movs	r2, #5
  105128:	615a      	str	r2, [r3, #20]
  10512a:	e03d      	b.n	1051a8 <PAD_out_Config+0xb8>
  10512c:	9b01      	ldr	r3, [sp, #4]
  10512e:	2b40      	cmp	r3, #64	; 0x40
  105130:	d103      	bne.n	10513a <PAD_out_Config+0x4a>
  105132:	4b1f      	ldr	r3, [pc, #124]	; (1051b0 <PAD_out_Config+0xc0>)
  105134:	2205      	movs	r2, #5
  105136:	619a      	str	r2, [r3, #24]
  105138:	e036      	b.n	1051a8 <PAD_out_Config+0xb8>
  10513a:	9b01      	ldr	r3, [sp, #4]
  10513c:	f5b3 6f00 	cmp.w	r3, #2048	; 0x800
  105140:	d103      	bne.n	10514a <PAD_out_Config+0x5a>
  105142:	4b1b      	ldr	r3, [pc, #108]	; (1051b0 <PAD_out_Config+0xc0>)
  105144:	2205      	movs	r2, #5
  105146:	62da      	str	r2, [r3, #44]	; 0x2c
  105148:	e02e      	b.n	1051a8 <PAD_out_Config+0xb8>
  10514a:	9b01      	ldr	r3, [sp, #4]
  10514c:	f5b3 5f80 	cmp.w	r3, #4096	; 0x1000
  105150:	d103      	bne.n	10515a <PAD_out_Config+0x6a>
  105152:	4b17      	ldr	r3, [pc, #92]	; (1051b0 <PAD_out_Config+0xc0>)
  105154:	2205      	movs	r2, #5
  105156:	631a      	str	r2, [r3, #48]	; 0x30
  105158:	e026      	b.n	1051a8 <PAD_out_Config+0xb8>
  10515a:	9b01      	ldr	r3, [sp, #4]
  10515c:	f5b3 5f00 	cmp.w	r3, #8192	; 0x2000
  105160:	d103      	bne.n	10516a <PAD_out_Config+0x7a>
  105162:	4b13      	ldr	r3, [pc, #76]	; (1051b0 <PAD_out_Config+0xc0>)
  105164:	2205      	movs	r2, #5
  105166:	635a      	str	r2, [r3, #52]	; 0x34
  105168:	e01e      	b.n	1051a8 <PAD_out_Config+0xb8>
  10516a:	9b01      	ldr	r3, [sp, #4]
  10516c:	f5b3 4f80 	cmp.w	r3, #16384	; 0x4000
  105170:	d103      	bne.n	10517a <PAD_out_Config+0x8a>
  105172:	4b0f      	ldr	r3, [pc, #60]	; (1051b0 <PAD_out_Config+0xc0>)
  105174:	2205      	movs	r2, #5
  105176:	639a      	str	r2, [r3, #56]	; 0x38
  105178:	e016      	b.n	1051a8 <PAD_out_Config+0xb8>
  10517a:	9b01      	ldr	r3, [sp, #4]
  10517c:	f5b3 4f00 	cmp.w	r3, #32768	; 0x8000
  105180:	d103      	bne.n	10518a <PAD_out_Config+0x9a>
  105182:	4b0b      	ldr	r3, [pc, #44]	; (1051b0 <PAD_out_Config+0xc0>)
  105184:	2205      	movs	r2, #5
  105186:	63da      	str	r2, [r3, #60]	; 0x3c
  105188:	e00e      	b.n	1051a8 <PAD_out_Config+0xb8>
  10518a:	9b01      	ldr	r3, [sp, #4]
  10518c:	f5b3 3f80 	cmp.w	r3, #65536	; 0x10000
  105190:	d103      	bne.n	10519a <PAD_out_Config+0xaa>
  105192:	4b07      	ldr	r3, [pc, #28]	; (1051b0 <PAD_out_Config+0xc0>)
  105194:	2205      	movs	r2, #5
  105196:	641a      	str	r2, [r3, #64]	; 0x40
  105198:	e006      	b.n	1051a8 <PAD_out_Config+0xb8>
  10519a:	9b01      	ldr	r3, [sp, #4]
  10519c:	f5b3 3f00 	cmp.w	r3, #131072	; 0x20000
  1051a0:	d102      	bne.n	1051a8 <PAD_out_Config+0xb8>
  1051a2:	4b03      	ldr	r3, [pc, #12]	; (1051b0 <PAD_out_Config+0xc0>)
  1051a4:	2205      	movs	r2, #5
  1051a6:	645a      	str	r2, [r3, #68]	; 0x44
  1051a8:	bf00      	nop
  1051aa:	b002      	add	sp, #8
  1051ac:	4770      	bx	lr
  1051ae:	bf00      	nop
  1051b0:	4001c000 	.word	0x4001c000

001051b4 <PAD_Crossbarconfig>:
  1051b4:	b082      	sub	sp, #8
  1051b6:	9001      	str	r0, [sp, #4]
  1051b8:	9b01      	ldr	r3, [sp, #4]
  1051ba:	2b01      	cmp	r3, #1
  1051bc:	d103      	bne.n	1051c6 <PAD_Crossbarconfig+0x12>
  1051be:	4b2d      	ldr	r3, [pc, #180]	; (105274 <PAD_Crossbarconfig+0xc0>)
  1051c0:	2200      	movs	r2, #0
  1051c2:	601a      	str	r2, [r3, #0]
  1051c4:	e052      	b.n	10526c <PAD_Crossbarconfig+0xb8>
  1051c6:	9b01      	ldr	r3, [sp, #4]
  1051c8:	2b02      	cmp	r3, #2
  1051ca:	d103      	bne.n	1051d4 <PAD_Crossbarconfig+0x20>
  1051cc:	4b29      	ldr	r3, [pc, #164]	; (105274 <PAD_Crossbarconfig+0xc0>)
  1051ce:	2200      	movs	r2, #0
  1051d0:	605a      	str	r2, [r3, #4]
  1051d2:	e04b      	b.n	10526c <PAD_Crossbarconfig+0xb8>
  1051d4:	9b01      	ldr	r3, [sp, #4]
  1051d6:	2b10      	cmp	r3, #16
  1051d8:	d103      	bne.n	1051e2 <PAD_Crossbarconfig+0x2e>
  1051da:	4b26      	ldr	r3, [pc, #152]	; (105274 <PAD_Crossbarconfig+0xc0>)
  1051dc:	2200      	movs	r2, #0
  1051de:	611a      	str	r2, [r3, #16]
  1051e0:	e044      	b.n	10526c <PAD_Crossbarconfig+0xb8>
  1051e2:	9b01      	ldr	r3, [sp, #4]
  1051e4:	2b20      	cmp	r3, #32
  1051e6:	d103      	bne.n	1051f0 <PAD_Crossbarconfig+0x3c>
  1051e8:	4b22      	ldr	r3, [pc, #136]	; (105274 <PAD_Crossbarconfig+0xc0>)
  1051ea:	2200      	movs	r2, #0
  1051ec:	615a      	str	r2, [r3, #20]
  1051ee:	e03d      	b.n	10526c <PAD_Crossbarconfig+0xb8>
  1051f0:	9b01      	ldr	r3, [sp, #4]
  1051f2:	2b40      	cmp	r3, #64	; 0x40
  1051f4:	d103      	bne.n	1051fe <PAD_Crossbarconfig+0x4a>
  1051f6:	4b1f      	ldr	r3, [pc, #124]	; (105274 <PAD_Crossbarconfig+0xc0>)
  1051f8:	2200      	movs	r2, #0
  1051fa:	619a      	str	r2, [r3, #24]
  1051fc:	e036      	b.n	10526c <PAD_Crossbarconfig+0xb8>
  1051fe:	9b01      	ldr	r3, [sp, #4]
  105200:	f5b3 6f00 	cmp.w	r3, #2048	; 0x800
  105204:	d103      	bne.n	10520e <PAD_Crossbarconfig+0x5a>
  105206:	4b1b      	ldr	r3, [pc, #108]	; (105274 <PAD_Crossbarconfig+0xc0>)
  105208:	2200      	movs	r2, #0
  10520a:	62da      	str	r2, [r3, #44]	; 0x2c
  10520c:	e02e      	b.n	10526c <PAD_Crossbarconfig+0xb8>
  10520e:	9b01      	ldr	r3, [sp, #4]
  105210:	f5b3 5f80 	cmp.w	r3, #4096	; 0x1000
  105214:	d103      	bne.n	10521e <PAD_Crossbarconfig+0x6a>
  105216:	4b17      	ldr	r3, [pc, #92]	; (105274 <PAD_Crossbarconfig+0xc0>)
  105218:	2200      	movs	r2, #0
  10521a:	631a      	str	r2, [r3, #48]	; 0x30
  10521c:	e026      	b.n	10526c <PAD_Crossbarconfig+0xb8>
  10521e:	9b01      	ldr	r3, [sp, #4]
  105220:	f5b3 5f00 	cmp.w	r3, #8192	; 0x2000
  105224:	d103      	bne.n	10522e <PAD_Crossbarconfig+0x7a>
  105226:	4b13      	ldr	r3, [pc, #76]	; (105274 <PAD_Crossbarconfig+0xc0>)
  105228:	2200      	movs	r2, #0
  10522a:	635a      	str	r2, [r3, #52]	; 0x34
  10522c:	e01e      	b.n	10526c <PAD_Crossbarconfig+0xb8>
  10522e:	9b01      	ldr	r3, [sp, #4]
  105230:	f5b3 4f80 	cmp.w	r3, #16384	; 0x4000
  105234:	d103      	bne.n	10523e <PAD_Crossbarconfig+0x8a>
  105236:	4b0f      	ldr	r3, [pc, #60]	; (105274 <PAD_Crossbarconfig+0xc0>)
  105238:	2200      	movs	r2, #0
  10523a:	639a      	str	r2, [r3, #56]	; 0x38
  10523c:	e016      	b.n	10526c <PAD_Crossbarconfig+0xb8>
  10523e:	9b01      	ldr	r3, [sp, #4]
  105240:	f5b3 4f00 	cmp.w	r3, #32768	; 0x8000
  105244:	d103      	bne.n	10524e <PAD_Crossbarconfig+0x9a>
  105246:	4b0b      	ldr	r3, [pc, #44]	; (105274 <PAD_Crossbarconfig+0xc0>)
  105248:	2200      	movs	r2, #0
  10524a:	63da      	str	r2, [r3, #60]	; 0x3c
  10524c:	e00e      	b.n	10526c <PAD_Crossbarconfig+0xb8>
  10524e:	9b01      	ldr	r3, [sp, #4]
  105250:	f5b3 3f80 	cmp.w	r3, #65536	; 0x10000
  105254:	d103      	bne.n	10525e <PAD_Crossbarconfig+0xaa>
  105256:	4b07      	ldr	r3, [pc, #28]	; (105274 <PAD_Crossbarconfig+0xc0>)
  105258:	2200      	movs	r2, #0
  10525a:	641a      	str	r2, [r3, #64]	; 0x40
  10525c:	e006      	b.n	10526c <PAD_Crossbarconfig+0xb8>
  10525e:	9b01      	ldr	r3, [sp, #4]
  105260:	f5b3 3f00 	cmp.w	r3, #131072	; 0x20000
  105264:	d102      	bne.n	10526c <PAD_Crossbarconfig+0xb8>
  105266:	4b03      	ldr	r3, [pc, #12]	; (105274 <PAD_Crossbarconfig+0xc0>)
  105268:	2200      	movs	r2, #0
  10526a:	645a      	str	r2, [r3, #68]	; 0x44
  10526c:	bf00      	nop
  10526e:	b002      	add	sp, #8
  105270:	4770      	bx	lr
  105272:	bf00      	nop
  105274:	40010000 	.word	0x40010000

00105278 <_gpio_init_out>:
  105278:	b500      	push	{lr}
  10527a:	b085      	sub	sp, #20
  10527c:	9003      	str	r0, [sp, #12]
  10527e:	9102      	str	r1, [sp, #8]
  105280:	9300      	str	r3, [sp, #0]
  105282:	4613      	mov	r3, r2
  105284:	f88d 3007 	strb.w	r3, [sp, #7]
  105288:	9902      	ldr	r1, [sp, #8]
  10528a:	9803      	ldr	r0, [sp, #12]
  10528c:	f000 f99a 	bl	1055c4 <gpio_init>
  105290:	9b02      	ldr	r3, [sp, #8]
  105292:	f1b3 3fff 	cmp.w	r3, #4294967295
  105296:	d02b      	beq.n	1052f0 <_gpio_init_out+0x78>
  105298:	4a17      	ldr	r2, [pc, #92]	; (1052f8 <_gpio_init_out+0x80>)
  10529a:	4b17      	ldr	r3, [pc, #92]	; (1052f8 <_gpio_init_out+0x80>)
  10529c:	691b      	ldr	r3, [r3, #16]
  10529e:	f023 5380 	bic.w	r3, r3, #268435456	; 0x10000000
  1052a2:	6113      	str	r3, [r2, #16]
  1052a4:	9802      	ldr	r0, [sp, #8]
  1052a6:	f7ff ff23 	bl	1050f0 <PAD_out_Config>
  1052aa:	4a13      	ldr	r2, [pc, #76]	; (1052f8 <_gpio_init_out+0x80>)
  1052ac:	4b12      	ldr	r3, [pc, #72]	; (1052f8 <_gpio_init_out+0x80>)
  1052ae:	691b      	ldr	r3, [r3, #16]
  1052b0:	f043 5380 	orr.w	r3, r3, #268435456	; 0x10000000
  1052b4:	6113      	str	r3, [r2, #16]
  1052b6:	4a10      	ldr	r2, [pc, #64]	; (1052f8 <_gpio_init_out+0x80>)
  1052b8:	4b0f      	ldr	r3, [pc, #60]	; (1052f8 <_gpio_init_out+0x80>)
  1052ba:	691b      	ldr	r3, [r3, #16]
  1052bc:	f423 3380 	bic.w	r3, r3, #65536	; 0x10000
  1052c0:	6113      	str	r3, [r2, #16]
  1052c2:	9802      	ldr	r0, [sp, #8]
  1052c4:	f7ff ff76 	bl	1051b4 <PAD_Crossbarconfig>
  1052c8:	4a0b      	ldr	r2, [pc, #44]	; (1052f8 <_gpio_init_out+0x80>)
  1052ca:	4b0b      	ldr	r3, [pc, #44]	; (1052f8 <_gpio_init_out+0x80>)
  1052cc:	691b      	ldr	r3, [r3, #16]
  1052ce:	f443 3380 	orr.w	r3, r3, #65536	; 0x10000
  1052d2:	6113      	str	r3, [r2, #16]
  1052d4:	9900      	ldr	r1, [sp, #0]
  1052d6:	9803      	ldr	r0, [sp, #12]
  1052d8:	f7ff fec0 	bl	10505c <gpio_write>
  1052dc:	2101      	movs	r1, #1
  1052de:	9803      	ldr	r0, [sp, #12]
  1052e0:	f000 f9ac 	bl	10563c <gpio_dir>
  1052e4:	f89d 3007 	ldrb.w	r3, [sp, #7]
  1052e8:	4619      	mov	r1, r3
  1052ea:	9803      	ldr	r0, [sp, #12]
  1052ec:	f000 f99e 	bl	10562c <gpio_mode>
  1052f0:	bf00      	nop
  1052f2:	b005      	add	sp, #20
  1052f4:	f85d fb04 	ldr.w	pc, [sp], #4
  1052f8:	4001b000 	.word	0x4001b000

001052fc <gpio_init_in>:
  1052fc:	b500      	push	{lr}
  1052fe:	b083      	sub	sp, #12
  105300:	9001      	str	r0, [sp, #4]
  105302:	9100      	str	r1, [sp, #0]
  105304:	2203      	movs	r2, #3
  105306:	9900      	ldr	r1, [sp, #0]
  105308:	9801      	ldr	r0, [sp, #4]
  10530a:	f000 f805 	bl	105318 <gpio_init_in_ex>
  10530e:	bf00      	nop
  105310:	b003      	add	sp, #12
  105312:	f85d fb04 	ldr.w	pc, [sp], #4
  105316:	bf00      	nop

00105318 <gpio_init_in_ex>:
  105318:	b500      	push	{lr}
  10531a:	b085      	sub	sp, #20
  10531c:	9003      	str	r0, [sp, #12]
  10531e:	9102      	str	r1, [sp, #8]
  105320:	4613      	mov	r3, r2
  105322:	f88d 3007 	strb.w	r3, [sp, #7]
  105326:	f89d 3007 	ldrb.w	r3, [sp, #7]
  10532a:	461a      	mov	r2, r3
  10532c:	9902      	ldr	r1, [sp, #8]
  10532e:	9803      	ldr	r0, [sp, #12]
  105330:	f7ff fec0 	bl	1050b4 <_gpio_init_in>
  105334:	bf00      	nop
  105336:	b005      	add	sp, #20
  105338:	f85d fb04 	ldr.w	pc, [sp], #4

0010533c <gpio_init_out>:
  10533c:	b500      	push	{lr}
  10533e:	b083      	sub	sp, #12
  105340:	9001      	str	r0, [sp, #4]
  105342:	9100      	str	r1, [sp, #0]
  105344:	2200      	movs	r2, #0
  105346:	9900      	ldr	r1, [sp, #0]
  105348:	9801      	ldr	r0, [sp, #4]
  10534a:	f000 f805 	bl	105358 <gpio_init_out_ex>
  10534e:	bf00      	nop
  105350:	b003      	add	sp, #12
  105352:	f85d fb04 	ldr.w	pc, [sp], #4
  105356:	bf00      	nop

00105358 <gpio_init_out_ex>:
  105358:	b500      	push	{lr}
  10535a:	b085      	sub	sp, #20
  10535c:	9003      	str	r0, [sp, #12]
  10535e:	9102      	str	r1, [sp, #8]
  105360:	9201      	str	r2, [sp, #4]
  105362:	9b01      	ldr	r3, [sp, #4]
  105364:	2202      	movs	r2, #2
  105366:	9902      	ldr	r1, [sp, #8]
  105368:	9803      	ldr	r0, [sp, #12]
  10536a:	f7ff ff85 	bl	105278 <_gpio_init_out>
  10536e:	bf00      	nop
  105370:	b005      	add	sp, #20
  105372:	f85d fb04 	ldr.w	pc, [sp], #4
  105376:	bf00      	nop

00105378 <ticker_irq_handler>:
  105378:	b510      	push	{r4, lr}
  10537a:	b084      	sub	sp, #16
  10537c:	9001      	str	r0, [sp, #4]
  10537e:	9b01      	ldr	r3, [sp, #4]
  105380:	681b      	ldr	r3, [r3, #0]
  105382:	68db      	ldr	r3, [r3, #12]
  105384:	4798      	blx	r3
  105386:	9b01      	ldr	r3, [sp, #4]
  105388:	685b      	ldr	r3, [r3, #4]
  10538a:	685b      	ldr	r3, [r3, #4]
  10538c:	2b00      	cmp	r3, #0
  10538e:	d104      	bne.n	10539a <ticker_irq_handler+0x22>
  105390:	9b01      	ldr	r3, [sp, #4]
  105392:	681b      	ldr	r3, [r3, #0]
  105394:	689b      	ldr	r3, [r3, #8]
  105396:	4798      	blx	r3
  105398:	e02c      	b.n	1053f4 <ticker_irq_handler+0x7c>
  10539a:	9b01      	ldr	r3, [sp, #4]
  10539c:	685b      	ldr	r3, [r3, #4]
  10539e:	685b      	ldr	r3, [r3, #4]
  1053a0:	681c      	ldr	r4, [r3, #0]
  1053a2:	9b01      	ldr	r3, [sp, #4]
  1053a4:	681b      	ldr	r3, [r3, #0]
  1053a6:	685b      	ldr	r3, [r3, #4]
  1053a8:	4798      	blx	r3
  1053aa:	4603      	mov	r3, r0
  1053ac:	1ae3      	subs	r3, r4, r3
  1053ae:	2b00      	cmp	r3, #0
  1053b0:	dc17      	bgt.n	1053e2 <ticker_irq_handler+0x6a>
  1053b2:	9b01      	ldr	r3, [sp, #4]
  1053b4:	685b      	ldr	r3, [r3, #4]
  1053b6:	685b      	ldr	r3, [r3, #4]
  1053b8:	9303      	str	r3, [sp, #12]
  1053ba:	9b01      	ldr	r3, [sp, #4]
  1053bc:	685b      	ldr	r3, [r3, #4]
  1053be:	9a01      	ldr	r2, [sp, #4]
  1053c0:	6852      	ldr	r2, [r2, #4]
  1053c2:	6852      	ldr	r2, [r2, #4]
  1053c4:	6892      	ldr	r2, [r2, #8]
  1053c6:	605a      	str	r2, [r3, #4]
  1053c8:	9b01      	ldr	r3, [sp, #4]
  1053ca:	685b      	ldr	r3, [r3, #4]
  1053cc:	681b      	ldr	r3, [r3, #0]
  1053ce:	2b00      	cmp	r3, #0
  1053d0:	d0d9      	beq.n	105386 <ticker_irq_handler+0xe>
  1053d2:	9b01      	ldr	r3, [sp, #4]
  1053d4:	685b      	ldr	r3, [r3, #4]
  1053d6:	681b      	ldr	r3, [r3, #0]
  1053d8:	9a03      	ldr	r2, [sp, #12]
  1053da:	6852      	ldr	r2, [r2, #4]
  1053dc:	4610      	mov	r0, r2
  1053de:	4798      	blx	r3
  1053e0:	e7d1      	b.n	105386 <ticker_irq_handler+0xe>
  1053e2:	9b01      	ldr	r3, [sp, #4]
  1053e4:	681b      	ldr	r3, [r3, #0]
  1053e6:	691b      	ldr	r3, [r3, #16]
  1053e8:	9a01      	ldr	r2, [sp, #4]
  1053ea:	6852      	ldr	r2, [r2, #4]
  1053ec:	6852      	ldr	r2, [r2, #4]
  1053ee:	6812      	ldr	r2, [r2, #0]
  1053f0:	4610      	mov	r0, r2
  1053f2:	4798      	blx	r3
  1053f4:	b004      	add	sp, #16
  1053f6:	bd10      	pop	{r4, pc}

001053f8 <us_ticker_irq_handler>:
  1053f8:	b508      	push	{r3, lr}
  1053fa:	4802      	ldr	r0, [pc, #8]	; (105404 <us_ticker_irq_handler+0xc>)
  1053fc:	f7ff ffbc 	bl	105378 <ticker_irq_handler>
  105400:	bf00      	nop
  105402:	bd08      	pop	{r3, pc}
  105404:	0010e06c 	.word	0x0010e06c

00105408 <wait>:
  105408:	b500      	push	{lr}
  10540a:	b083      	sub	sp, #12
  10540c:	9001      	str	r0, [sp, #4]
  10540e:	4908      	ldr	r1, [pc, #32]	; (105430 <wait+0x28>)
  105410:	9801      	ldr	r0, [sp, #4]
  105412:	f003 f849 	bl	1084a8 <__aeabi_fmul>
  105416:	4603      	mov	r3, r0
  105418:	4618      	mov	r0, r3
  10541a:	f003 f995 	bl	108748 <__aeabi_f2iz>
  10541e:	4603      	mov	r3, r0
  105420:	4618      	mov	r0, r3
  105422:	f000 f817 	bl	105454 <wait_us>
  105426:	bf00      	nop
  105428:	b003      	add	sp, #12
  10542a:	f85d fb04 	ldr.w	pc, [sp], #4
  10542e:	bf00      	nop
  105430:	49742400 	.word	0x49742400

00105434 <wait_ms>:
  105434:	b500      	push	{lr}
  105436:	b083      	sub	sp, #12
  105438:	9001      	str	r0, [sp, #4]
  10543a:	9b01      	ldr	r3, [sp, #4]
  10543c:	f44f 727a 	mov.w	r2, #1000	; 0x3e8
  105440:	fb02 f303 	mul.w	r3, r2, r3
  105444:	4618      	mov	r0, r3
  105446:	f000 f805 	bl	105454 <wait_us>
  10544a:	bf00      	nop
  10544c:	b003      	add	sp, #12
  10544e:	f85d fb04 	ldr.w	pc, [sp], #4
  105452:	bf00      	nop

00105454 <wait_us>:
  105454:	b500      	push	{lr}
  105456:	b085      	sub	sp, #20
  105458:	9001      	str	r0, [sp, #4]
  10545a:	f001 fb07 	bl	106a6c <us_ticker_read>
  10545e:	9003      	str	r0, [sp, #12]
  105460:	bf00      	nop
  105462:	f001 fb03 	bl	106a6c <us_ticker_read>
  105466:	4602      	mov	r2, r0
  105468:	9b03      	ldr	r3, [sp, #12]
  10546a:	1ad2      	subs	r2, r2, r3
  10546c:	9b01      	ldr	r3, [sp, #4]
  10546e:	429a      	cmp	r2, r3
  105470:	d3f7      	bcc.n	105462 <wait_us+0xe>
  105472:	bf00      	nop
  105474:	b005      	add	sp, #20
  105476:	f85d fb04 	ldr.w	pc, [sp], #4
  10547a:	bf00      	nop

0010547c <fClockInit>:
  10547c:	b082      	sub	sp, #8
  10547e:	4a3a      	ldr	r2, [pc, #232]	; (105568 <fClockInit+0xec>)
  105480:	7813      	ldrb	r3, [r2, #0]
  105482:	f043 0301 	orr.w	r3, r3, #1
  105486:	7013      	strb	r3, [r2, #0]
  105488:	bf00      	nop
  10548a:	4b37      	ldr	r3, [pc, #220]	; (105568 <fClockInit+0xec>)
  10548c:	685b      	ldr	r3, [r3, #4]
  10548e:	f3c3 0300 	ubfx	r3, r3, #0, #1
  105492:	b2db      	uxtb	r3, r3
  105494:	2b01      	cmp	r3, #1
  105496:	d1f8      	bne.n	10548a <fClockInit+0xe>
  105498:	4a34      	ldr	r2, [pc, #208]	; (10556c <fClockInit+0xf0>)
  10549a:	8813      	ldrh	r3, [r2, #0]
  10549c:	f36f 1345 	bfc	r3, #5, #1
  1054a0:	8013      	strh	r3, [r2, #0]
  1054a2:	2300      	movs	r3, #0
  1054a4:	f88d 3007 	strb.w	r3, [sp, #7]
  1054a8:	e006      	b.n	1054b8 <fClockInit+0x3c>
  1054aa:	f89d 3007 	ldrb.w	r3, [sp, #7]
  1054ae:	b2db      	uxtb	r3, r3
  1054b0:	3301      	adds	r3, #1
  1054b2:	b2db      	uxtb	r3, r3
  1054b4:	f88d 3007 	strb.w	r3, [sp, #7]
  1054b8:	f89d 3007 	ldrb.w	r3, [sp, #7]
  1054bc:	b2db      	uxtb	r3, r3
  1054be:	2b09      	cmp	r3, #9
  1054c0:	d9f3      	bls.n	1054aa <fClockInit+0x2e>
  1054c2:	4a29      	ldr	r2, [pc, #164]	; (105568 <fClockInit+0xec>)
  1054c4:	7813      	ldrb	r3, [r2, #0]
  1054c6:	f043 0308 	orr.w	r3, r3, #8
  1054ca:	7013      	strb	r3, [r2, #0]
  1054cc:	bf00      	nop
  1054ce:	4b26      	ldr	r3, [pc, #152]	; (105568 <fClockInit+0xec>)
  1054d0:	685b      	ldr	r3, [r3, #4]
  1054d2:	f3c3 1340 	ubfx	r3, r3, #5, #1
  1054d6:	b2db      	uxtb	r3, r3
  1054d8:	2b00      	cmp	r3, #0
  1054da:	d0f8      	beq.n	1054ce <fClockInit+0x52>
  1054dc:	bf00      	nop
  1054de:	4b22      	ldr	r3, [pc, #136]	; (105568 <fClockInit+0xec>)
  1054e0:	685b      	ldr	r3, [r3, #4]
  1054e2:	f3c3 1300 	ubfx	r3, r3, #4, #1
  1054e6:	b2db      	uxtb	r3, r3
  1054e8:	2b01      	cmp	r3, #1
  1054ea:	d0f8      	beq.n	1054de <fClockInit+0x62>
  1054ec:	4a1f      	ldr	r2, [pc, #124]	; (10556c <fClockInit+0xf0>)
  1054ee:	8813      	ldrh	r3, [r2, #0]
  1054f0:	f043 0320 	orr.w	r3, r3, #32
  1054f4:	8013      	strh	r3, [r2, #0]
  1054f6:	4a1d      	ldr	r2, [pc, #116]	; (10556c <fClockInit+0xf0>)
  1054f8:	8813      	ldrh	r3, [r2, #0]
  1054fa:	f36f 1304 	bfc	r3, #4, #1
  1054fe:	8013      	strh	r3, [r2, #0]
  105500:	2300      	movs	r3, #0
  105502:	f88d 3007 	strb.w	r3, [sp, #7]
  105506:	e006      	b.n	105516 <fClockInit+0x9a>
  105508:	f89d 3007 	ldrb.w	r3, [sp, #7]
  10550c:	b2db      	uxtb	r3, r3
  10550e:	3301      	adds	r3, #1
  105510:	b2db      	uxtb	r3, r3
  105512:	f88d 3007 	strb.w	r3, [sp, #7]
  105516:	f89d 3007 	ldrb.w	r3, [sp, #7]
  10551a:	b2db      	uxtb	r3, r3
  10551c:	2b09      	cmp	r3, #9
  10551e:	d9f3      	bls.n	105508 <fClockInit+0x8c>
  105520:	4a11      	ldr	r2, [pc, #68]	; (105568 <fClockInit+0xec>)
  105522:	7813      	ldrb	r3, [r2, #0]
  105524:	f043 0304 	orr.w	r3, r3, #4
  105528:	7013      	strb	r3, [r2, #0]
  10552a:	bf00      	nop
  10552c:	4b0e      	ldr	r3, [pc, #56]	; (105568 <fClockInit+0xec>)
  10552e:	685b      	ldr	r3, [r3, #4]
  105530:	f3c3 03c0 	ubfx	r3, r3, #3, #1
  105534:	b2db      	uxtb	r3, r3
  105536:	2b00      	cmp	r3, #0
  105538:	d0f8      	beq.n	10552c <fClockInit+0xb0>
  10553a:	bf00      	nop
  10553c:	4b0a      	ldr	r3, [pc, #40]	; (105568 <fClockInit+0xec>)
  10553e:	685b      	ldr	r3, [r3, #4]
  105540:	f3c3 0380 	ubfx	r3, r3, #2, #1
  105544:	b2db      	uxtb	r3, r3
  105546:	2b01      	cmp	r3, #1
  105548:	d0f8      	beq.n	10553c <fClockInit+0xc0>
  10554a:	4a08      	ldr	r2, [pc, #32]	; (10556c <fClockInit+0xf0>)
  10554c:	8813      	ldrh	r3, [r2, #0]
  10554e:	f043 0308 	orr.w	r3, r3, #8
  105552:	8013      	strh	r3, [r2, #0]
  105554:	4b04      	ldr	r3, [pc, #16]	; (105568 <fClockInit+0xec>)
  105556:	f04f 32ff 	mov.w	r2, #4294967295
  10555a:	611a      	str	r2, [r3, #16]
  10555c:	4b02      	ldr	r3, [pc, #8]	; (105568 <fClockInit+0xec>)
  10555e:	2200      	movs	r2, #0
  105560:	615a      	str	r2, [r3, #20]
  105562:	bf00      	nop
  105564:	b002      	add	sp, #8
  105566:	4770      	bx	lr
  105568:	4001b000 	.word	0x4001b000
  10556c:	4001d000 	.word	0x4001d000

00105570 <SystemInit>:
  105570:	b508      	push	{r3, lr}
  105572:	4b0e      	ldr	r3, [pc, #56]	; (1055ac <SystemInit+0x3c>)
  105574:	f44f 1281 	mov.w	r2, #1056768	; 0x102000
  105578:	609a      	str	r2, [r3, #8]
  10557a:	f7ff ff7f 	bl	10547c <fClockInit>
  10557e:	4b0c      	ldr	r3, [pc, #48]	; (1055b0 <SystemInit+0x40>)
  105580:	2200      	movs	r2, #0
  105582:	601a      	str	r2, [r3, #0]
  105584:	4b0b      	ldr	r3, [pc, #44]	; (1055b4 <SystemInit+0x44>)
  105586:	221f      	movs	r2, #31
  105588:	f8c3 2080 	str.w	r2, [r3, #128]	; 0x80
  10558c:	4b09      	ldr	r3, [pc, #36]	; (1055b4 <SystemInit+0x44>)
  10558e:	221f      	movs	r2, #31
  105590:	f8c3 2180 	str.w	r2, [r3, #384]	; 0x180
  105594:	4b05      	ldr	r3, [pc, #20]	; (1055ac <SystemInit+0x3c>)
  105596:	f04f 6220 	mov.w	r2, #167772160	; 0xa000000
  10559a:	605a      	str	r2, [r3, #4]
  10559c:	4b06      	ldr	r3, [pc, #24]	; (1055b8 <SystemInit+0x48>)
  10559e:	2201      	movs	r2, #1
  1055a0:	601a      	str	r2, [r3, #0]
  1055a2:	4b06      	ldr	r3, [pc, #24]	; (1055bc <SystemInit+0x4c>)
  1055a4:	4a06      	ldr	r2, [pc, #24]	; (1055c0 <SystemInit+0x50>)
  1055a6:	601a      	str	r2, [r3, #0]
  1055a8:	bf00      	nop
  1055aa:	bd08      	pop	{r3, pc}
  1055ac:	e000ed00 	.word	0xe000ed00
  1055b0:	3fff538c 	.word	0x3fff538c
  1055b4:	e000e100 	.word	0xe000e100
  1055b8:	4001800c 	.word	0x4001800c
  1055bc:	3fff4098 	.word	0x3fff4098
  1055c0:	01e84800 	.word	0x01e84800

001055c4 <gpio_init>:
  1055c4:	b500      	push	{lr}
  1055c6:	b083      	sub	sp, #12
  1055c8:	9001      	str	r0, [sp, #4]
  1055ca:	9100      	str	r1, [sp, #0]
  1055cc:	9b01      	ldr	r3, [sp, #4]
  1055ce:	9a00      	ldr	r2, [sp, #0]
  1055d0:	601a      	str	r2, [r3, #0]
  1055d2:	9b00      	ldr	r3, [sp, #0]
  1055d4:	f1b3 3fff 	cmp.w	r3, #4294967295
  1055d8:	d017      	beq.n	10560a <gpio_init+0x46>
  1055da:	4b0e      	ldr	r3, [pc, #56]	; (105614 <gpio_init+0x50>)
  1055dc:	681a      	ldr	r2, [r3, #0]
  1055de:	9b00      	ldr	r3, [sp, #0]
  1055e0:	4013      	ands	r3, r2
  1055e2:	2b00      	cmp	r3, #0
  1055e4:	d004      	beq.n	1055f0 <gpio_init+0x2c>
  1055e6:	2253      	movs	r2, #83	; 0x53
  1055e8:	490b      	ldr	r1, [pc, #44]	; (105618 <gpio_init+0x54>)
  1055ea:	480c      	ldr	r0, [pc, #48]	; (10561c <gpio_init+0x58>)
  1055ec:	f7ff fd14 	bl	105018 <mbed_assert_internal>
  1055f0:	4a0b      	ldr	r2, [pc, #44]	; (105620 <gpio_init+0x5c>)
  1055f2:	4b0b      	ldr	r3, [pc, #44]	; (105620 <gpio_init+0x5c>)
  1055f4:	691b      	ldr	r3, [r3, #16]
  1055f6:	f423 5380 	bic.w	r3, r3, #4096	; 0x1000
  1055fa:	6113      	str	r3, [r2, #16]
  1055fc:	9b01      	ldr	r3, [sp, #4]
  1055fe:	4a09      	ldr	r2, [pc, #36]	; (105624 <gpio_init+0x60>)
  105600:	60da      	str	r2, [r3, #12]
  105602:	9b01      	ldr	r3, [sp, #4]
  105604:	4a08      	ldr	r2, [pc, #32]	; (105628 <gpio_init+0x64>)
  105606:	611a      	str	r2, [r3, #16]
  105608:	e000      	b.n	10560c <gpio_init+0x48>
  10560a:	bf00      	nop
  10560c:	b003      	add	sp, #12
  10560e:	f85d fb04 	ldr.w	pc, [sp], #4
  105612:	bf00      	nop
  105614:	3fff538c 	.word	0x3fff538c
  105618:	0010e074 	.word	0x0010e074
  10561c:	0010e0d0 	.word	0x0010e0d0
  105620:	4001b000 	.word	0x4001b000
  105624:	4000c000 	.word	0x4000c000
  105628:	4000c004 	.word	0x4000c004

0010562c <gpio_mode>:
  10562c:	b082      	sub	sp, #8
  10562e:	9001      	str	r0, [sp, #4]
  105630:	460b      	mov	r3, r1
  105632:	f88d 3003 	strb.w	r3, [sp, #3]
  105636:	bf00      	nop
  105638:	b002      	add	sp, #8
  10563a:	4770      	bx	lr

0010563c <gpio_dir>:
  10563c:	b082      	sub	sp, #8
  10563e:	9001      	str	r0, [sp, #4]
  105640:	460b      	mov	r3, r1
  105642:	f88d 3003 	strb.w	r3, [sp, #3]
  105646:	f89d 3003 	ldrb.w	r3, [sp, #3]
  10564a:	2b00      	cmp	r3, #0
  10564c:	d002      	beq.n	105654 <gpio_dir+0x18>
  10564e:	2b01      	cmp	r3, #1
  105650:	d00d      	beq.n	10566e <gpio_dir+0x32>
  105652:	e019      	b.n	105688 <gpio_dir+0x4c>
  105654:	9b01      	ldr	r3, [sp, #4]
  105656:	4a0e      	ldr	r2, [pc, #56]	; (105690 <gpio_dir+0x54>)
  105658:	609a      	str	r2, [r3, #8]
  10565a:	9b01      	ldr	r3, [sp, #4]
  10565c:	689b      	ldr	r3, [r3, #8]
  10565e:	9a01      	ldr	r2, [sp, #4]
  105660:	6892      	ldr	r2, [r2, #8]
  105662:	6812      	ldr	r2, [r2, #0]
  105664:	9901      	ldr	r1, [sp, #4]
  105666:	6809      	ldr	r1, [r1, #0]
  105668:	430a      	orrs	r2, r1
  10566a:	601a      	str	r2, [r3, #0]
  10566c:	e00c      	b.n	105688 <gpio_dir+0x4c>
  10566e:	9b01      	ldr	r3, [sp, #4]
  105670:	4a08      	ldr	r2, [pc, #32]	; (105694 <gpio_dir+0x58>)
  105672:	609a      	str	r2, [r3, #8]
  105674:	9b01      	ldr	r3, [sp, #4]
  105676:	689b      	ldr	r3, [r3, #8]
  105678:	9a01      	ldr	r2, [sp, #4]
  10567a:	6892      	ldr	r2, [r2, #8]
  10567c:	6812      	ldr	r2, [r2, #0]
  10567e:	9901      	ldr	r1, [sp, #4]
  105680:	6809      	ldr	r1, [r1, #0]
  105682:	430a      	orrs	r2, r1
  105684:	601a      	str	r2, [r3, #0]
  105686:	bf00      	nop
  105688:	bf00      	nop
  10568a:	b002      	add	sp, #8
  10568c:	4770      	bx	lr
  10568e:	bf00      	nop
  105690:	4000c00c 	.word	0x4000c00c
  105694:	4000c008 	.word	0x4000c008

00105698 <NVIC_EnableIRQ>:
  105698:	b082      	sub	sp, #8
  10569a:	4603      	mov	r3, r0
  10569c:	f88d 3007 	strb.w	r3, [sp, #7]
  1056a0:	4907      	ldr	r1, [pc, #28]	; (1056c0 <NVIC_EnableIRQ+0x28>)
  1056a2:	f99d 3007 	ldrsb.w	r3, [sp, #7]
  1056a6:	095b      	lsrs	r3, r3, #5
  1056a8:	f89d 2007 	ldrb.w	r2, [sp, #7]
  1056ac:	f002 021f 	and.w	r2, r2, #31
  1056b0:	2001      	movs	r0, #1
  1056b2:	fa00 f202 	lsl.w	r2, r0, r2
  1056b6:	f841 2023 	str.w	r2, [r1, r3, lsl #2]
  1056ba:	bf00      	nop
  1056bc:	b002      	add	sp, #8
  1056be:	4770      	bx	lr
  1056c0:	e000e100 	.word	0xe000e100

001056c4 <NVIC_DisableIRQ>:
  1056c4:	b082      	sub	sp, #8
  1056c6:	4603      	mov	r3, r0
  1056c8:	f88d 3007 	strb.w	r3, [sp, #7]
  1056cc:	4908      	ldr	r1, [pc, #32]	; (1056f0 <NVIC_DisableIRQ+0x2c>)
  1056ce:	f99d 3007 	ldrsb.w	r3, [sp, #7]
  1056d2:	095b      	lsrs	r3, r3, #5
  1056d4:	f89d 2007 	ldrb.w	r2, [sp, #7]
  1056d8:	f002 021f 	and.w	r2, r2, #31
  1056dc:	2001      	movs	r0, #1
  1056de:	fa00 f202 	lsl.w	r2, r0, r2
  1056e2:	3320      	adds	r3, #32
  1056e4:	f841 2023 	str.w	r2, [r1, r3, lsl #2]
  1056e8:	bf00      	nop
  1056ea:	b002      	add	sp, #8
  1056ec:	4770      	bx	lr
  1056ee:	bf00      	nop
  1056f0:	e000e100 	.word	0xe000e100

001056f4 <NVIC_ClearPendingIRQ>:
  1056f4:	b082      	sub	sp, #8
  1056f6:	4603      	mov	r3, r0
  1056f8:	f88d 3007 	strb.w	r3, [sp, #7]
  1056fc:	4908      	ldr	r1, [pc, #32]	; (105720 <NVIC_ClearPendingIRQ+0x2c>)
  1056fe:	f99d 3007 	ldrsb.w	r3, [sp, #7]
  105702:	095b      	lsrs	r3, r3, #5
  105704:	f89d 2007 	ldrb.w	r2, [sp, #7]
  105708:	f002 021f 	and.w	r2, r2, #31
  10570c:	2001      	movs	r0, #1
  10570e:	fa00 f202 	lsl.w	r2, r0, r2
  105712:	3360      	adds	r3, #96	; 0x60
  105714:	f841 2023 	str.w	r2, [r1, r3, lsl #2]
  105718:	bf00      	nop
  10571a:	b002      	add	sp, #8
  10571c:	4770      	bx	lr
  10571e:	bf00      	nop
  105720:	e000e100 	.word	0xe000e100

00105724 <NVIC_SetPriority>:
  105724:	b082      	sub	sp, #8
  105726:	4603      	mov	r3, r0
  105728:	9100      	str	r1, [sp, #0]
  10572a:	f88d 3007 	strb.w	r3, [sp, #7]
  10572e:	f99d 3007 	ldrsb.w	r3, [sp, #7]
  105732:	2b00      	cmp	r3, #0
  105734:	da0c      	bge.n	105750 <NVIC_SetPriority+0x2c>
  105736:	490d      	ldr	r1, [pc, #52]	; (10576c <NVIC_SetPriority+0x48>)
  105738:	f89d 3007 	ldrb.w	r3, [sp, #7]
  10573c:	f003 030f 	and.w	r3, r3, #15
  105740:	3b04      	subs	r3, #4
  105742:	9a00      	ldr	r2, [sp, #0]
  105744:	b2d2      	uxtb	r2, r2
  105746:	0112      	lsls	r2, r2, #4
  105748:	b2d2      	uxtb	r2, r2
  10574a:	440b      	add	r3, r1
  10574c:	761a      	strb	r2, [r3, #24]
  10574e:	e009      	b.n	105764 <NVIC_SetPriority+0x40>
  105750:	4907      	ldr	r1, [pc, #28]	; (105770 <NVIC_SetPriority+0x4c>)
  105752:	f99d 3007 	ldrsb.w	r3, [sp, #7]
  105756:	9a00      	ldr	r2, [sp, #0]
  105758:	b2d2      	uxtb	r2, r2
  10575a:	0112      	lsls	r2, r2, #4
  10575c:	b2d2      	uxtb	r2, r2
  10575e:	440b      	add	r3, r1
  105760:	f883 2300 	strb.w	r2, [r3, #768]	; 0x300
  105764:	bf00      	nop
  105766:	b002      	add	sp, #8
  105768:	4770      	bx	lr
  10576a:	bf00      	nop
  10576c:	e000ed00 	.word	0xe000ed00
  105770:	e000e100 	.word	0xe000e100

00105774 <handle_interrupt_in>:
  105774:	b500      	push	{lr}
  105776:	b087      	sub	sp, #28
  105778:	2300      	movs	r3, #0
  10577a:	f88d 3017 	strb.w	r3, [sp, #23]
  10577e:	2300      	movs	r3, #0
  105780:	9304      	str	r3, [sp, #16]
  105782:	2300      	movs	r3, #0
  105784:	9303      	str	r3, [sp, #12]
  105786:	2300      	movs	r3, #0
  105788:	9302      	str	r3, [sp, #8]
  10578a:	2300      	movs	r3, #0
  10578c:	9301      	str	r3, [sp, #4]
  10578e:	e085      	b.n	10589c <handle_interrupt_in+0x128>
  105790:	4b47      	ldr	r3, [pc, #284]	; (1058b0 <handle_interrupt_in+0x13c>)
  105792:	685b      	ldr	r3, [r3, #4]
  105794:	9301      	str	r3, [sp, #4]
  105796:	230a      	movs	r3, #10
  105798:	9304      	str	r3, [sp, #16]
  10579a:	e05c      	b.n	105856 <handle_interrupt_in+0xe2>
  10579c:	4b44      	ldr	r3, [pc, #272]	; (1058b0 <handle_interrupt_in+0x13c>)
  10579e:	685b      	ldr	r3, [r3, #4]
  1057a0:	2101      	movs	r1, #1
  1057a2:	9a04      	ldr	r2, [sp, #16]
  1057a4:	fa01 f202 	lsl.w	r2, r1, r2
  1057a8:	4013      	ands	r3, r2
  1057aa:	2b00      	cmp	r3, #0
  1057ac:	d050      	beq.n	105850 <handle_interrupt_in+0xdc>
  1057ae:	2300      	movs	r3, #0
  1057b0:	9302      	str	r3, [sp, #8]
  1057b2:	9b04      	ldr	r3, [sp, #16]
  1057b4:	3b0a      	subs	r3, #10
  1057b6:	2b07      	cmp	r3, #7
  1057b8:	d851      	bhi.n	10585e <handle_interrupt_in+0xea>
  1057ba:	a201      	add	r2, pc, #4	; (adr r2, 1057c0 <handle_interrupt_in+0x4c>)
  1057bc:	f852 f023 	ldr.w	pc, [r2, r3, lsl #2]
  1057c0:	001057e1 	.word	0x001057e1
  1057c4:	0010585f 	.word	0x0010585f
  1057c8:	0010585f 	.word	0x0010585f
  1057cc:	0010585f 	.word	0x0010585f
  1057d0:	001057e7 	.word	0x001057e7
  1057d4:	001057ed 	.word	0x001057ed
  1057d8:	001057f3 	.word	0x001057f3
  1057dc:	001057f9 	.word	0x001057f9
  1057e0:	2300      	movs	r3, #0
  1057e2:	9303      	str	r3, [sp, #12]
  1057e4:	e033      	b.n	10584e <handle_interrupt_in+0xda>
  1057e6:	2301      	movs	r3, #1
  1057e8:	9303      	str	r3, [sp, #12]
  1057ea:	e030      	b.n	10584e <handle_interrupt_in+0xda>
  1057ec:	2302      	movs	r3, #2
  1057ee:	9303      	str	r3, [sp, #12]
  1057f0:	e02d      	b.n	10584e <handle_interrupt_in+0xda>
  1057f2:	2303      	movs	r3, #3
  1057f4:	9303      	str	r3, [sp, #12]
  1057f6:	e02a      	b.n	10584e <handle_interrupt_in+0xda>
  1057f8:	2304      	movs	r3, #4
  1057fa:	f88d 3017 	strb.w	r3, [sp, #23]
  1057fe:	e021      	b.n	105844 <handle_interrupt_in+0xd0>
  105800:	f89d 3017 	ldrb.w	r3, [sp, #23]
  105804:	4a2b      	ldr	r2, [pc, #172]	; (1058b4 <handle_interrupt_in+0x140>)
  105806:	f852 3023 	ldr.w	r3, [r2, r3, lsl #2]
  10580a:	2b00      	cmp	r3, #0
  10580c:	d015      	beq.n	10583a <handle_interrupt_in+0xc6>
  10580e:	4b2a      	ldr	r3, [pc, #168]	; (1058b8 <handle_interrupt_in+0x144>)
  105810:	681b      	ldr	r3, [r3, #0]
  105812:	f89d 2017 	ldrb.w	r2, [sp, #23]
  105816:	4927      	ldr	r1, [pc, #156]	; (1058b4 <handle_interrupt_in+0x140>)
  105818:	f851 2022 	ldr.w	r2, [r1, r2, lsl #2]
  10581c:	2101      	movs	r1, #1
  10581e:	4610      	mov	r0, r2
  105820:	4798      	blx	r3
  105822:	4b25      	ldr	r3, [pc, #148]	; (1058b8 <handle_interrupt_in+0x144>)
  105824:	681b      	ldr	r3, [r3, #0]
  105826:	f89d 2017 	ldrb.w	r2, [sp, #23]
  10582a:	4922      	ldr	r1, [pc, #136]	; (1058b4 <handle_interrupt_in+0x140>)
  10582c:	f851 2022 	ldr.w	r2, [r1, r2, lsl #2]
  105830:	2102      	movs	r1, #2
  105832:	4610      	mov	r0, r2
  105834:	4798      	blx	r3
  105836:	2301      	movs	r3, #1
  105838:	9302      	str	r3, [sp, #8]
  10583a:	f89d 3017 	ldrb.w	r3, [sp, #23]
  10583e:	3301      	adds	r3, #1
  105840:	f88d 3017 	strb.w	r3, [sp, #23]
  105844:	f89d 3017 	ldrb.w	r3, [sp, #23]
  105848:	2b0b      	cmp	r3, #11
  10584a:	d9d9      	bls.n	105800 <handle_interrupt_in+0x8c>
  10584c:	bf00      	nop
  10584e:	e006      	b.n	10585e <handle_interrupt_in+0xea>
  105850:	9b04      	ldr	r3, [sp, #16]
  105852:	3301      	adds	r3, #1
  105854:	9304      	str	r3, [sp, #16]
  105856:	9b04      	ldr	r3, [sp, #16]
  105858:	2b11      	cmp	r3, #17
  10585a:	d99f      	bls.n	10579c <handle_interrupt_in+0x28>
  10585c:	e000      	b.n	105860 <handle_interrupt_in+0xec>
  10585e:	bf00      	nop
  105860:	9b02      	ldr	r3, [sp, #8]
  105862:	2b00      	cmp	r3, #0
  105864:	d117      	bne.n	105896 <handle_interrupt_in+0x122>
  105866:	4a13      	ldr	r2, [pc, #76]	; (1058b4 <handle_interrupt_in+0x140>)
  105868:	9b03      	ldr	r3, [sp, #12]
  10586a:	f852 3023 	ldr.w	r3, [r2, r3, lsl #2]
  10586e:	2b00      	cmp	r3, #0
  105870:	d011      	beq.n	105896 <handle_interrupt_in+0x122>
  105872:	4b11      	ldr	r3, [pc, #68]	; (1058b8 <handle_interrupt_in+0x144>)
  105874:	681b      	ldr	r3, [r3, #0]
  105876:	490f      	ldr	r1, [pc, #60]	; (1058b4 <handle_interrupt_in+0x140>)
  105878:	9a03      	ldr	r2, [sp, #12]
  10587a:	f851 2022 	ldr.w	r2, [r1, r2, lsl #2]
  10587e:	2101      	movs	r1, #1
  105880:	4610      	mov	r0, r2
  105882:	4798      	blx	r3
  105884:	4b0c      	ldr	r3, [pc, #48]	; (1058b8 <handle_interrupt_in+0x144>)
  105886:	681b      	ldr	r3, [r3, #0]
  105888:	490a      	ldr	r1, [pc, #40]	; (1058b4 <handle_interrupt_in+0x140>)
  10588a:	9a03      	ldr	r2, [sp, #12]
  10588c:	f851 2022 	ldr.w	r2, [r1, r2, lsl #2]
  105890:	2102      	movs	r1, #2
  105892:	4610      	mov	r0, r2
  105894:	4798      	blx	r3
  105896:	4a06      	ldr	r2, [pc, #24]	; (1058b0 <handle_interrupt_in+0x13c>)
  105898:	9b01      	ldr	r3, [sp, #4]
  10589a:	6313      	str	r3, [r2, #48]	; 0x30
  10589c:	4b04      	ldr	r3, [pc, #16]	; (1058b0 <handle_interrupt_in+0x13c>)
  10589e:	685b      	ldr	r3, [r3, #4]
  1058a0:	2b00      	cmp	r3, #0
  1058a2:	f47f af75 	bne.w	105790 <handle_interrupt_in+0x1c>
  1058a6:	bf00      	nop
  1058a8:	b007      	add	sp, #28
  1058aa:	f85d fb04 	ldr.w	pc, [sp], #4
  1058ae:	bf00      	nop
  1058b0:	4000c000 	.word	0x4000c000
  1058b4:	3fff45ac 	.word	0x3fff45ac
  1058b8:	3fff45dc 	.word	0x3fff45dc

001058bc <gpio_irq_init>:
  1058bc:	b500      	push	{lr}
  1058be:	b085      	sub	sp, #20
  1058c0:	9003      	str	r0, [sp, #12]
  1058c2:	9102      	str	r1, [sp, #8]
  1058c4:	9201      	str	r2, [sp, #4]
  1058c6:	9300      	str	r3, [sp, #0]
  1058c8:	9b02      	ldr	r3, [sp, #8]
  1058ca:	f1b3 3fff 	cmp.w	r3, #4294967295
  1058ce:	d102      	bne.n	1058d6 <gpio_irq_init+0x1a>
  1058d0:	f04f 33ff 	mov.w	r3, #4294967295
  1058d4:	e076      	b.n	1059c4 <gpio_irq_init+0x108>
  1058d6:	4a3d      	ldr	r2, [pc, #244]	; (1059cc <gpio_irq_init+0x110>)
  1058d8:	9b01      	ldr	r3, [sp, #4]
  1058da:	6013      	str	r3, [r2, #0]
  1058dc:	9a02      	ldr	r2, [sp, #8]
  1058de:	9b03      	ldr	r3, [sp, #12]
  1058e0:	605a      	str	r2, [r3, #4]
  1058e2:	9b03      	ldr	r3, [sp, #12]
  1058e4:	685b      	ldr	r3, [r3, #4]
  1058e6:	f5b3 4f00 	cmp.w	r3, #32768	; 0x8000
  1058ea:	d018      	beq.n	10591e <gpio_irq_init+0x62>
  1058ec:	f5b3 4f00 	cmp.w	r3, #32768	; 0x8000
  1058f0:	d806      	bhi.n	105900 <gpio_irq_init+0x44>
  1058f2:	f5b3 6f80 	cmp.w	r3, #1024	; 0x400
  1058f6:	d00a      	beq.n	10590e <gpio_irq_init+0x52>
  1058f8:	f5b3 4f80 	cmp.w	r3, #16384	; 0x4000
  1058fc:	d00b      	beq.n	105916 <gpio_irq_init+0x5a>
  1058fe:	e059      	b.n	1059b4 <gpio_irq_init+0xf8>
  105900:	f5b3 3f80 	cmp.w	r3, #65536	; 0x10000
  105904:	d00f      	beq.n	105926 <gpio_irq_init+0x6a>
  105906:	f5b3 3f00 	cmp.w	r3, #131072	; 0x20000
  10590a:	d010      	beq.n	10592e <gpio_irq_init+0x72>
  10590c:	e052      	b.n	1059b4 <gpio_irq_init+0xf8>
  10590e:	4a30      	ldr	r2, [pc, #192]	; (1059d0 <gpio_irq_init+0x114>)
  105910:	9b00      	ldr	r3, [sp, #0]
  105912:	6013      	str	r3, [r2, #0]
  105914:	e04e      	b.n	1059b4 <gpio_irq_init+0xf8>
  105916:	4a2e      	ldr	r2, [pc, #184]	; (1059d0 <gpio_irq_init+0x114>)
  105918:	9b00      	ldr	r3, [sp, #0]
  10591a:	6053      	str	r3, [r2, #4]
  10591c:	e04a      	b.n	1059b4 <gpio_irq_init+0xf8>
  10591e:	4a2c      	ldr	r2, [pc, #176]	; (1059d0 <gpio_irq_init+0x114>)
  105920:	9b00      	ldr	r3, [sp, #0]
  105922:	6093      	str	r3, [r2, #8]
  105924:	e046      	b.n	1059b4 <gpio_irq_init+0xf8>
  105926:	4a2a      	ldr	r2, [pc, #168]	; (1059d0 <gpio_irq_init+0x114>)
  105928:	9b00      	ldr	r3, [sp, #0]
  10592a:	60d3      	str	r3, [r2, #12]
  10592c:	e042      	b.n	1059b4 <gpio_irq_init+0xf8>
  10592e:	4b28      	ldr	r3, [pc, #160]	; (1059d0 <gpio_irq_init+0x114>)
  105930:	691b      	ldr	r3, [r3, #16]
  105932:	2b00      	cmp	r3, #0
  105934:	d103      	bne.n	10593e <gpio_irq_init+0x82>
  105936:	4a26      	ldr	r2, [pc, #152]	; (1059d0 <gpio_irq_init+0x114>)
  105938:	9b00      	ldr	r3, [sp, #0]
  10593a:	6113      	str	r3, [r2, #16]
  10593c:	e03a      	b.n	1059b4 <gpio_irq_init+0xf8>
  10593e:	4b24      	ldr	r3, [pc, #144]	; (1059d0 <gpio_irq_init+0x114>)
  105940:	695b      	ldr	r3, [r3, #20]
  105942:	2b00      	cmp	r3, #0
  105944:	d103      	bne.n	10594e <gpio_irq_init+0x92>
  105946:	4a22      	ldr	r2, [pc, #136]	; (1059d0 <gpio_irq_init+0x114>)
  105948:	9b00      	ldr	r3, [sp, #0]
  10594a:	6153      	str	r3, [r2, #20]
  10594c:	e032      	b.n	1059b4 <gpio_irq_init+0xf8>
  10594e:	4b20      	ldr	r3, [pc, #128]	; (1059d0 <gpio_irq_init+0x114>)
  105950:	699b      	ldr	r3, [r3, #24]
  105952:	2b00      	cmp	r3, #0
  105954:	d103      	bne.n	10595e <gpio_irq_init+0xa2>
  105956:	4a1e      	ldr	r2, [pc, #120]	; (1059d0 <gpio_irq_init+0x114>)
  105958:	9b00      	ldr	r3, [sp, #0]
  10595a:	6193      	str	r3, [r2, #24]
  10595c:	e02a      	b.n	1059b4 <gpio_irq_init+0xf8>
  10595e:	4b1c      	ldr	r3, [pc, #112]	; (1059d0 <gpio_irq_init+0x114>)
  105960:	69db      	ldr	r3, [r3, #28]
  105962:	2b00      	cmp	r3, #0
  105964:	d103      	bne.n	10596e <gpio_irq_init+0xb2>
  105966:	4a1a      	ldr	r2, [pc, #104]	; (1059d0 <gpio_irq_init+0x114>)
  105968:	9b00      	ldr	r3, [sp, #0]
  10596a:	61d3      	str	r3, [r2, #28]
  10596c:	e022      	b.n	1059b4 <gpio_irq_init+0xf8>
  10596e:	4b18      	ldr	r3, [pc, #96]	; (1059d0 <gpio_irq_init+0x114>)
  105970:	6a1b      	ldr	r3, [r3, #32]
  105972:	2b00      	cmp	r3, #0
  105974:	d103      	bne.n	10597e <gpio_irq_init+0xc2>
  105976:	4a16      	ldr	r2, [pc, #88]	; (1059d0 <gpio_irq_init+0x114>)
  105978:	9b00      	ldr	r3, [sp, #0]
  10597a:	6213      	str	r3, [r2, #32]
  10597c:	e01a      	b.n	1059b4 <gpio_irq_init+0xf8>
  10597e:	4b14      	ldr	r3, [pc, #80]	; (1059d0 <gpio_irq_init+0x114>)
  105980:	6a5b      	ldr	r3, [r3, #36]	; 0x24
  105982:	2b00      	cmp	r3, #0
  105984:	d103      	bne.n	10598e <gpio_irq_init+0xd2>
  105986:	4a12      	ldr	r2, [pc, #72]	; (1059d0 <gpio_irq_init+0x114>)
  105988:	9b00      	ldr	r3, [sp, #0]
  10598a:	6253      	str	r3, [r2, #36]	; 0x24
  10598c:	e012      	b.n	1059b4 <gpio_irq_init+0xf8>
  10598e:	4b10      	ldr	r3, [pc, #64]	; (1059d0 <gpio_irq_init+0x114>)
  105990:	6a9b      	ldr	r3, [r3, #40]	; 0x28
  105992:	2b00      	cmp	r3, #0
  105994:	d103      	bne.n	10599e <gpio_irq_init+0xe2>
  105996:	4a0e      	ldr	r2, [pc, #56]	; (1059d0 <gpio_irq_init+0x114>)
  105998:	9b00      	ldr	r3, [sp, #0]
  10599a:	6293      	str	r3, [r2, #40]	; 0x28
  10599c:	e00a      	b.n	1059b4 <gpio_irq_init+0xf8>
  10599e:	4b0c      	ldr	r3, [pc, #48]	; (1059d0 <gpio_irq_init+0x114>)
  1059a0:	6adb      	ldr	r3, [r3, #44]	; 0x2c
  1059a2:	2b00      	cmp	r3, #0
  1059a4:	d103      	bne.n	1059ae <gpio_irq_init+0xf2>
  1059a6:	4a0a      	ldr	r2, [pc, #40]	; (1059d0 <gpio_irq_init+0x114>)
  1059a8:	9b00      	ldr	r3, [sp, #0]
  1059aa:	62d3      	str	r3, [r2, #44]	; 0x2c
  1059ac:	e002      	b.n	1059b4 <gpio_irq_init+0xf8>
  1059ae:	f04f 33ff 	mov.w	r3, #4294967295
  1059b2:	e007      	b.n	1059c4 <gpio_irq_init+0x108>
  1059b4:	2102      	movs	r1, #2
  1059b6:	2006      	movs	r0, #6
  1059b8:	f7ff feb4 	bl	105724 <NVIC_SetPriority>
  1059bc:	2006      	movs	r0, #6
  1059be:	f7ff fe6b 	bl	105698 <NVIC_EnableIRQ>
  1059c2:	2300      	movs	r3, #0
  1059c4:	4618      	mov	r0, r3
  1059c6:	b005      	add	sp, #20
  1059c8:	f85d fb04 	ldr.w	pc, [sp], #4
  1059cc:	3fff45dc 	.word	0x3fff45dc
  1059d0:	3fff45ac 	.word	0x3fff45ac

001059d4 <gpio_irq_free>:
  1059d4:	b082      	sub	sp, #8
  1059d6:	9001      	str	r0, [sp, #4]
  1059d8:	9b01      	ldr	r3, [sp, #4]
  1059da:	689b      	ldr	r3, [r3, #8]
  1059dc:	4a03      	ldr	r2, [pc, #12]	; (1059ec <gpio_irq_free+0x18>)
  1059de:	2100      	movs	r1, #0
  1059e0:	f842 1023 	str.w	r1, [r2, r3, lsl #2]
  1059e4:	bf00      	nop
  1059e6:	b002      	add	sp, #8
  1059e8:	4770      	bx	lr
  1059ea:	bf00      	nop
  1059ec:	3fff45ac 	.word	0x3fff45ac

001059f0 <gpio_irq_set>:
  1059f0:	b500      	push	{lr}
  1059f2:	b087      	sub	sp, #28
  1059f4:	9003      	str	r0, [sp, #12]
  1059f6:	460b      	mov	r3, r1
  1059f8:	9201      	str	r2, [sp, #4]
  1059fa:	f88d 300b 	strb.w	r3, [sp, #11]
  1059fe:	9b03      	ldr	r3, [sp, #12]
  105a00:	685b      	ldr	r3, [r3, #4]
  105a02:	9305      	str	r3, [sp, #20]
  105a04:	9b05      	ldr	r3, [sp, #20]
  105a06:	f5b3 6f80 	cmp.w	r3, #1024	; 0x400
  105a0a:	d014      	beq.n	105a36 <gpio_irq_set+0x46>
  105a0c:	9b05      	ldr	r3, [sp, #20]
  105a0e:	f5b3 4f80 	cmp.w	r3, #16384	; 0x4000
  105a12:	d010      	beq.n	105a36 <gpio_irq_set+0x46>
  105a14:	9b05      	ldr	r3, [sp, #20]
  105a16:	f5b3 4f00 	cmp.w	r3, #32768	; 0x8000
  105a1a:	d00c      	beq.n	105a36 <gpio_irq_set+0x46>
  105a1c:	9b05      	ldr	r3, [sp, #20]
  105a1e:	f5b3 3f80 	cmp.w	r3, #65536	; 0x10000
  105a22:	d008      	beq.n	105a36 <gpio_irq_set+0x46>
  105a24:	9b05      	ldr	r3, [sp, #20]
  105a26:	f5b3 3f00 	cmp.w	r3, #131072	; 0x20000
  105a2a:	d004      	beq.n	105a36 <gpio_irq_set+0x46>
  105a2c:	22b4      	movs	r2, #180	; 0xb4
  105a2e:	492c      	ldr	r1, [pc, #176]	; (105ae0 <gpio_irq_set+0xf0>)
  105a30:	482c      	ldr	r0, [pc, #176]	; (105ae4 <gpio_irq_set+0xf4>)
  105a32:	f7ff faf1 	bl	105018 <mbed_assert_internal>
  105a36:	2006      	movs	r0, #6
  105a38:	f7ff fe44 	bl	1056c4 <NVIC_DisableIRQ>
  105a3c:	2006      	movs	r0, #6
  105a3e:	f7ff fe59 	bl	1056f4 <NVIC_ClearPendingIRQ>
  105a42:	4929      	ldr	r1, [pc, #164]	; (105ae8 <gpio_irq_set+0xf8>)
  105a44:	4b28      	ldr	r3, [pc, #160]	; (105ae8 <gpio_irq_set+0xf8>)
  105a46:	68da      	ldr	r2, [r3, #12]
  105a48:	9b03      	ldr	r3, [sp, #12]
  105a4a:	685b      	ldr	r3, [r3, #4]
  105a4c:	4313      	orrs	r3, r2
  105a4e:	60cb      	str	r3, [r1, #12]
  105a50:	4a25      	ldr	r2, [pc, #148]	; (105ae8 <gpio_irq_set+0xf8>)
  105a52:	9b03      	ldr	r3, [sp, #12]
  105a54:	685b      	ldr	r3, [r3, #4]
  105a56:	6313      	str	r3, [r2, #48]	; 0x30
  105a58:	f89d 300b 	ldrb.w	r3, [sp, #11]
  105a5c:	2b01      	cmp	r3, #1
  105a5e:	d11c      	bne.n	105a9a <gpio_irq_set+0xaa>
  105a60:	9b01      	ldr	r3, [sp, #4]
  105a62:	2b00      	cmp	r3, #0
  105a64:	d012      	beq.n	105a8c <gpio_irq_set+0x9c>
  105a66:	4920      	ldr	r1, [pc, #128]	; (105ae8 <gpio_irq_set+0xf8>)
  105a68:	4b1f      	ldr	r3, [pc, #124]	; (105ae8 <gpio_irq_set+0xf8>)
  105a6a:	699a      	ldr	r2, [r3, #24]
  105a6c:	9b05      	ldr	r3, [sp, #20]
  105a6e:	4313      	orrs	r3, r2
  105a70:	618b      	str	r3, [r1, #24]
  105a72:	491d      	ldr	r1, [pc, #116]	; (105ae8 <gpio_irq_set+0xf8>)
  105a74:	4b1c      	ldr	r3, [pc, #112]	; (105ae8 <gpio_irq_set+0xf8>)
  105a76:	6a1a      	ldr	r2, [r3, #32]
  105a78:	9b05      	ldr	r3, [sp, #20]
  105a7a:	4313      	orrs	r3, r2
  105a7c:	620b      	str	r3, [r1, #32]
  105a7e:	491a      	ldr	r1, [pc, #104]	; (105ae8 <gpio_irq_set+0xf8>)
  105a80:	4b19      	ldr	r3, [pc, #100]	; (105ae8 <gpio_irq_set+0xf8>)
  105a82:	691a      	ldr	r2, [r3, #16]
  105a84:	9b05      	ldr	r3, [sp, #20]
  105a86:	4313      	orrs	r3, r2
  105a88:	610b      	str	r3, [r1, #16]
  105a8a:	e022      	b.n	105ad2 <gpio_irq_set+0xe2>
  105a8c:	4916      	ldr	r1, [pc, #88]	; (105ae8 <gpio_irq_set+0xf8>)
  105a8e:	4b16      	ldr	r3, [pc, #88]	; (105ae8 <gpio_irq_set+0xf8>)
  105a90:	695a      	ldr	r2, [r3, #20]
  105a92:	9b05      	ldr	r3, [sp, #20]
  105a94:	4313      	orrs	r3, r2
  105a96:	614b      	str	r3, [r1, #20]
  105a98:	e01b      	b.n	105ad2 <gpio_irq_set+0xe2>
  105a9a:	9b01      	ldr	r3, [sp, #4]
  105a9c:	2b00      	cmp	r3, #0
  105a9e:	d012      	beq.n	105ac6 <gpio_irq_set+0xd6>
  105aa0:	4911      	ldr	r1, [pc, #68]	; (105ae8 <gpio_irq_set+0xf8>)
  105aa2:	4b11      	ldr	r3, [pc, #68]	; (105ae8 <gpio_irq_set+0xf8>)
  105aa4:	699a      	ldr	r2, [r3, #24]
  105aa6:	9b05      	ldr	r3, [sp, #20]
  105aa8:	4313      	orrs	r3, r2
  105aaa:	618b      	str	r3, [r1, #24]
  105aac:	490e      	ldr	r1, [pc, #56]	; (105ae8 <gpio_irq_set+0xf8>)
  105aae:	4b0e      	ldr	r3, [pc, #56]	; (105ae8 <gpio_irq_set+0xf8>)
  105ab0:	6a5a      	ldr	r2, [r3, #36]	; 0x24
  105ab2:	9b05      	ldr	r3, [sp, #20]
  105ab4:	4313      	orrs	r3, r2
  105ab6:	624b      	str	r3, [r1, #36]	; 0x24
  105ab8:	490b      	ldr	r1, [pc, #44]	; (105ae8 <gpio_irq_set+0xf8>)
  105aba:	4b0b      	ldr	r3, [pc, #44]	; (105ae8 <gpio_irq_set+0xf8>)
  105abc:	691a      	ldr	r2, [r3, #16]
  105abe:	9b05      	ldr	r3, [sp, #20]
  105ac0:	4313      	orrs	r3, r2
  105ac2:	610b      	str	r3, [r1, #16]
  105ac4:	e005      	b.n	105ad2 <gpio_irq_set+0xe2>
  105ac6:	4908      	ldr	r1, [pc, #32]	; (105ae8 <gpio_irq_set+0xf8>)
  105ac8:	4b07      	ldr	r3, [pc, #28]	; (105ae8 <gpio_irq_set+0xf8>)
  105aca:	695a      	ldr	r2, [r3, #20]
  105acc:	9b05      	ldr	r3, [sp, #20]
  105ace:	4313      	orrs	r3, r2
  105ad0:	614b      	str	r3, [r1, #20]
  105ad2:	2006      	movs	r0, #6
  105ad4:	f7ff fde0 	bl	105698 <NVIC_EnableIRQ>
  105ad8:	bf00      	nop
  105ada:	b007      	add	sp, #28
  105adc:	f85d fb04 	ldr.w	pc, [sp], #4
  105ae0:	0010e0e8 	.word	0x0010e0e8
  105ae4:	0010e134 	.word	0x0010e134
  105ae8:	4000c000 	.word	0x4000c000

00105aec <fClockGetPeriphClockfrequency>:
  105aec:	4b01      	ldr	r3, [pc, #4]	; (105af4 <fClockGetPeriphClockfrequency+0x8>)
  105aee:	4618      	mov	r0, r3
  105af0:	4770      	bx	lr
  105af2:	bf00      	nop
  105af4:	01e84800 	.word	0x01e84800

00105af8 <i2c_wait>:
  105af8:	b084      	sub	sp, #16
  105afa:	9001      	str	r0, [sp, #4]
  105afc:	2300      	movs	r3, #0
  105afe:	9303      	str	r3, [sp, #12]
  105b00:	9b01      	ldr	r3, [sp, #4]
  105b02:	9303      	str	r3, [sp, #12]
  105b04:	e003      	b.n	105b0e <i2c_wait+0x16>
  105b06:	bf00      	nop
  105b08:	9b03      	ldr	r3, [sp, #12]
  105b0a:	3b01      	subs	r3, #1
  105b0c:	9303      	str	r3, [sp, #12]
  105b0e:	9b03      	ldr	r3, [sp, #12]
  105b10:	2b00      	cmp	r3, #0
  105b12:	d1f8      	bne.n	105b06 <i2c_wait+0xe>
  105b14:	bf00      	nop
  105b16:	b004      	add	sp, #16
  105b18:	4770      	bx	lr
  105b1a:	bf00      	nop

00105b1c <HAL_I2C_Crossbar_config>:
  105b1c:	4a15      	ldr	r2, [pc, #84]	; (105b74 <HAL_I2C_Crossbar_config+0x58>)
  105b1e:	4b15      	ldr	r3, [pc, #84]	; (105b74 <HAL_I2C_Crossbar_config+0x58>)
  105b20:	691b      	ldr	r3, [r3, #16]
  105b22:	f423 5380 	bic.w	r3, r3, #4096	; 0x1000
  105b26:	6113      	str	r3, [r2, #16]
  105b28:	4a13      	ldr	r2, [pc, #76]	; (105b78 <HAL_I2C_Crossbar_config+0x5c>)
  105b2a:	4b13      	ldr	r3, [pc, #76]	; (105b78 <HAL_I2C_Crossbar_config+0x5c>)
  105b2c:	689b      	ldr	r3, [r3, #8]
  105b2e:	f043 030c 	orr.w	r3, r3, #12
  105b32:	6093      	str	r3, [r2, #8]
  105b34:	4a0f      	ldr	r2, [pc, #60]	; (105b74 <HAL_I2C_Crossbar_config+0x58>)
  105b36:	4b0f      	ldr	r3, [pc, #60]	; (105b74 <HAL_I2C_Crossbar_config+0x58>)
  105b38:	691b      	ldr	r3, [r3, #16]
  105b3a:	f023 5380 	bic.w	r3, r3, #268435456	; 0x10000000
  105b3e:	6113      	str	r3, [r2, #16]
  105b40:	4b0e      	ldr	r3, [pc, #56]	; (105b7c <HAL_I2C_Crossbar_config+0x60>)
  105b42:	222f      	movs	r2, #47	; 0x2f
  105b44:	609a      	str	r2, [r3, #8]
  105b46:	4b0d      	ldr	r3, [pc, #52]	; (105b7c <HAL_I2C_Crossbar_config+0x60>)
  105b48:	222f      	movs	r2, #47	; 0x2f
  105b4a:	60da      	str	r2, [r3, #12]
  105b4c:	4a09      	ldr	r2, [pc, #36]	; (105b74 <HAL_I2C_Crossbar_config+0x58>)
  105b4e:	4b09      	ldr	r3, [pc, #36]	; (105b74 <HAL_I2C_Crossbar_config+0x58>)
  105b50:	691b      	ldr	r3, [r3, #16]
  105b52:	f423 3380 	bic.w	r3, r3, #65536	; 0x10000
  105b56:	6113      	str	r3, [r2, #16]
  105b58:	4b09      	ldr	r3, [pc, #36]	; (105b80 <HAL_I2C_Crossbar_config+0x64>)
  105b5a:	2205      	movs	r2, #5
  105b5c:	609a      	str	r2, [r3, #8]
  105b5e:	4b08      	ldr	r3, [pc, #32]	; (105b80 <HAL_I2C_Crossbar_config+0x64>)
  105b60:	2205      	movs	r2, #5
  105b62:	60da      	str	r2, [r3, #12]
  105b64:	4a03      	ldr	r2, [pc, #12]	; (105b74 <HAL_I2C_Crossbar_config+0x58>)
  105b66:	4b03      	ldr	r3, [pc, #12]	; (105b74 <HAL_I2C_Crossbar_config+0x58>)
  105b68:	691b      	ldr	r3, [r3, #16]
  105b6a:	f443 3380 	orr.w	r3, r3, #65536	; 0x10000
  105b6e:	6113      	str	r3, [r2, #16]
  105b70:	bf00      	nop
  105b72:	4770      	bx	lr
  105b74:	4001b000 	.word	0x4001b000
  105b78:	4000c000 	.word	0x4000c000
  105b7c:	4001c000 	.word	0x4001c000
  105b80:	40010000 	.word	0x40010000

00105b84 <HAL_I2C_clock_enable>:
  105b84:	4a03      	ldr	r2, [pc, #12]	; (105b94 <HAL_I2C_clock_enable+0x10>)
  105b86:	4b03      	ldr	r3, [pc, #12]	; (105b94 <HAL_I2C_clock_enable+0x10>)
  105b88:	691b      	ldr	r3, [r3, #16]
  105b8a:	f023 0380 	bic.w	r3, r3, #128	; 0x80
  105b8e:	6113      	str	r3, [r2, #16]
  105b90:	bf00      	nop
  105b92:	4770      	bx	lr
  105b94:	4001b000 	.word	0x4001b000

00105b98 <HAL_I2C_Module_enable>:
  105b98:	4a03      	ldr	r2, [pc, #12]	; (105ba8 <HAL_I2C_Module_enable+0x10>)
  105b9a:	7c13      	ldrb	r3, [r2, #16]
  105b9c:	f043 0380 	orr.w	r3, r3, #128	; 0x80
  105ba0:	7413      	strb	r3, [r2, #16]
  105ba2:	bf00      	nop
  105ba4:	4770      	bx	lr
  105ba6:	bf00      	nop
  105ba8:	40007000 	.word	0x40007000

00105bac <i2c_init>:
  105bac:	b500      	push	{lr}
  105bae:	b085      	sub	sp, #20
  105bb0:	9003      	str	r0, [sp, #12]
  105bb2:	9102      	str	r1, [sp, #8]
  105bb4:	9201      	str	r2, [sp, #4]
  105bb6:	9b02      	ldr	r3, [sp, #8]
  105bb8:	2b08      	cmp	r3, #8
  105bba:	d102      	bne.n	105bc2 <i2c_init+0x16>
  105bbc:	9b01      	ldr	r3, [sp, #4]
  105bbe:	2b04      	cmp	r3, #4
  105bc0:	d004      	beq.n	105bcc <i2c_init+0x20>
  105bc2:	2261      	movs	r2, #97	; 0x61
  105bc4:	4910      	ldr	r1, [pc, #64]	; (105c08 <i2c_init+0x5c>)
  105bc6:	4811      	ldr	r0, [pc, #68]	; (105c0c <i2c_init+0x60>)
  105bc8:	f7ff fa26 	bl	105018 <mbed_assert_internal>
  105bcc:	4b10      	ldr	r3, [pc, #64]	; (105c10 <i2c_init+0x64>)
  105bce:	681b      	ldr	r3, [r3, #0]
  105bd0:	f043 030c 	orr.w	r3, r3, #12
  105bd4:	4a0e      	ldr	r2, [pc, #56]	; (105c10 <i2c_init+0x64>)
  105bd6:	6013      	str	r3, [r2, #0]
  105bd8:	f7ff ffa0 	bl	105b1c <HAL_I2C_Crossbar_config>
  105bdc:	f7ff ffd2 	bl	105b84 <HAL_I2C_clock_enable>
  105be0:	f7ff ffda 	bl	105b98 <HAL_I2C_Module_enable>
  105be4:	4a0b      	ldr	r2, [pc, #44]	; (105c14 <i2c_init+0x68>)
  105be6:	7c13      	ldrb	r3, [r2, #16]
  105be8:	f043 0340 	orr.w	r3, r3, #64	; 0x40
  105bec:	7413      	strb	r3, [r2, #16]
  105bee:	4a09      	ldr	r2, [pc, #36]	; (105c14 <i2c_init+0x68>)
  105bf0:	7c13      	ldrb	r3, [r2, #16]
  105bf2:	f043 0320 	orr.w	r3, r3, #32
  105bf6:	7413      	strb	r3, [r2, #16]
  105bf8:	4907      	ldr	r1, [pc, #28]	; (105c18 <i2c_init+0x6c>)
  105bfa:	9803      	ldr	r0, [sp, #12]
  105bfc:	f000 f80e 	bl	105c1c <i2c_frequency>
  105c00:	bf00      	nop
  105c02:	b005      	add	sp, #20
  105c04:	f85d fb04 	ldr.w	pc, [sp], #4
  105c08:	0010e180 	.word	0x0010e180
  105c0c:	0010e1c8 	.word	0x0010e1c8
  105c10:	3fff538c 	.word	0x3fff538c
  105c14:	40007000 	.word	0x40007000
  105c18:	000186a0 	.word	0x000186a0

00105c1c <i2c_frequency>:
  105c1c:	b500      	push	{lr}
  105c1e:	b085      	sub	sp, #20
  105c20:	9001      	str	r0, [sp, #4]
  105c22:	9100      	str	r1, [sp, #0]
  105c24:	f7ff ff62 	bl	105aec <fClockGetPeriphClockfrequency>
  105c28:	4602      	mov	r2, r0
  105c2a:	9b00      	ldr	r3, [sp, #0]
  105c2c:	fbb2 f3f3 	udiv	r3, r2, r3
  105c30:	089b      	lsrs	r3, r3, #2
  105c32:	3b02      	subs	r3, #2
  105c34:	9303      	str	r3, [sp, #12]
  105c36:	4a09      	ldr	r2, [pc, #36]	; (105c5c <i2c_frequency+0x40>)
  105c38:	9b03      	ldr	r3, [sp, #12]
  105c3a:	b2db      	uxtb	r3, r3
  105c3c:	f003 031f 	and.w	r3, r3, #31
  105c40:	b2d9      	uxtb	r1, r3
  105c42:	7c13      	ldrb	r3, [r2, #16]
  105c44:	f361 0304 	bfi	r3, r1, #0, #5
  105c48:	7413      	strb	r3, [r2, #16]
  105c4a:	4a04      	ldr	r2, [pc, #16]	; (105c5c <i2c_frequency+0x40>)
  105c4c:	9b03      	ldr	r3, [sp, #12]
  105c4e:	095b      	lsrs	r3, r3, #5
  105c50:	b2db      	uxtb	r3, r3
  105c52:	6153      	str	r3, [r2, #20]
  105c54:	bf00      	nop
  105c56:	b005      	add	sp, #20
  105c58:	f85d fb04 	ldr.w	pc, [sp], #4
  105c5c:	40007000 	.word	0x40007000

00105c60 <i2c_stop>:
  105c60:	b082      	sub	sp, #8
  105c62:	9001      	str	r0, [sp, #4]
  105c64:	4b07      	ldr	r3, [pc, #28]	; (105c84 <i2c_stop+0x24>)
  105c66:	2214      	movs	r2, #20
  105c68:	609a      	str	r2, [r3, #8]
  105c6a:	4b06      	ldr	r3, [pc, #24]	; (105c84 <i2c_stop+0x24>)
  105c6c:	681b      	ldr	r3, [r3, #0]
  105c6e:	f003 0334 	and.w	r3, r3, #52	; 0x34
  105c72:	2b00      	cmp	r3, #0
  105c74:	d002      	beq.n	105c7c <i2c_stop+0x1c>
  105c76:	f04f 33ff 	mov.w	r3, #4294967295
  105c7a:	e000      	b.n	105c7e <i2c_stop+0x1e>
  105c7c:	2300      	movs	r3, #0
  105c7e:	4618      	mov	r0, r3
  105c80:	b002      	add	sp, #8
  105c82:	4770      	bx	lr
  105c84:	40007000 	.word	0x40007000

00105c88 <i2c_start>:
  105c88:	b082      	sub	sp, #8
  105c8a:	9001      	str	r0, [sp, #4]
  105c8c:	4b03      	ldr	r3, [pc, #12]	; (105c9c <i2c_start+0x14>)
  105c8e:	2215      	movs	r2, #21
  105c90:	609a      	str	r2, [r3, #8]
  105c92:	2300      	movs	r3, #0
  105c94:	4618      	mov	r0, r3
  105c96:	b002      	add	sp, #8
  105c98:	4770      	bx	lr
  105c9a:	bf00      	nop
  105c9c:	40007000 	.word	0x40007000

00105ca0 <i2c_do_Write>:
  105ca0:	b500      	push	{lr}
  105ca2:	b087      	sub	sp, #28
  105ca4:	9003      	str	r0, [sp, #12]
  105ca6:	9102      	str	r1, [sp, #8]
  105ca8:	9201      	str	r2, [sp, #4]
  105caa:	2300      	movs	r3, #0
  105cac:	f88d 3017 	strb.w	r3, [sp, #23]
  105cb0:	2300      	movs	r3, #0
  105cb2:	9304      	str	r3, [sp, #16]
  105cb4:	e049      	b.n	105d4a <i2c_do_Write+0xaa>
  105cb6:	4b2a      	ldr	r3, [pc, #168]	; (105d60 <i2c_do_Write+0xc0>)
  105cb8:	2212      	movs	r2, #18
  105cba:	609a      	str	r2, [r3, #8]
  105cbc:	20c8      	movs	r0, #200	; 0xc8
  105cbe:	f7ff ff1b 	bl	105af8 <i2c_wait>
  105cc2:	9a02      	ldr	r2, [sp, #8]
  105cc4:	9b04      	ldr	r3, [sp, #16]
  105cc6:	4413      	add	r3, r2
  105cc8:	781b      	ldrb	r3, [r3, #0]
  105cca:	2b13      	cmp	r3, #19
  105ccc:	d118      	bne.n	105d00 <i2c_do_Write+0x60>
  105cce:	4b24      	ldr	r3, [pc, #144]	; (105d60 <i2c_do_Write+0xc0>)
  105cd0:	2210      	movs	r2, #16
  105cd2:	609a      	str	r2, [r3, #8]
  105cd4:	4b22      	ldr	r3, [pc, #136]	; (105d60 <i2c_do_Write+0xc0>)
  105cd6:	2210      	movs	r2, #16
  105cd8:	609a      	str	r2, [r3, #8]
  105cda:	4b21      	ldr	r3, [pc, #132]	; (105d60 <i2c_do_Write+0xc0>)
  105cdc:	2210      	movs	r2, #16
  105cde:	609a      	str	r2, [r3, #8]
  105ce0:	4b1f      	ldr	r3, [pc, #124]	; (105d60 <i2c_do_Write+0xc0>)
  105ce2:	2211      	movs	r2, #17
  105ce4:	609a      	str	r2, [r3, #8]
  105ce6:	4b1e      	ldr	r3, [pc, #120]	; (105d60 <i2c_do_Write+0xc0>)
  105ce8:	2210      	movs	r2, #16
  105cea:	609a      	str	r2, [r3, #8]
  105cec:	4b1c      	ldr	r3, [pc, #112]	; (105d60 <i2c_do_Write+0xc0>)
  105cee:	2210      	movs	r2, #16
  105cf0:	609a      	str	r2, [r3, #8]
  105cf2:	4b1b      	ldr	r3, [pc, #108]	; (105d60 <i2c_do_Write+0xc0>)
  105cf4:	2211      	movs	r2, #17
  105cf6:	609a      	str	r2, [r3, #8]
  105cf8:	4b19      	ldr	r3, [pc, #100]	; (105d60 <i2c_do_Write+0xc0>)
  105cfa:	2211      	movs	r2, #17
  105cfc:	609a      	str	r2, [r3, #8]
  105cfe:	e007      	b.n	105d10 <i2c_do_Write+0x70>
  105d00:	4917      	ldr	r1, [pc, #92]	; (105d60 <i2c_do_Write+0xc0>)
  105d02:	9b04      	ldr	r3, [sp, #16]
  105d04:	1c5a      	adds	r2, r3, #1
  105d06:	9204      	str	r2, [sp, #16]
  105d08:	9a02      	ldr	r2, [sp, #8]
  105d0a:	4413      	add	r3, r2
  105d0c:	781b      	ldrb	r3, [r3, #0]
  105d0e:	608b      	str	r3, [r1, #8]
  105d10:	20c8      	movs	r0, #200	; 0xc8
  105d12:	f7ff fef1 	bl	105af8 <i2c_wait>
  105d16:	4b12      	ldr	r3, [pc, #72]	; (105d60 <i2c_do_Write+0xc0>)
  105d18:	2216      	movs	r2, #22
  105d1a:	609a      	str	r2, [r3, #8]
  105d1c:	20c8      	movs	r0, #200	; 0xc8
  105d1e:	f7ff feeb 	bl	105af8 <i2c_wait>
  105d22:	bf00      	nop
  105d24:	4b0e      	ldr	r3, [pc, #56]	; (105d60 <i2c_do_Write+0xc0>)
  105d26:	681b      	ldr	r3, [r3, #0]
  105d28:	f003 0310 	and.w	r3, r3, #16
  105d2c:	2b00      	cmp	r3, #0
  105d2e:	d1f9      	bne.n	105d24 <i2c_do_Write+0x84>
  105d30:	20c8      	movs	r0, #200	; 0xc8
  105d32:	f7ff fee1 	bl	105af8 <i2c_wait>
  105d36:	4b0a      	ldr	r3, [pc, #40]	; (105d60 <i2c_do_Write+0xc0>)
  105d38:	681b      	ldr	r3, [r3, #0]
  105d3a:	f003 0304 	and.w	r3, r3, #4
  105d3e:	2b00      	cmp	r3, #0
  105d40:	d003      	beq.n	105d4a <i2c_do_Write+0xaa>
  105d42:	2302      	movs	r3, #2
  105d44:	f88d 3017 	strb.w	r3, [sp, #23]
  105d48:	e003      	b.n	105d52 <i2c_do_Write+0xb2>
  105d4a:	9a04      	ldr	r2, [sp, #16]
  105d4c:	9b01      	ldr	r3, [sp, #4]
  105d4e:	429a      	cmp	r2, r3
  105d50:	d3b1      	bcc.n	105cb6 <i2c_do_Write+0x16>
  105d52:	f89d 3017 	ldrb.w	r3, [sp, #23]
  105d56:	4618      	mov	r0, r3
  105d58:	b007      	add	sp, #28
  105d5a:	f85d fb04 	ldr.w	pc, [sp], #4
  105d5e:	bf00      	nop
  105d60:	40007000 	.word	0x40007000

00105d64 <i2c_do_read>:
  105d64:	b500      	push	{lr}
  105d66:	b087      	sub	sp, #28
  105d68:	9003      	str	r0, [sp, #12]
  105d6a:	9102      	str	r1, [sp, #8]
  105d6c:	9201      	str	r2, [sp, #4]
  105d6e:	2300      	movs	r3, #0
  105d70:	9305      	str	r3, [sp, #20]
  105d72:	2300      	movs	r3, #0
  105d74:	f88d 3013 	strb.w	r3, [sp, #19]
  105d78:	e03a      	b.n	105df0 <i2c_do_read+0x8c>
  105d7a:	4b22      	ldr	r3, [pc, #136]	; (105e04 <i2c_do_read+0xa0>)
  105d7c:	2213      	movs	r2, #19
  105d7e:	609a      	str	r2, [r3, #8]
  105d80:	20c8      	movs	r0, #200	; 0xc8
  105d82:	f7ff feb9 	bl	105af8 <i2c_wait>
  105d86:	e009      	b.n	105d9c <i2c_do_read+0x38>
  105d88:	4b1e      	ldr	r3, [pc, #120]	; (105e04 <i2c_do_read+0xa0>)
  105d8a:	681b      	ldr	r3, [r3, #0]
  105d8c:	f003 0304 	and.w	r3, r3, #4
  105d90:	2b00      	cmp	r3, #0
  105d92:	d003      	beq.n	105d9c <i2c_do_read+0x38>
  105d94:	2302      	movs	r3, #2
  105d96:	f88d 3013 	strb.w	r3, [sp, #19]
  105d9a:	e005      	b.n	105da8 <i2c_do_read+0x44>
  105d9c:	4b19      	ldr	r3, [pc, #100]	; (105e04 <i2c_do_read+0xa0>)
  105d9e:	681b      	ldr	r3, [r3, #0]
  105da0:	f003 0302 	and.w	r3, r3, #2
  105da4:	2b00      	cmp	r3, #0
  105da6:	d0ef      	beq.n	105d88 <i2c_do_read+0x24>
  105da8:	9b05      	ldr	r3, [sp, #20]
  105daa:	1c5a      	adds	r2, r3, #1
  105dac:	9205      	str	r2, [sp, #20]
  105dae:	9a02      	ldr	r2, [sp, #8]
  105db0:	4413      	add	r3, r2
  105db2:	4a14      	ldr	r2, [pc, #80]	; (105e04 <i2c_do_read+0xa0>)
  105db4:	6852      	ldr	r2, [r2, #4]
  105db6:	b2d2      	uxtb	r2, r2
  105db8:	701a      	strb	r2, [r3, #0]
  105dba:	9a05      	ldr	r2, [sp, #20]
  105dbc:	9b01      	ldr	r3, [sp, #4]
  105dbe:	429a      	cmp	r2, r3
  105dc0:	d202      	bcs.n	105dc8 <i2c_do_read+0x64>
  105dc2:	4b10      	ldr	r3, [pc, #64]	; (105e04 <i2c_do_read+0xa0>)
  105dc4:	2210      	movs	r2, #16
  105dc6:	609a      	str	r2, [r3, #8]
  105dc8:	4b0e      	ldr	r3, [pc, #56]	; (105e04 <i2c_do_read+0xa0>)
  105dca:	681b      	ldr	r3, [r3, #0]
  105dcc:	f003 0380 	and.w	r3, r3, #128	; 0x80
  105dd0:	2b00      	cmp	r3, #0
  105dd2:	d003      	beq.n	105ddc <i2c_do_read+0x78>
  105dd4:	2303      	movs	r3, #3
  105dd6:	f88d 3013 	strb.w	r3, [sp, #19]
  105dda:	e00d      	b.n	105df8 <i2c_do_read+0x94>
  105ddc:	4b09      	ldr	r3, [pc, #36]	; (105e04 <i2c_do_read+0xa0>)
  105dde:	681b      	ldr	r3, [r3, #0]
  105de0:	f003 0304 	and.w	r3, r3, #4
  105de4:	2b00      	cmp	r3, #0
  105de6:	d003      	beq.n	105df0 <i2c_do_read+0x8c>
  105de8:	2302      	movs	r3, #2
  105dea:	f88d 3013 	strb.w	r3, [sp, #19]
  105dee:	e003      	b.n	105df8 <i2c_do_read+0x94>
  105df0:	9a05      	ldr	r2, [sp, #20]
  105df2:	9b01      	ldr	r3, [sp, #4]
  105df4:	429a      	cmp	r2, r3
  105df6:	d3c0      	bcc.n	105d7a <i2c_do_read+0x16>
  105df8:	f89d 3013 	ldrb.w	r3, [sp, #19]
  105dfc:	4618      	mov	r0, r3
  105dfe:	b007      	add	sp, #28
  105e00:	f85d fb04 	ldr.w	pc, [sp], #4
  105e04:	40007000 	.word	0x40007000

00105e08 <i2c_write>:
  105e08:	b500      	push	{lr}
  105e0a:	b087      	sub	sp, #28
  105e0c:	9003      	str	r0, [sp, #12]
  105e0e:	9102      	str	r1, [sp, #8]
  105e10:	9201      	str	r2, [sp, #4]
  105e12:	9300      	str	r3, [sp, #0]
  105e14:	2300      	movs	r3, #0
  105e16:	f88d 3017 	strb.w	r3, [sp, #23]
  105e1a:	9803      	ldr	r0, [sp, #12]
  105e1c:	f7ff ff34 	bl	105c88 <i2c_start>
  105e20:	ab02      	add	r3, sp, #8
  105e22:	2201      	movs	r2, #1
  105e24:	4619      	mov	r1, r3
  105e26:	9803      	ldr	r0, [sp, #12]
  105e28:	f7ff ff3a 	bl	105ca0 <i2c_do_Write>
  105e2c:	4603      	mov	r3, r0
  105e2e:	f88d 3017 	strb.w	r3, [sp, #23]
  105e32:	f89d 3017 	ldrb.w	r3, [sp, #23]
  105e36:	2b00      	cmp	r3, #0
  105e38:	d005      	beq.n	105e46 <i2c_write+0x3e>
  105e3a:	9803      	ldr	r0, [sp, #12]
  105e3c:	f7ff ff10 	bl	105c60 <i2c_stop>
  105e40:	f89d 3017 	ldrb.w	r3, [sp, #23]
  105e44:	e019      	b.n	105e7a <i2c_write+0x72>
  105e46:	9b00      	ldr	r3, [sp, #0]
  105e48:	461a      	mov	r2, r3
  105e4a:	9901      	ldr	r1, [sp, #4]
  105e4c:	9803      	ldr	r0, [sp, #12]
  105e4e:	f7ff ff27 	bl	105ca0 <i2c_do_Write>
  105e52:	4603      	mov	r3, r0
  105e54:	f88d 3017 	strb.w	r3, [sp, #23]
  105e58:	f89d 3017 	ldrb.w	r3, [sp, #23]
  105e5c:	2b00      	cmp	r3, #0
  105e5e:	d005      	beq.n	105e6c <i2c_write+0x64>
  105e60:	9803      	ldr	r0, [sp, #12]
  105e62:	f7ff fefd 	bl	105c60 <i2c_stop>
  105e66:	f89d 3017 	ldrb.w	r3, [sp, #23]
  105e6a:	e006      	b.n	105e7a <i2c_write+0x72>
  105e6c:	9b08      	ldr	r3, [sp, #32]
  105e6e:	2b00      	cmp	r3, #0
  105e70:	d002      	beq.n	105e78 <i2c_write+0x70>
  105e72:	9803      	ldr	r0, [sp, #12]
  105e74:	f7ff fef4 	bl	105c60 <i2c_stop>
  105e78:	9b00      	ldr	r3, [sp, #0]
  105e7a:	4618      	mov	r0, r3
  105e7c:	b007      	add	sp, #28
  105e7e:	f85d fb04 	ldr.w	pc, [sp], #4
  105e82:	bf00      	nop

00105e84 <i2c_read>:
  105e84:	b500      	push	{lr}
  105e86:	b087      	sub	sp, #28
  105e88:	9003      	str	r0, [sp, #12]
  105e8a:	9102      	str	r1, [sp, #8]
  105e8c:	9201      	str	r2, [sp, #4]
  105e8e:	9300      	str	r3, [sp, #0]
  105e90:	2300      	movs	r3, #0
  105e92:	f88d 3017 	strb.w	r3, [sp, #23]
  105e96:	9803      	ldr	r0, [sp, #12]
  105e98:	f7ff fef6 	bl	105c88 <i2c_start>
  105e9c:	9b02      	ldr	r3, [sp, #8]
  105e9e:	f043 0301 	orr.w	r3, r3, #1
  105ea2:	9302      	str	r3, [sp, #8]
  105ea4:	ab02      	add	r3, sp, #8
  105ea6:	2201      	movs	r2, #1
  105ea8:	4619      	mov	r1, r3
  105eaa:	9803      	ldr	r0, [sp, #12]
  105eac:	f7ff fef8 	bl	105ca0 <i2c_do_Write>
  105eb0:	4603      	mov	r3, r0
  105eb2:	f88d 3017 	strb.w	r3, [sp, #23]
  105eb6:	f89d 3017 	ldrb.w	r3, [sp, #23]
  105eba:	2b00      	cmp	r3, #0
  105ebc:	d005      	beq.n	105eca <i2c_read+0x46>
  105ebe:	9803      	ldr	r0, [sp, #12]
  105ec0:	f7ff fece 	bl	105c60 <i2c_stop>
  105ec4:	f89d 3017 	ldrb.w	r3, [sp, #23]
  105ec8:	e019      	b.n	105efe <i2c_read+0x7a>
  105eca:	9b00      	ldr	r3, [sp, #0]
  105ecc:	461a      	mov	r2, r3
  105ece:	9901      	ldr	r1, [sp, #4]
  105ed0:	9803      	ldr	r0, [sp, #12]
  105ed2:	f7ff ff47 	bl	105d64 <i2c_do_read>
  105ed6:	4603      	mov	r3, r0
  105ed8:	f88d 3017 	strb.w	r3, [sp, #23]
  105edc:	f89d 3017 	ldrb.w	r3, [sp, #23]
  105ee0:	2b00      	cmp	r3, #0
  105ee2:	d005      	beq.n	105ef0 <i2c_read+0x6c>
  105ee4:	9803      	ldr	r0, [sp, #12]
  105ee6:	f7ff febb 	bl	105c60 <i2c_stop>
  105eea:	f89d 3017 	ldrb.w	r3, [sp, #23]
  105eee:	e006      	b.n	105efe <i2c_read+0x7a>
  105ef0:	9b08      	ldr	r3, [sp, #32]
  105ef2:	2b00      	cmp	r3, #0
  105ef4:	d002      	beq.n	105efc <i2c_read+0x78>
  105ef6:	9803      	ldr	r0, [sp, #12]
  105ef8:	f7ff feb2 	bl	105c60 <i2c_stop>
  105efc:	9b00      	ldr	r3, [sp, #0]
  105efe:	4618      	mov	r0, r3
  105f00:	b007      	add	sp, #28
  105f02:	f85d fb04 	ldr.w	pc, [sp], #4
  105f06:	bf00      	nop

00105f08 <expReset_AppLedON>:
  105f08:	b500      	push	{lr}
  105f0a:	b087      	sub	sp, #28
  105f0c:	ab03      	add	r3, sp, #12
  105f0e:	2100      	movs	r1, #0
  105f10:	460a      	mov	r2, r1
  105f12:	801a      	strh	r2, [r3, #0]
  105f14:	460a      	mov	r2, r1
  105f16:	709a      	strb	r2, [r3, #2]
  105f18:	f7ff fe00 	bl	105b1c <HAL_I2C_Crossbar_config>
  105f1c:	f7ff fe32 	bl	105b84 <HAL_I2C_clock_enable>
  105f20:	f7ff fe3a 	bl	105b98 <HAL_I2C_Module_enable>
  105f24:	4a45      	ldr	r2, [pc, #276]	; (10603c <expReset_AppLedON+0x134>)
  105f26:	7c13      	ldrb	r3, [r2, #16]
  105f28:	f043 0340 	orr.w	r3, r3, #64	; 0x40
  105f2c:	7413      	strb	r3, [r2, #16]
  105f2e:	4a43      	ldr	r2, [pc, #268]	; (10603c <expReset_AppLedON+0x134>)
  105f30:	7c13      	ldrb	r3, [r2, #16]
  105f32:	f043 0320 	orr.w	r3, r3, #32
  105f36:	7413      	strb	r3, [r2, #16]
  105f38:	4941      	ldr	r1, [pc, #260]	; (106040 <expReset_AppLedON+0x138>)
  105f3a:	2000      	movs	r0, #0
  105f3c:	f7ff fe6e 	bl	105c1c <i2c_frequency>
  105f40:	2320      	movs	r3, #32
  105f42:	f88d 300c 	strb.w	r3, [sp, #12]
  105f46:	2307      	movs	r3, #7
  105f48:	f88d 300d 	strb.w	r3, [sp, #13]
  105f4c:	2300      	movs	r3, #0
  105f4e:	f88d 300e 	strb.w	r3, [sp, #14]
  105f52:	2000      	movs	r0, #0
  105f54:	f7ff fe98 	bl	105c88 <i2c_start>
  105f58:	ab03      	add	r3, sp, #12
  105f5a:	2203      	movs	r2, #3
  105f5c:	4619      	mov	r1, r3
  105f5e:	2000      	movs	r0, #0
  105f60:	f7ff fe9e 	bl	105ca0 <i2c_do_Write>
  105f64:	2000      	movs	r0, #0
  105f66:	f7ff fe7b 	bl	105c60 <i2c_stop>
  105f6a:	2320      	movs	r3, #32
  105f6c:	f88d 300c 	strb.w	r3, [sp, #12]
  105f70:	2303      	movs	r3, #3
  105f72:	f88d 300d 	strb.w	r3, [sp, #13]
  105f76:	2300      	movs	r3, #0
  105f78:	f88d 300e 	strb.w	r3, [sp, #14]
  105f7c:	2000      	movs	r0, #0
  105f7e:	f7ff fe83 	bl	105c88 <i2c_start>
  105f82:	ab03      	add	r3, sp, #12
  105f84:	2203      	movs	r2, #3
  105f86:	4619      	mov	r1, r3
  105f88:	2000      	movs	r0, #0
  105f8a:	f7ff fe89 	bl	105ca0 <i2c_do_Write>
  105f8e:	2000      	movs	r0, #0
  105f90:	f7ff fe66 	bl	105c60 <i2c_stop>
  105f94:	f64f 70ff 	movw	r0, #65535	; 0xffff
  105f98:	f7ff fdae 	bl	105af8 <i2c_wait>
  105f9c:	2320      	movs	r3, #32
  105f9e:	f88d 300c 	strb.w	r3, [sp, #12]
  105fa2:	2303      	movs	r3, #3
  105fa4:	f88d 300d 	strb.w	r3, [sp, #13]
  105fa8:	23ff      	movs	r3, #255	; 0xff
  105faa:	f88d 300e 	strb.w	r3, [sp, #14]
  105fae:	2000      	movs	r0, #0
  105fb0:	f7ff fe6a 	bl	105c88 <i2c_start>
  105fb4:	ab03      	add	r3, sp, #12
  105fb6:	2203      	movs	r2, #3
  105fb8:	4619      	mov	r1, r3
  105fba:	2000      	movs	r0, #0
  105fbc:	f7ff fe70 	bl	105ca0 <i2c_do_Write>
  105fc0:	2000      	movs	r0, #0
  105fc2:	f7ff fe4d 	bl	105c60 <i2c_stop>
  105fc6:	4a1f      	ldr	r2, [pc, #124]	; (106044 <expReset_AppLedON+0x13c>)
  105fc8:	466b      	mov	r3, sp
  105fca:	6810      	ldr	r0, [r2, #0]
  105fcc:	6851      	ldr	r1, [r2, #4]
  105fce:	c303      	stmia	r3!, {r0, r1}
  105fd0:	8911      	ldrh	r1, [r2, #8]
  105fd2:	7a92      	ldrb	r2, [r2, #10]
  105fd4:	8019      	strh	r1, [r3, #0]
  105fd6:	709a      	strb	r2, [r3, #2]
  105fd8:	2306      	movs	r3, #6
  105fda:	f88d 300c 	strb.w	r3, [sp, #12]
  105fde:	23ff      	movs	r3, #255	; 0xff
  105fe0:	f88d 300d 	strb.w	r3, [sp, #13]
  105fe4:	23ff      	movs	r3, #255	; 0xff
  105fe6:	f88d 300e 	strb.w	r3, [sp, #14]
  105fea:	230b      	movs	r3, #11
  105fec:	9304      	str	r3, [sp, #16]
  105fee:	2300      	movs	r3, #0
  105ff0:	9305      	str	r3, [sp, #20]
  105ff2:	e01a      	b.n	10602a <expReset_AppLedON+0x122>
  105ff4:	2000      	movs	r0, #0
  105ff6:	f7ff fe47 	bl	105c88 <i2c_start>
  105ffa:	466a      	mov	r2, sp
  105ffc:	9b05      	ldr	r3, [sp, #20]
  105ffe:	4413      	add	r3, r2
  106000:	2201      	movs	r2, #1
  106002:	4619      	mov	r1, r3
  106004:	2000      	movs	r0, #0
  106006:	f7ff fe4b 	bl	105ca0 <i2c_do_Write>
  10600a:	ab03      	add	r3, sp, #12
  10600c:	2203      	movs	r2, #3
  10600e:	4619      	mov	r1, r3
  106010:	2000      	movs	r0, #0
  106012:	f7ff fe45 	bl	105ca0 <i2c_do_Write>
  106016:	2000      	movs	r0, #0
  106018:	f7ff fe22 	bl	105c60 <i2c_stop>
  10601c:	f64f 70ff 	movw	r0, #65535	; 0xffff
  106020:	f7ff fd6a 	bl	105af8 <i2c_wait>
  106024:	9b05      	ldr	r3, [sp, #20]
  106026:	3301      	adds	r3, #1
  106028:	9305      	str	r3, [sp, #20]
  10602a:	9a05      	ldr	r2, [sp, #20]
  10602c:	9b04      	ldr	r3, [sp, #16]
  10602e:	429a      	cmp	r2, r3
  106030:	d9e0      	bls.n	105ff4 <expReset_AppLedON+0xec>
  106032:	bf00      	nop
  106034:	b007      	add	sp, #28
  106036:	f85d fb04 	ldr.w	pc, [sp], #4
  10603a:	bf00      	nop
  10603c:	40007000 	.word	0x40007000
  106040:	000f4240 	.word	0x000f4240
  106044:	0010e1e4 	.word	0x0010e1e4

00106048 <fClockGetPeriphClockfrequency>:
  106048:	4b01      	ldr	r3, [pc, #4]	; (106050 <fClockGetPeriphClockfrequency+0x8>)
  10604a:	4618      	mov	r0, r3
  10604c:	4770      	bx	lr
  10604e:	bf00      	nop
  106050:	01e84800 	.word	0x01e84800

00106054 <serial_init>:
  106054:	b500      	push	{lr}
  106056:	b085      	sub	sp, #20
  106058:	9003      	str	r0, [sp, #12]
  10605a:	9102      	str	r1, [sp, #8]
  10605c:	9201      	str	r2, [sp, #4]
  10605e:	9b02      	ldr	r3, [sp, #8]
  106060:	2b01      	cmp	r3, #1
  106062:	d003      	beq.n	10606c <serial_init+0x18>
  106064:	9b02      	ldr	r3, [sp, #8]
  106066:	f5b3 7f80 	cmp.w	r3, #256	; 0x100
  10606a:	d106      	bne.n	10607a <serial_init+0x26>
  10606c:	9b01      	ldr	r3, [sp, #4]
  10606e:	2b02      	cmp	r3, #2
  106070:	d008      	beq.n	106084 <serial_init+0x30>
  106072:	9b01      	ldr	r3, [sp, #4]
  106074:	f5b3 7f00 	cmp.w	r3, #512	; 0x200
  106078:	d004      	beq.n	106084 <serial_init+0x30>
  10607a:	223a      	movs	r2, #58	; 0x3a
  10607c:	4924      	ldr	r1, [pc, #144]	; (106110 <serial_init+0xbc>)
  10607e:	4825      	ldr	r0, [pc, #148]	; (106114 <serial_init+0xc0>)
  106080:	f7fe ffca 	bl	105018 <mbed_assert_internal>
  106084:	9b02      	ldr	r3, [sp, #8]
  106086:	2b01      	cmp	r3, #1
  106088:	d113      	bne.n	1060b2 <serial_init+0x5e>
  10608a:	9b01      	ldr	r3, [sp, #4]
  10608c:	2b02      	cmp	r3, #2
  10608e:	d110      	bne.n	1060b2 <serial_init+0x5e>
  106090:	9b03      	ldr	r3, [sp, #12]
  106092:	4a21      	ldr	r2, [pc, #132]	; (106118 <serial_init+0xc4>)
  106094:	601a      	str	r2, [r3, #0]
  106096:	9b03      	ldr	r3, [sp, #12]
  106098:	2200      	movs	r2, #0
  10609a:	605a      	str	r2, [r3, #4]
  10609c:	4b1f      	ldr	r3, [pc, #124]	; (10611c <serial_init+0xc8>)
  10609e:	681b      	ldr	r3, [r3, #0]
  1060a0:	f043 0303 	orr.w	r3, r3, #3
  1060a4:	4a1d      	ldr	r2, [pc, #116]	; (10611c <serial_init+0xc8>)
  1060a6:	6013      	str	r3, [r2, #0]
  1060a8:	f000 f868 	bl	10617c <HAL_Serial1_crossbar_Enable>
  1060ac:	f000 f8ca 	bl	106244 <HAL_serial1_clock_enable>
  1060b0:	e01b      	b.n	1060ea <serial_init+0x96>
  1060b2:	9b02      	ldr	r3, [sp, #8]
  1060b4:	f5b3 7f80 	cmp.w	r3, #256	; 0x100
  1060b8:	d117      	bne.n	1060ea <serial_init+0x96>
  1060ba:	9b01      	ldr	r3, [sp, #4]
  1060bc:	f5b3 7f00 	cmp.w	r3, #512	; 0x200
  1060c0:	d113      	bne.n	1060ea <serial_init+0x96>
  1060c2:	9b03      	ldr	r3, [sp, #12]
  1060c4:	4a16      	ldr	r2, [pc, #88]	; (106120 <serial_init+0xcc>)
  1060c6:	601a      	str	r2, [r3, #0]
  1060c8:	9b03      	ldr	r3, [sp, #12]
  1060ca:	2201      	movs	r2, #1
  1060cc:	605a      	str	r2, [r3, #4]
  1060ce:	4b13      	ldr	r3, [pc, #76]	; (10611c <serial_init+0xc8>)
  1060d0:	681b      	ldr	r3, [r3, #0]
  1060d2:	f443 7340 	orr.w	r3, r3, #768	; 0x300
  1060d6:	4a11      	ldr	r2, [pc, #68]	; (10611c <serial_init+0xc8>)
  1060d8:	6013      	str	r3, [r2, #0]
  1060da:	f000 f823 	bl	106124 <HAL_Serial2_crossbar_Enable>
  1060de:	f000 f8a7 	bl	106230 <HAL_serial2_clock_enable>
  1060e2:	9b03      	ldr	r3, [sp, #12]
  1060e4:	681b      	ldr	r3, [r3, #0]
  1060e6:	2200      	movs	r2, #0
  1060e8:	605a      	str	r2, [r3, #4]
  1060ea:	f44f 31e1 	mov.w	r1, #115200	; 0x1c200
  1060ee:	9803      	ldr	r0, [sp, #12]
  1060f0:	f000 f870 	bl	1061d4 <serial_baud>
  1060f4:	2302      	movs	r3, #2
  1060f6:	2200      	movs	r2, #0
  1060f8:	2108      	movs	r1, #8
  1060fa:	9803      	ldr	r0, [sp, #12]
  1060fc:	f000 f8ac 	bl	106258 <serial_format>
  106100:	9b03      	ldr	r3, [sp, #12]
  106102:	681b      	ldr	r3, [r3, #0]
  106104:	220f      	movs	r2, #15
  106106:	609a      	str	r2, [r3, #8]
  106108:	bf00      	nop
  10610a:	b005      	add	sp, #20
  10610c:	f85d fb04 	ldr.w	pc, [sp], #4
  106110:	0010e1f0 	.word	0x0010e1f0
  106114:	0010e23c 	.word	0x0010e23c
  106118:	40005000 	.word	0x40005000
  10611c:	3fff538c 	.word	0x3fff538c
  106120:	40008000 	.word	0x40008000

00106124 <HAL_Serial2_crossbar_Enable>:
  106124:	4a12      	ldr	r2, [pc, #72]	; (106170 <HAL_Serial2_crossbar_Enable+0x4c>)
  106126:	4b12      	ldr	r3, [pc, #72]	; (106170 <HAL_Serial2_crossbar_Enable+0x4c>)
  106128:	691b      	ldr	r3, [r3, #16]
  10612a:	f023 5380 	bic.w	r3, r3, #268435456	; 0x10000000
  10612e:	6113      	str	r3, [r2, #16]
  106130:	4b10      	ldr	r3, [pc, #64]	; (106174 <HAL_Serial2_crossbar_Enable+0x50>)
  106132:	2225      	movs	r2, #37	; 0x25
  106134:	621a      	str	r2, [r3, #32]
  106136:	4b0f      	ldr	r3, [pc, #60]	; (106174 <HAL_Serial2_crossbar_Enable+0x50>)
  106138:	2204      	movs	r2, #4
  10613a:	625a      	str	r2, [r3, #36]	; 0x24
  10613c:	4a0c      	ldr	r2, [pc, #48]	; (106170 <HAL_Serial2_crossbar_Enable+0x4c>)
  10613e:	4b0c      	ldr	r3, [pc, #48]	; (106170 <HAL_Serial2_crossbar_Enable+0x4c>)
  106140:	691b      	ldr	r3, [r3, #16]
  106142:	f043 5380 	orr.w	r3, r3, #268435456	; 0x10000000
  106146:	6113      	str	r3, [r2, #16]
  106148:	4a09      	ldr	r2, [pc, #36]	; (106170 <HAL_Serial2_crossbar_Enable+0x4c>)
  10614a:	4b09      	ldr	r3, [pc, #36]	; (106170 <HAL_Serial2_crossbar_Enable+0x4c>)
  10614c:	691b      	ldr	r3, [r3, #16]
  10614e:	f423 3380 	bic.w	r3, r3, #65536	; 0x10000
  106152:	6113      	str	r3, [r2, #16]
  106154:	4b08      	ldr	r3, [pc, #32]	; (106178 <HAL_Serial2_crossbar_Enable+0x54>)
  106156:	2207      	movs	r2, #7
  106158:	621a      	str	r2, [r3, #32]
  10615a:	4b07      	ldr	r3, [pc, #28]	; (106178 <HAL_Serial2_crossbar_Enable+0x54>)
  10615c:	2207      	movs	r2, #7
  10615e:	625a      	str	r2, [r3, #36]	; 0x24
  106160:	4a03      	ldr	r2, [pc, #12]	; (106170 <HAL_Serial2_crossbar_Enable+0x4c>)
  106162:	4b03      	ldr	r3, [pc, #12]	; (106170 <HAL_Serial2_crossbar_Enable+0x4c>)
  106164:	691b      	ldr	r3, [r3, #16]
  106166:	f443 3380 	orr.w	r3, r3, #65536	; 0x10000
  10616a:	6113      	str	r3, [r2, #16]
  10616c:	bf00      	nop
  10616e:	4770      	bx	lr
  106170:	4001b000 	.word	0x4001b000
  106174:	4001c000 	.word	0x4001c000
  106178:	40010000 	.word	0x40010000

0010617c <HAL_Serial1_crossbar_Enable>:
  10617c:	4a12      	ldr	r2, [pc, #72]	; (1061c8 <HAL_Serial1_crossbar_Enable+0x4c>)
  10617e:	4b12      	ldr	r3, [pc, #72]	; (1061c8 <HAL_Serial1_crossbar_Enable+0x4c>)
  106180:	691b      	ldr	r3, [r3, #16]
  106182:	f023 5380 	bic.w	r3, r3, #268435456	; 0x10000000
  106186:	6113      	str	r3, [r2, #16]
  106188:	4b10      	ldr	r3, [pc, #64]	; (1061cc <HAL_Serial1_crossbar_Enable+0x50>)
  10618a:	2207      	movs	r2, #7
  10618c:	601a      	str	r2, [r3, #0]
  10618e:	4b0f      	ldr	r3, [pc, #60]	; (1061cc <HAL_Serial1_crossbar_Enable+0x50>)
  106190:	2204      	movs	r2, #4
  106192:	605a      	str	r2, [r3, #4]
  106194:	4a0c      	ldr	r2, [pc, #48]	; (1061c8 <HAL_Serial1_crossbar_Enable+0x4c>)
  106196:	4b0c      	ldr	r3, [pc, #48]	; (1061c8 <HAL_Serial1_crossbar_Enable+0x4c>)
  106198:	691b      	ldr	r3, [r3, #16]
  10619a:	f043 5380 	orr.w	r3, r3, #268435456	; 0x10000000
  10619e:	6113      	str	r3, [r2, #16]
  1061a0:	4a09      	ldr	r2, [pc, #36]	; (1061c8 <HAL_Serial1_crossbar_Enable+0x4c>)
  1061a2:	4b09      	ldr	r3, [pc, #36]	; (1061c8 <HAL_Serial1_crossbar_Enable+0x4c>)
  1061a4:	691b      	ldr	r3, [r3, #16]
  1061a6:	f423 3380 	bic.w	r3, r3, #65536	; 0x10000
  1061aa:	6113      	str	r3, [r2, #16]
  1061ac:	4b08      	ldr	r3, [pc, #32]	; (1061d0 <HAL_Serial1_crossbar_Enable+0x54>)
  1061ae:	2207      	movs	r2, #7
  1061b0:	601a      	str	r2, [r3, #0]
  1061b2:	4b07      	ldr	r3, [pc, #28]	; (1061d0 <HAL_Serial1_crossbar_Enable+0x54>)
  1061b4:	2207      	movs	r2, #7
  1061b6:	605a      	str	r2, [r3, #4]
  1061b8:	4a03      	ldr	r2, [pc, #12]	; (1061c8 <HAL_Serial1_crossbar_Enable+0x4c>)
  1061ba:	4b03      	ldr	r3, [pc, #12]	; (1061c8 <HAL_Serial1_crossbar_Enable+0x4c>)
  1061bc:	691b      	ldr	r3, [r3, #16]
  1061be:	f443 3380 	orr.w	r3, r3, #65536	; 0x10000
  1061c2:	6113      	str	r3, [r2, #16]
  1061c4:	bf00      	nop
  1061c6:	4770      	bx	lr
  1061c8:	4001b000 	.word	0x4001b000
  1061cc:	4001c000 	.word	0x4001c000
  1061d0:	40010000 	.word	0x40010000

001061d4 <serial_baud>:
  1061d4:	b500      	push	{lr}
  1061d6:	b085      	sub	sp, #20
  1061d8:	9001      	str	r0, [sp, #4]
  1061da:	9100      	str	r1, [sp, #0]
  1061dc:	f7ff ff34 	bl	106048 <fClockGetPeriphClockfrequency>
  1061e0:	4602      	mov	r2, r0
  1061e2:	9b00      	ldr	r3, [sp, #0]
  1061e4:	fbb2 f3f3 	udiv	r3, r2, r3
  1061e8:	091b      	lsrs	r3, r3, #4
  1061ea:	f8ad 300e 	strh.w	r3, [sp, #14]
  1061ee:	9b01      	ldr	r3, [sp, #4]
  1061f0:	681b      	ldr	r3, [r3, #0]
  1061f2:	9a01      	ldr	r2, [sp, #4]
  1061f4:	6812      	ldr	r2, [r2, #0]
  1061f6:	68d2      	ldr	r2, [r2, #12]
  1061f8:	f042 0280 	orr.w	r2, r2, #128	; 0x80
  1061fc:	60da      	str	r2, [r3, #12]
  1061fe:	9b01      	ldr	r3, [sp, #4]
  106200:	681b      	ldr	r3, [r3, #0]
  106202:	f8bd 200e 	ldrh.w	r2, [sp, #14]
  106206:	b2d2      	uxtb	r2, r2
  106208:	601a      	str	r2, [r3, #0]
  10620a:	9b01      	ldr	r3, [sp, #4]
  10620c:	681b      	ldr	r3, [r3, #0]
  10620e:	f8bd 200e 	ldrh.w	r2, [sp, #14]
  106212:	0a12      	lsrs	r2, r2, #8
  106214:	b292      	uxth	r2, r2
  106216:	605a      	str	r2, [r3, #4]
  106218:	9b01      	ldr	r3, [sp, #4]
  10621a:	681b      	ldr	r3, [r3, #0]
  10621c:	9a01      	ldr	r2, [sp, #4]
  10621e:	6812      	ldr	r2, [r2, #0]
  106220:	68d2      	ldr	r2, [r2, #12]
  106222:	f002 027f 	and.w	r2, r2, #127	; 0x7f
  106226:	60da      	str	r2, [r3, #12]
  106228:	bf00      	nop
  10622a:	b005      	add	sp, #20
  10622c:	f85d fb04 	ldr.w	pc, [sp], #4

00106230 <HAL_serial2_clock_enable>:
  106230:	4a03      	ldr	r2, [pc, #12]	; (106240 <HAL_serial2_clock_enable+0x10>)
  106232:	4b03      	ldr	r3, [pc, #12]	; (106240 <HAL_serial2_clock_enable+0x10>)
  106234:	691b      	ldr	r3, [r3, #16]
  106236:	f423 7380 	bic.w	r3, r3, #256	; 0x100
  10623a:	6113      	str	r3, [r2, #16]
  10623c:	bf00      	nop
  10623e:	4770      	bx	lr
  106240:	4001b000 	.word	0x4001b000

00106244 <HAL_serial1_clock_enable>:
  106244:	4a03      	ldr	r2, [pc, #12]	; (106254 <HAL_serial1_clock_enable+0x10>)
  106246:	4b03      	ldr	r3, [pc, #12]	; (106254 <HAL_serial1_clock_enable+0x10>)
  106248:	691b      	ldr	r3, [r3, #16]
  10624a:	f023 0320 	bic.w	r3, r3, #32
  10624e:	6113      	str	r3, [r2, #16]
  106250:	bf00      	nop
  106252:	4770      	bx	lr
  106254:	4001b000 	.word	0x4001b000

00106258 <serial_format>:
  106258:	b500      	push	{lr}
  10625a:	b085      	sub	sp, #20
  10625c:	9003      	str	r0, [sp, #12]
  10625e:	9102      	str	r1, [sp, #8]
  106260:	9300      	str	r3, [sp, #0]
  106262:	4613      	mov	r3, r2
  106264:	f88d 3007 	strb.w	r3, [sp, #7]
  106268:	9b00      	ldr	r3, [sp, #0]
  10626a:	2b01      	cmp	r3, #1
  10626c:	d007      	beq.n	10627e <serial_format+0x26>
  10626e:	9b00      	ldr	r3, [sp, #0]
  106270:	2b02      	cmp	r3, #2
  106272:	d004      	beq.n	10627e <serial_format+0x26>
  106274:	22ba      	movs	r2, #186	; 0xba
  106276:	4934      	ldr	r1, [pc, #208]	; (106348 <serial_format+0xf0>)
  106278:	4834      	ldr	r0, [pc, #208]	; (10634c <serial_format+0xf4>)
  10627a:	f7fe fecd 	bl	105018 <mbed_assert_internal>
  10627e:	2302      	movs	r3, #2
  106280:	9300      	str	r3, [sp, #0]
  106282:	9b02      	ldr	r3, [sp, #8]
  106284:	2b04      	cmp	r3, #4
  106286:	dd02      	ble.n	10628e <serial_format+0x36>
  106288:	9b02      	ldr	r3, [sp, #8]
  10628a:	2b08      	cmp	r3, #8
  10628c:	dd04      	ble.n	106298 <serial_format+0x40>
  10628e:	22c2      	movs	r2, #194	; 0xc2
  106290:	492d      	ldr	r1, [pc, #180]	; (106348 <serial_format+0xf0>)
  106292:	482f      	ldr	r0, [pc, #188]	; (106350 <serial_format+0xf8>)
  106294:	f7fe fec0 	bl	105018 <mbed_assert_internal>
  106298:	f89d 3007 	ldrb.w	r3, [sp, #7]
  10629c:	2b00      	cmp	r3, #0
  10629e:	d014      	beq.n	1062ca <serial_format+0x72>
  1062a0:	f89d 3007 	ldrb.w	r3, [sp, #7]
  1062a4:	2b01      	cmp	r3, #1
  1062a6:	d010      	beq.n	1062ca <serial_format+0x72>
  1062a8:	f89d 3007 	ldrb.w	r3, [sp, #7]
  1062ac:	2b02      	cmp	r3, #2
  1062ae:	d00c      	beq.n	1062ca <serial_format+0x72>
  1062b0:	f89d 3007 	ldrb.w	r3, [sp, #7]
  1062b4:	2b03      	cmp	r3, #3
  1062b6:	d008      	beq.n	1062ca <serial_format+0x72>
  1062b8:	f89d 3007 	ldrb.w	r3, [sp, #7]
  1062bc:	2b04      	cmp	r3, #4
  1062be:	d004      	beq.n	1062ca <serial_format+0x72>
  1062c0:	22c6      	movs	r2, #198	; 0xc6
  1062c2:	4921      	ldr	r1, [pc, #132]	; (106348 <serial_format+0xf0>)
  1062c4:	4823      	ldr	r0, [pc, #140]	; (106354 <serial_format+0xfc>)
  1062c6:	f7fe fea7 	bl	105018 <mbed_assert_internal>
  1062ca:	9b02      	ldr	r3, [sp, #8]
  1062cc:	3b05      	subs	r3, #5
  1062ce:	9302      	str	r3, [sp, #8]
  1062d0:	9b00      	ldr	r3, [sp, #0]
  1062d2:	3b01      	subs	r3, #1
  1062d4:	9300      	str	r3, [sp, #0]
  1062d6:	f89d 3007 	ldrb.w	r3, [sp, #7]
  1062da:	2b04      	cmp	r3, #4
  1062dc:	d820      	bhi.n	106320 <serial_format+0xc8>
  1062de:	a201      	add	r2, pc, #4	; (adr r2, 1062e4 <serial_format+0x8c>)
  1062e0:	f852 f023 	ldr.w	pc, [r2, r3, lsl #2]
  1062e4:	001062f9 	.word	0x001062f9
  1062e8:	00106301 	.word	0x00106301
  1062ec:	00106309 	.word	0x00106309
  1062f0:	00106311 	.word	0x00106311
  1062f4:	00106319 	.word	0x00106319
  1062f8:	2300      	movs	r3, #0
  1062fa:	f88d 3007 	strb.w	r3, [sp, #7]
  1062fe:	e013      	b.n	106328 <serial_format+0xd0>
  106300:	2301      	movs	r3, #1
  106302:	f88d 3007 	strb.w	r3, [sp, #7]
  106306:	e00f      	b.n	106328 <serial_format+0xd0>
  106308:	2302      	movs	r3, #2
  10630a:	f88d 3007 	strb.w	r3, [sp, #7]
  10630e:	e00b      	b.n	106328 <serial_format+0xd0>
  106310:	2305      	movs	r3, #5
  106312:	f88d 3007 	strb.w	r3, [sp, #7]
  106316:	e007      	b.n	106328 <serial_format+0xd0>
  106318:	2307      	movs	r3, #7
  10631a:	f88d 3007 	strb.w	r3, [sp, #7]
  10631e:	e003      	b.n	106328 <serial_format+0xd0>
  106320:	2300      	movs	r3, #0
  106322:	f88d 3007 	strb.w	r3, [sp, #7]
  106326:	bf00      	nop
  106328:	9b03      	ldr	r3, [sp, #12]
  10632a:	681b      	ldr	r3, [r3, #0]
  10632c:	9a00      	ldr	r2, [sp, #0]
  10632e:	0091      	lsls	r1, r2, #2
  106330:	9a02      	ldr	r2, [sp, #8]
  106332:	4311      	orrs	r1, r2
  106334:	f89d 2007 	ldrb.w	r2, [sp, #7]
  106338:	00d2      	lsls	r2, r2, #3
  10633a:	430a      	orrs	r2, r1
  10633c:	60da      	str	r2, [r3, #12]
  10633e:	bf00      	nop
  106340:	b005      	add	sp, #20
  106342:	f85d fb04 	ldr.w	pc, [sp], #4
  106346:	bf00      	nop
  106348:	0010e1f0 	.word	0x0010e1f0
  10634c:	0010e274 	.word	0x0010e274
  106350:	0010e29c 	.word	0x0010e29c
  106354:	0010e2c0 	.word	0x0010e2c0

00106358 <serial_readable>:
  106358:	b082      	sub	sp, #8
  10635a:	9001      	str	r0, [sp, #4]
  10635c:	9b01      	ldr	r3, [sp, #4]
  10635e:	681b      	ldr	r3, [r3, #0]
  106360:	695b      	ldr	r3, [r3, #20]
  106362:	f3c3 0300 	ubfx	r3, r3, #0, #1
  106366:	b2db      	uxtb	r3, r3
  106368:	4618      	mov	r0, r3
  10636a:	b002      	add	sp, #8
  10636c:	4770      	bx	lr
  10636e:	bf00      	nop

00106370 <serial_writable>:
  106370:	b082      	sub	sp, #8
  106372:	9001      	str	r0, [sp, #4]
  106374:	9b01      	ldr	r3, [sp, #4]
  106376:	681b      	ldr	r3, [r3, #0]
  106378:	695b      	ldr	r3, [r3, #20]
  10637a:	f3c3 1340 	ubfx	r3, r3, #5, #1
  10637e:	b2db      	uxtb	r3, r3
  106380:	4618      	mov	r0, r3
  106382:	b002      	add	sp, #8
  106384:	4770      	bx	lr
  106386:	bf00      	nop

00106388 <serial_putc>:
  106388:	b500      	push	{lr}
  10638a:	b083      	sub	sp, #12
  10638c:	9001      	str	r0, [sp, #4]
  10638e:	9100      	str	r1, [sp, #0]
  106390:	bf00      	nop
  106392:	9801      	ldr	r0, [sp, #4]
  106394:	f7ff ffec 	bl	106370 <serial_writable>
  106398:	4603      	mov	r3, r0
  10639a:	2b00      	cmp	r3, #0
  10639c:	d0f9      	beq.n	106392 <serial_putc+0xa>
  10639e:	9b01      	ldr	r3, [sp, #4]
  1063a0:	681b      	ldr	r3, [r3, #0]
  1063a2:	9a00      	ldr	r2, [sp, #0]
  1063a4:	601a      	str	r2, [r3, #0]
  1063a6:	bf00      	nop
  1063a8:	b003      	add	sp, #12
  1063aa:	f85d fb04 	ldr.w	pc, [sp], #4
  1063ae:	bf00      	nop

001063b0 <serial_getc>:
  1063b0:	b500      	push	{lr}
  1063b2:	b083      	sub	sp, #12
  1063b4:	9001      	str	r0, [sp, #4]
  1063b6:	bf00      	nop
  1063b8:	9801      	ldr	r0, [sp, #4]
  1063ba:	f7ff ffcd 	bl	106358 <serial_readable>
  1063be:	4603      	mov	r3, r0
  1063c0:	2b00      	cmp	r3, #0
  1063c2:	d0f9      	beq.n	1063b8 <serial_getc+0x8>
  1063c4:	9b01      	ldr	r3, [sp, #4]
  1063c6:	681b      	ldr	r3, [r3, #0]
  1063c8:	681b      	ldr	r3, [r3, #0]
  1063ca:	4618      	mov	r0, r3
  1063cc:	b003      	add	sp, #12
  1063ce:	f85d fb04 	ldr.w	pc, [sp], #4
  1063d2:	bf00      	nop

001063d4 <serial_irq_handler>:
  1063d4:	b084      	sub	sp, #16
  1063d6:	9003      	str	r0, [sp, #12]
  1063d8:	9102      	str	r1, [sp, #8]
  1063da:	9201      	str	r2, [sp, #4]
  1063dc:	4a05      	ldr	r2, [pc, #20]	; (1063f4 <serial_irq_handler+0x20>)
  1063de:	9b02      	ldr	r3, [sp, #8]
  1063e0:	6013      	str	r3, [r2, #0]
  1063e2:	9b03      	ldr	r3, [sp, #12]
  1063e4:	685b      	ldr	r3, [r3, #4]
  1063e6:	4904      	ldr	r1, [pc, #16]	; (1063f8 <serial_irq_handler+0x24>)
  1063e8:	9a01      	ldr	r2, [sp, #4]
  1063ea:	f841 2023 	str.w	r2, [r1, r3, lsl #2]
  1063ee:	bf00      	nop
  1063f0:	b004      	add	sp, #16
  1063f2:	4770      	bx	lr
  1063f4:	3fff45e4 	.word	0x3fff45e4
  1063f8:	3fff45e8 	.word	0x3fff45e8

001063fc <uart_irq>:
  1063fc:	b500      	push	{lr}
  1063fe:	b083      	sub	sp, #12
  106400:	4603      	mov	r3, r0
  106402:	9100      	str	r1, [sp, #0]
  106404:	f88d 3007 	strb.w	r3, [sp, #7]
  106408:	4a13      	ldr	r2, [pc, #76]	; (106458 <uart_irq+0x5c>)
  10640a:	9b00      	ldr	r3, [sp, #0]
  10640c:	f852 3023 	ldr.w	r3, [r2, r3, lsl #2]
  106410:	2b00      	cmp	r3, #0
  106412:	d01d      	beq.n	106450 <uart_irq+0x54>
  106414:	f89d 3007 	ldrb.w	r3, [sp, #7]
  106418:	f003 0340 	and.w	r3, r3, #64	; 0x40
  10641c:	2b00      	cmp	r3, #0
  10641e:	d008      	beq.n	106432 <uart_irq+0x36>
  106420:	4b0e      	ldr	r3, [pc, #56]	; (10645c <uart_irq+0x60>)
  106422:	681b      	ldr	r3, [r3, #0]
  106424:	490c      	ldr	r1, [pc, #48]	; (106458 <uart_irq+0x5c>)
  106426:	9a00      	ldr	r2, [sp, #0]
  106428:	f851 2022 	ldr.w	r2, [r1, r2, lsl #2]
  10642c:	2101      	movs	r1, #1
  10642e:	4610      	mov	r0, r2
  106430:	4798      	blx	r3
  106432:	f89d 3007 	ldrb.w	r3, [sp, #7]
  106436:	f003 0301 	and.w	r3, r3, #1
  10643a:	2b00      	cmp	r3, #0
  10643c:	d008      	beq.n	106450 <uart_irq+0x54>
  10643e:	4b07      	ldr	r3, [pc, #28]	; (10645c <uart_irq+0x60>)
  106440:	681b      	ldr	r3, [r3, #0]
  106442:	4905      	ldr	r1, [pc, #20]	; (106458 <uart_irq+0x5c>)
  106444:	9a00      	ldr	r2, [sp, #0]
  106446:	f851 2022 	ldr.w	r2, [r1, r2, lsl #2]
  10644a:	2100      	movs	r1, #0
  10644c:	4610      	mov	r0, r2
  10644e:	4798      	blx	r3
  106450:	bf00      	nop
  106452:	b003      	add	sp, #12
  106454:	f85d fb04 	ldr.w	pc, [sp], #4
  106458:	3fff45e8 	.word	0x3fff45e8
  10645c:	3fff45e4 	.word	0x3fff45e4

00106460 <UART1_IRQHandler>:
  106460:	b500      	push	{lr}
  106462:	b083      	sub	sp, #12
  106464:	4b1b      	ldr	r3, [pc, #108]	; (1064d4 <UART1_IRQHandler+0x74>)
  106466:	695b      	ldr	r3, [r3, #20]
  106468:	f88d 3006 	strb.w	r3, [sp, #6]
  10646c:	2300      	movs	r3, #0
  10646e:	f88d 3007 	strb.w	r3, [sp, #7]
  106472:	4b18      	ldr	r3, [pc, #96]	; (1064d4 <UART1_IRQHandler+0x74>)
  106474:	685b      	ldr	r3, [r3, #4]
  106476:	f003 0302 	and.w	r3, r3, #2
  10647a:	2b00      	cmp	r3, #0
  10647c:	d00a      	beq.n	106494 <UART1_IRQHandler+0x34>
  10647e:	f89d 3006 	ldrb.w	r3, [sp, #6]
  106482:	f003 0340 	and.w	r3, r3, #64	; 0x40
  106486:	b2da      	uxtb	r2, r3
  106488:	f89d 3007 	ldrb.w	r3, [sp, #7]
  10648c:	4313      	orrs	r3, r2
  10648e:	b2db      	uxtb	r3, r3
  106490:	f88d 3007 	strb.w	r3, [sp, #7]
  106494:	4b0f      	ldr	r3, [pc, #60]	; (1064d4 <UART1_IRQHandler+0x74>)
  106496:	685b      	ldr	r3, [r3, #4]
  106498:	f003 0301 	and.w	r3, r3, #1
  10649c:	2b00      	cmp	r3, #0
  10649e:	d00a      	beq.n	1064b6 <UART1_IRQHandler+0x56>
  1064a0:	f89d 3006 	ldrb.w	r3, [sp, #6]
  1064a4:	f003 0301 	and.w	r3, r3, #1
  1064a8:	b2da      	uxtb	r2, r3
  1064aa:	f89d 3007 	ldrb.w	r3, [sp, #7]
  1064ae:	4313      	orrs	r3, r2
  1064b0:	b2db      	uxtb	r3, r3
  1064b2:	f88d 3007 	strb.w	r3, [sp, #7]
  1064b6:	f89d 2006 	ldrb.w	r2, [sp, #6]
  1064ba:	f89d 3007 	ldrb.w	r3, [sp, #7]
  1064be:	4013      	ands	r3, r2
  1064c0:	b2db      	uxtb	r3, r3
  1064c2:	2100      	movs	r1, #0
  1064c4:	4618      	mov	r0, r3
  1064c6:	f7ff ff99 	bl	1063fc <uart_irq>
  1064ca:	bf00      	nop
  1064cc:	b003      	add	sp, #12
  1064ce:	f85d fb04 	ldr.w	pc, [sp], #4
  1064d2:	bf00      	nop
  1064d4:	40005000 	.word	0x40005000

001064d8 <fClockGetPeriphClockfrequency>:
  1064d8:	4b01      	ldr	r3, [pc, #4]	; (1064e0 <fClockGetPeriphClockfrequency+0x8>)
  1064da:	4618      	mov	r0, r3
  1064dc:	4770      	bx	lr
  1064de:	bf00      	nop
  1064e0:	01e84800 	.word	0x01e84800

001064e4 <HAL_spi_disable>:
  1064e4:	b082      	sub	sp, #8
  1064e6:	9001      	str	r0, [sp, #4]
  1064e8:	9b01      	ldr	r3, [sp, #4]
  1064ea:	681a      	ldr	r2, [r3, #0]
  1064ec:	7b13      	ldrb	r3, [r2, #12]
  1064ee:	f36f 0300 	bfc	r3, #0, #1
  1064f2:	7313      	strb	r3, [r2, #12]
  1064f4:	bf00      	nop
  1064f6:	b002      	add	sp, #8
  1064f8:	4770      	bx	lr
  1064fa:	bf00      	nop

001064fc <HAL_spi_enable>:
  1064fc:	b082      	sub	sp, #8
  1064fe:	9001      	str	r0, [sp, #4]
  106500:	9b01      	ldr	r3, [sp, #4]
  106502:	681a      	ldr	r2, [r3, #0]
  106504:	7b13      	ldrb	r3, [r2, #12]
  106506:	f043 0301 	orr.w	r3, r3, #1
  10650a:	7313      	strb	r3, [r2, #12]
  10650c:	bf00      	nop
  10650e:	b002      	add	sp, #8
  106510:	4770      	bx	lr
  106512:	bf00      	nop

00106514 <spi_init>:
  106514:	b500      	push	{lr}
  106516:	b085      	sub	sp, #20
  106518:	9003      	str	r0, [sp, #12]
  10651a:	9102      	str	r1, [sp, #8]
  10651c:	9201      	str	r2, [sp, #4]
  10651e:	9300      	str	r3, [sp, #0]
  106520:	9b02      	ldr	r3, [sp, #8]
  106522:	2b20      	cmp	r3, #32
  106524:	d003      	beq.n	10652e <spi_init+0x1a>
  106526:	9b02      	ldr	r3, [sp, #8]
  106528:	f5b3 4f00 	cmp.w	r3, #32768	; 0x8000
  10652c:	d10d      	bne.n	10654a <spi_init+0x36>
  10652e:	9b01      	ldr	r3, [sp, #4]
  106530:	2b40      	cmp	r3, #64	; 0x40
  106532:	d003      	beq.n	10653c <spi_init+0x28>
  106534:	9b01      	ldr	r3, [sp, #4]
  106536:	f5b3 3f80 	cmp.w	r3, #65536	; 0x10000
  10653a:	d106      	bne.n	10654a <spi_init+0x36>
  10653c:	9b00      	ldr	r3, [sp, #0]
  10653e:	2b10      	cmp	r3, #16
  106540:	d008      	beq.n	106554 <spi_init+0x40>
  106542:	9b00      	ldr	r3, [sp, #0]
  106544:	f5b3 4f80 	cmp.w	r3, #16384	; 0x4000
  106548:	d004      	beq.n	106554 <spi_init+0x40>
  10654a:	2236      	movs	r2, #54	; 0x36
  10654c:	4926      	ldr	r1, [pc, #152]	; (1065e8 <spi_init+0xd4>)
  10654e:	4827      	ldr	r0, [pc, #156]	; (1065ec <spi_init+0xd8>)
  106550:	f7fe fd62 	bl	105018 <mbed_assert_internal>
  106554:	9b02      	ldr	r3, [sp, #8]
  106556:	2b20      	cmp	r3, #32
  106558:	d117      	bne.n	10658a <spi_init+0x76>
  10655a:	9b01      	ldr	r3, [sp, #4]
  10655c:	2b40      	cmp	r3, #64	; 0x40
  10655e:	d114      	bne.n	10658a <spi_init+0x76>
  106560:	9b00      	ldr	r3, [sp, #0]
  106562:	2b10      	cmp	r3, #16
  106564:	d111      	bne.n	10658a <spi_init+0x76>
  106566:	9b03      	ldr	r3, [sp, #12]
  106568:	4a21      	ldr	r2, [pc, #132]	; (1065f0 <spi_init+0xdc>)
  10656a:	601a      	str	r2, [r3, #0]
  10656c:	4b21      	ldr	r3, [pc, #132]	; (1065f4 <spi_init+0xe0>)
  10656e:	681b      	ldr	r3, [r3, #0]
  106570:	f043 0370 	orr.w	r3, r3, #112	; 0x70
  106574:	4a1f      	ldr	r2, [pc, #124]	; (1065f4 <spi_init+0xe0>)
  106576:	6013      	str	r3, [r2, #0]
  106578:	f000 f87c 	bl	106674 <HAL_spi1_crossbar_config>
  10657c:	4a1e      	ldr	r2, [pc, #120]	; (1065f8 <spi_init+0xe4>)
  10657e:	4b1e      	ldr	r3, [pc, #120]	; (1065f8 <spi_init+0xe4>)
  106580:	691b      	ldr	r3, [r3, #16]
  106582:	f023 0340 	bic.w	r3, r3, #64	; 0x40
  106586:	6113      	str	r3, [r2, #16]
  106588:	e01c      	b.n	1065c4 <spi_init+0xb0>
  10658a:	9b02      	ldr	r3, [sp, #8]
  10658c:	f5b3 4f00 	cmp.w	r3, #32768	; 0x8000
  106590:	d118      	bne.n	1065c4 <spi_init+0xb0>
  106592:	9b01      	ldr	r3, [sp, #4]
  106594:	f5b3 3f80 	cmp.w	r3, #65536	; 0x10000
  106598:	d114      	bne.n	1065c4 <spi_init+0xb0>
  10659a:	9b00      	ldr	r3, [sp, #0]
  10659c:	f5b3 4f80 	cmp.w	r3, #16384	; 0x4000
  1065a0:	d110      	bne.n	1065c4 <spi_init+0xb0>
  1065a2:	9b03      	ldr	r3, [sp, #12]
  1065a4:	4a15      	ldr	r2, [pc, #84]	; (1065fc <spi_init+0xe8>)
  1065a6:	601a      	str	r2, [r3, #0]
  1065a8:	4b12      	ldr	r3, [pc, #72]	; (1065f4 <spi_init+0xe0>)
  1065aa:	681b      	ldr	r3, [r3, #0]
  1065ac:	f443 33e0 	orr.w	r3, r3, #114688	; 0x1c000
  1065b0:	4a10      	ldr	r2, [pc, #64]	; (1065f4 <spi_init+0xe0>)
  1065b2:	6013      	str	r3, [r2, #0]
  1065b4:	f000 f824 	bl	106600 <HAL_spi2_crossbar_config>
  1065b8:	4a0f      	ldr	r2, [pc, #60]	; (1065f8 <spi_init+0xe4>)
  1065ba:	4b0f      	ldr	r3, [pc, #60]	; (1065f8 <spi_init+0xe4>)
  1065bc:	691b      	ldr	r3, [r3, #16]
  1065be:	f423 7300 	bic.w	r3, r3, #512	; 0x200
  1065c2:	6113      	str	r3, [r2, #16]
  1065c4:	9803      	ldr	r0, [sp, #12]
  1065c6:	f7ff ff8d 	bl	1064e4 <HAL_spi_disable>
  1065ca:	9b03      	ldr	r3, [sp, #12]
  1065cc:	681b      	ldr	r3, [r3, #0]
  1065ce:	2204      	movs	r2, #4
  1065d0:	629a      	str	r2, [r3, #40]	; 0x28
  1065d2:	9b03      	ldr	r3, [sp, #12]
  1065d4:	681b      	ldr	r3, [r3, #0]
  1065d6:	2204      	movs	r2, #4
  1065d8:	62da      	str	r2, [r3, #44]	; 0x2c
  1065da:	9803      	ldr	r0, [sp, #12]
  1065dc:	f7ff ff8e 	bl	1064fc <HAL_spi_enable>
  1065e0:	bf00      	nop
  1065e2:	b005      	add	sp, #20
  1065e4:	f85d fb04 	ldr.w	pc, [sp], #4
  1065e8:	0010e348 	.word	0x0010e348
  1065ec:	0010e390 	.word	0x0010e390
  1065f0:	40006000 	.word	0x40006000
  1065f4:	3fff538c 	.word	0x3fff538c
  1065f8:	4001b000 	.word	0x4001b000
  1065fc:	40009000 	.word	0x40009000

00106600 <HAL_spi2_crossbar_config>:
  106600:	4a18      	ldr	r2, [pc, #96]	; (106664 <HAL_spi2_crossbar_config+0x64>)
  106602:	4b18      	ldr	r3, [pc, #96]	; (106664 <HAL_spi2_crossbar_config+0x64>)
  106604:	691b      	ldr	r3, [r3, #16]
  106606:	f423 5380 	bic.w	r3, r3, #4096	; 0x1000
  10660a:	6113      	str	r3, [r2, #16]
  10660c:	4a16      	ldr	r2, [pc, #88]	; (106668 <HAL_spi2_crossbar_config+0x68>)
  10660e:	4b16      	ldr	r3, [pc, #88]	; (106668 <HAL_spi2_crossbar_config+0x68>)
  106610:	689b      	ldr	r3, [r3, #8]
  106612:	f443 4340 	orr.w	r3, r3, #49152	; 0xc000
  106616:	6093      	str	r3, [r2, #8]
  106618:	4a13      	ldr	r2, [pc, #76]	; (106668 <HAL_spi2_crossbar_config+0x68>)
  10661a:	4b13      	ldr	r3, [pc, #76]	; (106668 <HAL_spi2_crossbar_config+0x68>)
  10661c:	68db      	ldr	r3, [r3, #12]
  10661e:	f443 3380 	orr.w	r3, r3, #65536	; 0x10000
  106622:	60d3      	str	r3, [r2, #12]
  106624:	4a0f      	ldr	r2, [pc, #60]	; (106664 <HAL_spi2_crossbar_config+0x64>)
  106626:	4b0f      	ldr	r3, [pc, #60]	; (106664 <HAL_spi2_crossbar_config+0x64>)
  106628:	691b      	ldr	r3, [r3, #16]
  10662a:	f023 5380 	bic.w	r3, r3, #268435456	; 0x10000000
  10662e:	6113      	str	r3, [r2, #16]
  106630:	4b0e      	ldr	r3, [pc, #56]	; (10666c <HAL_spi2_crossbar_config+0x6c>)
  106632:	2207      	movs	r2, #7
  106634:	639a      	str	r2, [r3, #56]	; 0x38
  106636:	4b0d      	ldr	r3, [pc, #52]	; (10666c <HAL_spi2_crossbar_config+0x6c>)
  106638:	2207      	movs	r2, #7
  10663a:	63da      	str	r2, [r3, #60]	; 0x3c
  10663c:	4b0b      	ldr	r3, [pc, #44]	; (10666c <HAL_spi2_crossbar_config+0x6c>)
  10663e:	2207      	movs	r2, #7
  106640:	641a      	str	r2, [r3, #64]	; 0x40
  106642:	4a08      	ldr	r2, [pc, #32]	; (106664 <HAL_spi2_crossbar_config+0x64>)
  106644:	4b07      	ldr	r3, [pc, #28]	; (106664 <HAL_spi2_crossbar_config+0x64>)
  106646:	691b      	ldr	r3, [r3, #16]
  106648:	f423 3380 	bic.w	r3, r3, #65536	; 0x10000
  10664c:	6113      	str	r3, [r2, #16]
  10664e:	4b08      	ldr	r3, [pc, #32]	; (106670 <HAL_spi2_crossbar_config+0x70>)
  106650:	2206      	movs	r2, #6
  106652:	639a      	str	r2, [r3, #56]	; 0x38
  106654:	4b06      	ldr	r3, [pc, #24]	; (106670 <HAL_spi2_crossbar_config+0x70>)
  106656:	2206      	movs	r2, #6
  106658:	63da      	str	r2, [r3, #60]	; 0x3c
  10665a:	4b05      	ldr	r3, [pc, #20]	; (106670 <HAL_spi2_crossbar_config+0x70>)
  10665c:	2206      	movs	r2, #6
  10665e:	641a      	str	r2, [r3, #64]	; 0x40
  106660:	bf00      	nop
  106662:	4770      	bx	lr
  106664:	4001b000 	.word	0x4001b000
  106668:	4000c000 	.word	0x4000c000
  10666c:	4001c000 	.word	0x4001c000
  106670:	40010000 	.word	0x40010000

00106674 <HAL_spi1_crossbar_config>:
  106674:	4a18      	ldr	r2, [pc, #96]	; (1066d8 <HAL_spi1_crossbar_config+0x64>)
  106676:	4b18      	ldr	r3, [pc, #96]	; (1066d8 <HAL_spi1_crossbar_config+0x64>)
  106678:	691b      	ldr	r3, [r3, #16]
  10667a:	f423 5380 	bic.w	r3, r3, #4096	; 0x1000
  10667e:	6113      	str	r3, [r2, #16]
  106680:	4a16      	ldr	r2, [pc, #88]	; (1066dc <HAL_spi1_crossbar_config+0x68>)
  106682:	4b16      	ldr	r3, [pc, #88]	; (1066dc <HAL_spi1_crossbar_config+0x68>)
  106684:	689b      	ldr	r3, [r3, #8]
  106686:	f043 0330 	orr.w	r3, r3, #48	; 0x30
  10668a:	6093      	str	r3, [r2, #8]
  10668c:	4a13      	ldr	r2, [pc, #76]	; (1066dc <HAL_spi1_crossbar_config+0x68>)
  10668e:	4b13      	ldr	r3, [pc, #76]	; (1066dc <HAL_spi1_crossbar_config+0x68>)
  106690:	68db      	ldr	r3, [r3, #12]
  106692:	f043 0340 	orr.w	r3, r3, #64	; 0x40
  106696:	60d3      	str	r3, [r2, #12]
  106698:	4a0f      	ldr	r2, [pc, #60]	; (1066d8 <HAL_spi1_crossbar_config+0x64>)
  10669a:	4b0f      	ldr	r3, [pc, #60]	; (1066d8 <HAL_spi1_crossbar_config+0x64>)
  10669c:	691b      	ldr	r3, [r3, #16]
  10669e:	f023 5380 	bic.w	r3, r3, #268435456	; 0x10000000
  1066a2:	6113      	str	r3, [r2, #16]
  1066a4:	4b0e      	ldr	r3, [pc, #56]	; (1066e0 <HAL_spi1_crossbar_config+0x6c>)
  1066a6:	2207      	movs	r2, #7
  1066a8:	611a      	str	r2, [r3, #16]
  1066aa:	4b0d      	ldr	r3, [pc, #52]	; (1066e0 <HAL_spi1_crossbar_config+0x6c>)
  1066ac:	2207      	movs	r2, #7
  1066ae:	615a      	str	r2, [r3, #20]
  1066b0:	4b0b      	ldr	r3, [pc, #44]	; (1066e0 <HAL_spi1_crossbar_config+0x6c>)
  1066b2:	2207      	movs	r2, #7
  1066b4:	619a      	str	r2, [r3, #24]
  1066b6:	4a08      	ldr	r2, [pc, #32]	; (1066d8 <HAL_spi1_crossbar_config+0x64>)
  1066b8:	4b07      	ldr	r3, [pc, #28]	; (1066d8 <HAL_spi1_crossbar_config+0x64>)
  1066ba:	691b      	ldr	r3, [r3, #16]
  1066bc:	f423 3380 	bic.w	r3, r3, #65536	; 0x10000
  1066c0:	6113      	str	r3, [r2, #16]
  1066c2:	4b08      	ldr	r3, [pc, #32]	; (1066e4 <HAL_spi1_crossbar_config+0x70>)
  1066c4:	2206      	movs	r2, #6
  1066c6:	611a      	str	r2, [r3, #16]
  1066c8:	4b06      	ldr	r3, [pc, #24]	; (1066e4 <HAL_spi1_crossbar_config+0x70>)
  1066ca:	2206      	movs	r2, #6
  1066cc:	615a      	str	r2, [r3, #20]
  1066ce:	4b05      	ldr	r3, [pc, #20]	; (1066e4 <HAL_spi1_crossbar_config+0x70>)
  1066d0:	2206      	movs	r2, #6
  1066d2:	619a      	str	r2, [r3, #24]
  1066d4:	bf00      	nop
  1066d6:	4770      	bx	lr
  1066d8:	4001b000 	.word	0x4001b000
  1066dc:	4000c000 	.word	0x4000c000
  1066e0:	4001c000 	.word	0x4001c000
  1066e4:	40010000 	.word	0x40010000

001066e8 <spi_format>:
  1066e8:	b500      	push	{lr}
  1066ea:	b087      	sub	sp, #28
  1066ec:	9003      	str	r0, [sp, #12]
  1066ee:	9102      	str	r1, [sp, #8]
  1066f0:	9201      	str	r2, [sp, #4]
  1066f2:	9300      	str	r3, [sp, #0]
  1066f4:	9803      	ldr	r0, [sp, #12]
  1066f6:	f7ff fef5 	bl	1064e4 <HAL_spi_disable>
  1066fa:	9b02      	ldr	r3, [sp, #8]
  1066fc:	2b08      	cmp	r3, #8
  1066fe:	d005      	beq.n	10670c <spi_format+0x24>
  106700:	9b02      	ldr	r3, [sp, #8]
  106702:	2b10      	cmp	r3, #16
  106704:	d002      	beq.n	10670c <spi_format+0x24>
  106706:	9b02      	ldr	r3, [sp, #8]
  106708:	2b20      	cmp	r3, #32
  10670a:	d105      	bne.n	106718 <spi_format+0x30>
  10670c:	9b01      	ldr	r3, [sp, #4]
  10670e:	2b00      	cmp	r3, #0
  106710:	db02      	blt.n	106718 <spi_format+0x30>
  106712:	9b01      	ldr	r3, [sp, #4]
  106714:	2b03      	cmp	r3, #3
  106716:	dd04      	ble.n	106722 <spi_format+0x3a>
  106718:	22a4      	movs	r2, #164	; 0xa4
  10671a:	493a      	ldr	r1, [pc, #232]	; (106804 <spi_format+0x11c>)
  10671c:	483a      	ldr	r0, [pc, #232]	; (106808 <spi_format+0x120>)
  10671e:	f7fe fc7b 	bl	105018 <mbed_assert_internal>
  106722:	2300      	movs	r3, #0
  106724:	9305      	str	r3, [sp, #20]
  106726:	2300      	movs	r3, #0
  106728:	9304      	str	r3, [sp, #16]
  10672a:	9b02      	ldr	r3, [sp, #8]
  10672c:	2b10      	cmp	r3, #16
  10672e:	d006      	beq.n	10673e <spi_format+0x56>
  106730:	2b20      	cmp	r3, #32
  106732:	d007      	beq.n	106744 <spi_format+0x5c>
  106734:	2b08      	cmp	r3, #8
  106736:	d108      	bne.n	10674a <spi_format+0x62>
  106738:	2300      	movs	r3, #0
  10673a:	9302      	str	r3, [sp, #8]
  10673c:	e005      	b.n	10674a <spi_format+0x62>
  10673e:	2301      	movs	r3, #1
  106740:	9302      	str	r3, [sp, #8]
  106742:	e002      	b.n	10674a <spi_format+0x62>
  106744:	2302      	movs	r3, #2
  106746:	9302      	str	r3, [sp, #8]
  106748:	bf00      	nop
  10674a:	9b03      	ldr	r3, [sp, #12]
  10674c:	681a      	ldr	r2, [r3, #0]
  10674e:	9b02      	ldr	r3, [sp, #8]
  106750:	b2db      	uxtb	r3, r3
  106752:	f003 0303 	and.w	r3, r3, #3
  106756:	b2d9      	uxtb	r1, r3
  106758:	7b13      	ldrb	r3, [r2, #12]
  10675a:	f361 1387 	bfi	r3, r1, #6, #2
  10675e:	7313      	strb	r3, [r2, #12]
  106760:	9b03      	ldr	r3, [sp, #12]
  106762:	681a      	ldr	r2, [r3, #0]
  106764:	7b13      	ldrb	r3, [r2, #12]
  106766:	f043 0320 	orr.w	r3, r3, #32
  10676a:	7313      	strb	r3, [r2, #12]
  10676c:	9b01      	ldr	r3, [sp, #4]
  10676e:	2b03      	cmp	r3, #3
  106770:	d81e      	bhi.n	1067b0 <spi_format+0xc8>
  106772:	a201      	add	r2, pc, #4	; (adr r2, 106778 <spi_format+0x90>)
  106774:	f852 f023 	ldr.w	pc, [r2, r3, lsl #2]
  106778:	00106789 	.word	0x00106789
  10677c:	00106793 	.word	0x00106793
  106780:	0010679d 	.word	0x0010679d
  106784:	001067a7 	.word	0x001067a7
  106788:	2300      	movs	r3, #0
  10678a:	9305      	str	r3, [sp, #20]
  10678c:	2300      	movs	r3, #0
  10678e:	9304      	str	r3, [sp, #16]
  106790:	e00e      	b.n	1067b0 <spi_format+0xc8>
  106792:	2300      	movs	r3, #0
  106794:	9305      	str	r3, [sp, #20]
  106796:	2301      	movs	r3, #1
  106798:	9304      	str	r3, [sp, #16]
  10679a:	e009      	b.n	1067b0 <spi_format+0xc8>
  10679c:	2301      	movs	r3, #1
  10679e:	9305      	str	r3, [sp, #20]
  1067a0:	2300      	movs	r3, #0
  1067a2:	9304      	str	r3, [sp, #16]
  1067a4:	e004      	b.n	1067b0 <spi_format+0xc8>
  1067a6:	2301      	movs	r3, #1
  1067a8:	9305      	str	r3, [sp, #20]
  1067aa:	2301      	movs	r3, #1
  1067ac:	9304      	str	r3, [sp, #16]
  1067ae:	bf00      	nop
  1067b0:	9b03      	ldr	r3, [sp, #12]
  1067b2:	681a      	ldr	r2, [r3, #0]
  1067b4:	9b05      	ldr	r3, [sp, #20]
  1067b6:	b2db      	uxtb	r3, r3
  1067b8:	f003 0301 	and.w	r3, r3, #1
  1067bc:	b2d9      	uxtb	r1, r3
  1067be:	7b13      	ldrb	r3, [r2, #12]
  1067c0:	f361 1304 	bfi	r3, r1, #4, #1
  1067c4:	7313      	strb	r3, [r2, #12]
  1067c6:	9b03      	ldr	r3, [sp, #12]
  1067c8:	681a      	ldr	r2, [r3, #0]
  1067ca:	9b04      	ldr	r3, [sp, #16]
  1067cc:	b2db      	uxtb	r3, r3
  1067ce:	f003 0301 	and.w	r3, r3, #1
  1067d2:	b2d9      	uxtb	r1, r3
  1067d4:	7b13      	ldrb	r3, [r2, #12]
  1067d6:	f361 03c3 	bfi	r3, r1, #3, #1
  1067da:	7313      	strb	r3, [r2, #12]
  1067dc:	9b03      	ldr	r3, [sp, #12]
  1067de:	681a      	ldr	r2, [r3, #0]
  1067e0:	7b13      	ldrb	r3, [r2, #12]
  1067e2:	f043 0304 	orr.w	r3, r3, #4
  1067e6:	7313      	strb	r3, [r2, #12]
  1067e8:	9b03      	ldr	r3, [sp, #12]
  1067ea:	681a      	ldr	r2, [r3, #0]
  1067ec:	7b13      	ldrb	r3, [r2, #12]
  1067ee:	f043 0302 	orr.w	r3, r3, #2
  1067f2:	7313      	strb	r3, [r2, #12]
  1067f4:	9803      	ldr	r0, [sp, #12]
  1067f6:	f7ff fe81 	bl	1064fc <HAL_spi_enable>
  1067fa:	bf00      	nop
  1067fc:	b007      	add	sp, #28
  1067fe:	f85d fb04 	ldr.w	pc, [sp], #4
  106802:	bf00      	nop
  106804:	0010e348 	.word	0x0010e348
  106808:	0010e3f4 	.word	0x0010e3f4

0010680c <spi_frequency>:
  10680c:	b500      	push	{lr}
  10680e:	b085      	sub	sp, #20
  106810:	9001      	str	r0, [sp, #4]
  106812:	9100      	str	r1, [sp, #0]
  106814:	9801      	ldr	r0, [sp, #4]
  106816:	f7ff fe65 	bl	1064e4 <HAL_spi_disable>
  10681a:	f7ff fe5d 	bl	1064d8 <fClockGetPeriphClockfrequency>
  10681e:	4602      	mov	r2, r0
  106820:	9b00      	ldr	r3, [sp, #0]
  106822:	fbb2 f3f3 	udiv	r3, r2, r3
  106826:	085b      	lsrs	r3, r3, #1
  106828:	3b01      	subs	r3, #1
  10682a:	9303      	str	r3, [sp, #12]
  10682c:	9b01      	ldr	r3, [sp, #4]
  10682e:	681b      	ldr	r3, [r3, #0]
  106830:	9a03      	ldr	r2, [sp, #12]
  106832:	609a      	str	r2, [r3, #8]
  106834:	9801      	ldr	r0, [sp, #4]
  106836:	f7ff fe61 	bl	1064fc <HAL_spi_enable>
  10683a:	bf00      	nop
  10683c:	b005      	add	sp, #20
  10683e:	f85d fb04 	ldr.w	pc, [sp], #4
  106842:	bf00      	nop

00106844 <spi_write>:
  106844:	b082      	sub	sp, #8
  106846:	9001      	str	r0, [sp, #4]
  106848:	9100      	str	r1, [sp, #0]
  10684a:	bf00      	nop
  10684c:	9b01      	ldr	r3, [sp, #4]
  10684e:	681b      	ldr	r3, [r3, #0]
  106850:	691b      	ldr	r3, [r3, #16]
  106852:	f3c3 0380 	ubfx	r3, r3, #2, #1
  106856:	b2db      	uxtb	r3, r3
  106858:	2b00      	cmp	r3, #0
  10685a:	d0f7      	beq.n	10684c <spi_write+0x8>
  10685c:	9b01      	ldr	r3, [sp, #4]
  10685e:	681b      	ldr	r3, [r3, #0]
  106860:	9a00      	ldr	r2, [sp, #0]
  106862:	601a      	str	r2, [r3, #0]
  106864:	bf00      	nop
  106866:	9b01      	ldr	r3, [sp, #4]
  106868:	681b      	ldr	r3, [r3, #0]
  10686a:	691b      	ldr	r3, [r3, #16]
  10686c:	f3c3 0300 	ubfx	r3, r3, #0, #1
  106870:	b2db      	uxtb	r3, r3
  106872:	2b01      	cmp	r3, #1
  106874:	d0f7      	beq.n	106866 <spi_write+0x22>
  106876:	bf00      	nop
  106878:	b002      	add	sp, #8
  10687a:	4770      	bx	lr

0010687c <spi_read>:
  10687c:	b082      	sub	sp, #8
  10687e:	9001      	str	r0, [sp, #4]
  106880:	bf00      	nop
  106882:	9b01      	ldr	r3, [sp, #4]
  106884:	681b      	ldr	r3, [r3, #0]
  106886:	691b      	ldr	r3, [r3, #16]
  106888:	f3c3 1340 	ubfx	r3, r3, #5, #1
  10688c:	b2db      	uxtb	r3, r3
  10688e:	2b01      	cmp	r3, #1
  106890:	d0f7      	beq.n	106882 <spi_read+0x6>
  106892:	9b01      	ldr	r3, [sp, #4]
  106894:	681b      	ldr	r3, [r3, #0]
  106896:	685b      	ldr	r3, [r3, #4]
  106898:	4618      	mov	r0, r3
  10689a:	b002      	add	sp, #8
  10689c:	4770      	bx	lr
  10689e:	bf00      	nop

001068a0 <spi_master_write>:
  1068a0:	b500      	push	{lr}
  1068a2:	b083      	sub	sp, #12
  1068a4:	9001      	str	r0, [sp, #4]
  1068a6:	9100      	str	r1, [sp, #0]
  1068a8:	9900      	ldr	r1, [sp, #0]
  1068aa:	9801      	ldr	r0, [sp, #4]
  1068ac:	f7ff ffca 	bl	106844 <spi_write>
  1068b0:	9801      	ldr	r0, [sp, #4]
  1068b2:	f7ff ffe3 	bl	10687c <spi_read>
  1068b6:	4603      	mov	r3, r0
  1068b8:	4618      	mov	r0, r3
  1068ba:	b003      	add	sp, #12
  1068bc:	f85d fb04 	ldr.w	pc, [sp], #4

001068c0 <NVIC_EnableIRQ>:
  1068c0:	b082      	sub	sp, #8
  1068c2:	4603      	mov	r3, r0
  1068c4:	f88d 3007 	strb.w	r3, [sp, #7]
  1068c8:	4907      	ldr	r1, [pc, #28]	; (1068e8 <NVIC_EnableIRQ+0x28>)
  1068ca:	f99d 3007 	ldrsb.w	r3, [sp, #7]
  1068ce:	095b      	lsrs	r3, r3, #5
  1068d0:	f89d 2007 	ldrb.w	r2, [sp, #7]
  1068d4:	f002 021f 	and.w	r2, r2, #31
  1068d8:	2001      	movs	r0, #1
  1068da:	fa00 f202 	lsl.w	r2, r0, r2
  1068de:	f841 2023 	str.w	r2, [r1, r3, lsl #2]
  1068e2:	bf00      	nop
  1068e4:	b002      	add	sp, #8
  1068e6:	4770      	bx	lr
  1068e8:	e000e100 	.word	0xe000e100

001068ec <NVIC_DisableIRQ>:
  1068ec:	b082      	sub	sp, #8
  1068ee:	4603      	mov	r3, r0
  1068f0:	f88d 3007 	strb.w	r3, [sp, #7]
  1068f4:	4908      	ldr	r1, [pc, #32]	; (106918 <NVIC_DisableIRQ+0x2c>)
  1068f6:	f99d 3007 	ldrsb.w	r3, [sp, #7]
  1068fa:	095b      	lsrs	r3, r3, #5
  1068fc:	f89d 2007 	ldrb.w	r2, [sp, #7]
  106900:	f002 021f 	and.w	r2, r2, #31
  106904:	2001      	movs	r0, #1
  106906:	fa00 f202 	lsl.w	r2, r0, r2
  10690a:	3320      	adds	r3, #32
  10690c:	f841 2023 	str.w	r2, [r1, r3, lsl #2]
  106910:	bf00      	nop
  106912:	b002      	add	sp, #8
  106914:	4770      	bx	lr
  106916:	bf00      	nop
  106918:	e000e100 	.word	0xe000e100

0010691c <NVIC_SetPendingIRQ>:
  10691c:	b082      	sub	sp, #8
  10691e:	4603      	mov	r3, r0
  106920:	f88d 3007 	strb.w	r3, [sp, #7]
  106924:	4908      	ldr	r1, [pc, #32]	; (106948 <NVIC_SetPendingIRQ+0x2c>)
  106926:	f99d 3007 	ldrsb.w	r3, [sp, #7]
  10692a:	095b      	lsrs	r3, r3, #5
  10692c:	f89d 2007 	ldrb.w	r2, [sp, #7]
  106930:	f002 021f 	and.w	r2, r2, #31
  106934:	2001      	movs	r0, #1
  106936:	fa00 f202 	lsl.w	r2, r0, r2
  10693a:	3340      	adds	r3, #64	; 0x40
  10693c:	f841 2023 	str.w	r2, [r1, r3, lsl #2]
  106940:	bf00      	nop
  106942:	b002      	add	sp, #8
  106944:	4770      	bx	lr
  106946:	bf00      	nop
  106948:	e000e100 	.word	0xe000e100

0010694c <NVIC_ClearPendingIRQ>:
  10694c:	b082      	sub	sp, #8
  10694e:	4603      	mov	r3, r0
  106950:	f88d 3007 	strb.w	r3, [sp, #7]
  106954:	4908      	ldr	r1, [pc, #32]	; (106978 <NVIC_ClearPendingIRQ+0x2c>)
  106956:	f99d 3007 	ldrsb.w	r3, [sp, #7]
  10695a:	095b      	lsrs	r3, r3, #5
  10695c:	f89d 2007 	ldrb.w	r2, [sp, #7]
  106960:	f002 021f 	and.w	r2, r2, #31
  106964:	2001      	movs	r0, #1
  106966:	fa00 f202 	lsl.w	r2, r0, r2
  10696a:	3360      	adds	r3, #96	; 0x60
  10696c:	f841 2023 	str.w	r2, [r1, r3, lsl #2]
  106970:	bf00      	nop
  106972:	b002      	add	sp, #8
  106974:	4770      	bx	lr
  106976:	bf00      	nop
  106978:	e000e100 	.word	0xe000e100

0010697c <NVIC_SetPriority>:
  10697c:	b082      	sub	sp, #8
  10697e:	4603      	mov	r3, r0
  106980:	9100      	str	r1, [sp, #0]
  106982:	f88d 3007 	strb.w	r3, [sp, #7]
  106986:	f99d 3007 	ldrsb.w	r3, [sp, #7]
  10698a:	2b00      	cmp	r3, #0
  10698c:	da0c      	bge.n	1069a8 <NVIC_SetPriority+0x2c>
  10698e:	490d      	ldr	r1, [pc, #52]	; (1069c4 <NVIC_SetPriority+0x48>)
  106990:	f89d 3007 	ldrb.w	r3, [sp, #7]
  106994:	f003 030f 	and.w	r3, r3, #15
  106998:	3b04      	subs	r3, #4
  10699a:	9a00      	ldr	r2, [sp, #0]
  10699c:	b2d2      	uxtb	r2, r2
  10699e:	0112      	lsls	r2, r2, #4
  1069a0:	b2d2      	uxtb	r2, r2
  1069a2:	440b      	add	r3, r1
  1069a4:	761a      	strb	r2, [r3, #24]
  1069a6:	e009      	b.n	1069bc <NVIC_SetPriority+0x40>
  1069a8:	4907      	ldr	r1, [pc, #28]	; (1069c8 <NVIC_SetPriority+0x4c>)
  1069aa:	f99d 3007 	ldrsb.w	r3, [sp, #7]
  1069ae:	9a00      	ldr	r2, [sp, #0]
  1069b0:	b2d2      	uxtb	r2, r2
  1069b2:	0112      	lsls	r2, r2, #4
  1069b4:	b2d2      	uxtb	r2, r2
  1069b6:	440b      	add	r3, r1
  1069b8:	f883 2300 	strb.w	r2, [r3, #768]	; 0x300
  1069bc:	bf00      	nop
  1069be:	b002      	add	sp, #8
  1069c0:	4770      	bx	lr
  1069c2:	bf00      	nop
  1069c4:	e000ed00 	.word	0xe000ed00
  1069c8:	e000e100 	.word	0xe000e100

001069cc <TIMER0_IRQHandler>:
  1069cc:	f04f 4380 	mov.w	r3, #1073741824	; 0x40000000
  1069d0:	2200      	movs	r2, #0
  1069d2:	60da      	str	r2, [r3, #12]
  1069d4:	4b03      	ldr	r3, [pc, #12]	; (1069e4 <TIMER0_IRQHandler+0x18>)
  1069d6:	681b      	ldr	r3, [r3, #0]
  1069d8:	3301      	adds	r3, #1
  1069da:	4a02      	ldr	r2, [pc, #8]	; (1069e4 <TIMER0_IRQHandler+0x18>)
  1069dc:	6013      	str	r3, [r2, #0]
  1069de:	bf00      	nop
  1069e0:	4770      	bx	lr
  1069e2:	bf00      	nop
  1069e4:	3fff45f8 	.word	0x3fff45f8

001069e8 <us_ticker_init>:
  1069e8:	b508      	push	{r3, lr}
  1069ea:	4b1d      	ldr	r3, [pc, #116]	; (106a60 <us_ticker_init+0x78>)
  1069ec:	681b      	ldr	r3, [r3, #0]
  1069ee:	2b00      	cmp	r3, #0
  1069f0:	d133      	bne.n	106a5a <us_ticker_init+0x72>
  1069f2:	4b1b      	ldr	r3, [pc, #108]	; (106a60 <us_ticker_init+0x78>)
  1069f4:	2201      	movs	r2, #1
  1069f6:	601a      	str	r2, [r3, #0]
  1069f8:	4a1a      	ldr	r2, [pc, #104]	; (106a64 <us_ticker_init+0x7c>)
  1069fa:	4b1a      	ldr	r3, [pc, #104]	; (106a64 <us_ticker_init+0x7c>)
  1069fc:	691b      	ldr	r3, [r3, #16]
  1069fe:	f023 0301 	bic.w	r3, r3, #1
  106a02:	6113      	str	r3, [r2, #16]
  106a04:	4a17      	ldr	r2, [pc, #92]	; (106a64 <us_ticker_init+0x7c>)
  106a06:	4b17      	ldr	r3, [pc, #92]	; (106a64 <us_ticker_init+0x7c>)
  106a08:	691b      	ldr	r3, [r3, #16]
  106a0a:	f023 0302 	bic.w	r3, r3, #2
  106a0e:	6113      	str	r3, [r2, #16]
  106a10:	f04f 4380 	mov.w	r3, #1073741824	; 0x40000000
  106a14:	f64f 72ff 	movw	r2, #65535	; 0xffff
  106a18:	601a      	str	r2, [r3, #0]
  106a1a:	f04f 4380 	mov.w	r3, #1073741824	; 0x40000000
  106a1e:	22d4      	movs	r2, #212	; 0xd4
  106a20:	609a      	str	r2, [r3, #8]
  106a22:	4b11      	ldr	r3, [pc, #68]	; (106a68 <us_ticker_init+0x80>)
  106a24:	f64f 72ff 	movw	r2, #65535	; 0xffff
  106a28:	601a      	str	r2, [r3, #0]
  106a2a:	4b0f      	ldr	r3, [pc, #60]	; (106a68 <us_ticker_init+0x80>)
  106a2c:	2254      	movs	r2, #84	; 0x54
  106a2e:	609a      	str	r2, [r3, #8]
  106a30:	2000      	movs	r0, #0
  106a32:	f7ff ff8b 	bl	10694c <NVIC_ClearPendingIRQ>
  106a36:	2001      	movs	r0, #1
  106a38:	f7ff ff88 	bl	10694c <NVIC_ClearPendingIRQ>
  106a3c:	2101      	movs	r1, #1
  106a3e:	2000      	movs	r0, #0
  106a40:	f7ff ff9c 	bl	10697c <NVIC_SetPriority>
  106a44:	2101      	movs	r1, #1
  106a46:	2001      	movs	r0, #1
  106a48:	f7ff ff98 	bl	10697c <NVIC_SetPriority>
  106a4c:	2000      	movs	r0, #0
  106a4e:	f7ff ff37 	bl	1068c0 <NVIC_EnableIRQ>
  106a52:	2001      	movs	r0, #1
  106a54:	f7ff ff34 	bl	1068c0 <NVIC_EnableIRQ>
  106a58:	e000      	b.n	106a5c <us_ticker_init+0x74>
  106a5a:	bf00      	nop
  106a5c:	bd08      	pop	{r3, pc}
  106a5e:	bf00      	nop
  106a60:	3fff45f0 	.word	0x3fff45f0
  106a64:	4001b000 	.word	0x4001b000
  106a68:	40001000 	.word	0x40001000

00106a6c <us_ticker_read>:
  106a6c:	b500      	push	{lr}
  106a6e:	b083      	sub	sp, #12
  106a70:	4b1c      	ldr	r3, [pc, #112]	; (106ae4 <us_ticker_read+0x78>)
  106a72:	681b      	ldr	r3, [r3, #0]
  106a74:	2b00      	cmp	r3, #0
  106a76:	d101      	bne.n	106a7c <us_ticker_read+0x10>
  106a78:	f7ff ffb6 	bl	1069e8 <us_ticker_init>
  106a7c:	f04f 4380 	mov.w	r3, #1073741824	; 0x40000000
  106a80:	685b      	ldr	r3, [r3, #4]
  106a82:	9300      	str	r3, [sp, #0]
  106a84:	9b00      	ldr	r3, [sp, #0]
  106a86:	f5c3 437f 	rsb	r3, r3, #65280	; 0xff00
  106a8a:	33ff      	adds	r3, #255	; 0xff
  106a8c:	9301      	str	r3, [sp, #4]
  106a8e:	2000      	movs	r0, #0
  106a90:	f7ff ff2c 	bl	1068ec <NVIC_DisableIRQ>
  106a94:	f04f 4380 	mov.w	r3, #1073741824	; 0x40000000
  106a98:	689b      	ldr	r3, [r3, #8]
  106a9a:	f3c3 2300 	ubfx	r3, r3, #8, #1
  106a9e:	b2db      	uxtb	r3, r3
  106aa0:	2b00      	cmp	r3, #0
  106aa2:	d011      	beq.n	106ac8 <us_ticker_read+0x5c>
  106aa4:	f04f 4380 	mov.w	r3, #1073741824	; 0x40000000
  106aa8:	2200      	movs	r2, #0
  106aaa:	60da      	str	r2, [r3, #12]
  106aac:	4b0e      	ldr	r3, [pc, #56]	; (106ae8 <us_ticker_read+0x7c>)
  106aae:	681b      	ldr	r3, [r3, #0]
  106ab0:	3301      	adds	r3, #1
  106ab2:	4a0d      	ldr	r2, [pc, #52]	; (106ae8 <us_ticker_read+0x7c>)
  106ab4:	6013      	str	r3, [r2, #0]
  106ab6:	f04f 4380 	mov.w	r3, #1073741824	; 0x40000000
  106aba:	685b      	ldr	r3, [r3, #4]
  106abc:	9300      	str	r3, [sp, #0]
  106abe:	9b00      	ldr	r3, [sp, #0]
  106ac0:	f5c3 437f 	rsb	r3, r3, #65280	; 0xff00
  106ac4:	33ff      	adds	r3, #255	; 0xff
  106ac6:	9301      	str	r3, [sp, #4]
  106ac8:	4b07      	ldr	r3, [pc, #28]	; (106ae8 <us_ticker_read+0x7c>)
  106aca:	681b      	ldr	r3, [r3, #0]
  106acc:	041b      	lsls	r3, r3, #16
  106ace:	9a01      	ldr	r2, [sp, #4]
  106ad0:	4313      	orrs	r3, r2
  106ad2:	9301      	str	r3, [sp, #4]
  106ad4:	2000      	movs	r0, #0
  106ad6:	f7ff fef3 	bl	1068c0 <NVIC_EnableIRQ>
  106ada:	9b01      	ldr	r3, [sp, #4]
  106adc:	4618      	mov	r0, r3
  106ade:	b003      	add	sp, #12
  106ae0:	f85d fb04 	ldr.w	pc, [sp], #4
  106ae4:	3fff45f0 	.word	0x3fff45f0
  106ae8:	3fff45f8 	.word	0x3fff45f8

00106aec <us_ticker_disable_interrupt>:
  106aec:	4a03      	ldr	r2, [pc, #12]	; (106afc <us_ticker_disable_interrupt+0x10>)
  106aee:	8913      	ldrh	r3, [r2, #8]
  106af0:	f36f 13c7 	bfc	r3, #7, #1
  106af4:	8113      	strh	r3, [r2, #8]
  106af6:	bf00      	nop
  106af8:	4770      	bx	lr
  106afa:	bf00      	nop
  106afc:	40001000 	.word	0x40001000

00106b00 <us_ticker_clear_interrupt>:
  106b00:	4b02      	ldr	r3, [pc, #8]	; (106b0c <us_ticker_clear_interrupt+0xc>)
  106b02:	2200      	movs	r2, #0
  106b04:	60da      	str	r2, [r3, #12]
  106b06:	bf00      	nop
  106b08:	4770      	bx	lr
  106b0a:	bf00      	nop
  106b0c:	40001000 	.word	0x40001000

00106b10 <ticker_set>:
  106b10:	b082      	sub	sp, #8
  106b12:	9001      	str	r0, [sp, #4]
  106b14:	4a07      	ldr	r2, [pc, #28]	; (106b34 <ticker_set+0x24>)
  106b16:	8913      	ldrh	r3, [r2, #8]
  106b18:	f36f 13c7 	bfc	r3, #7, #1
  106b1c:	8113      	strh	r3, [r2, #8]
  106b1e:	4a05      	ldr	r2, [pc, #20]	; (106b34 <ticker_set+0x24>)
  106b20:	9b01      	ldr	r3, [sp, #4]
  106b22:	6013      	str	r3, [r2, #0]
  106b24:	4a03      	ldr	r2, [pc, #12]	; (106b34 <ticker_set+0x24>)
  106b26:	8913      	ldrh	r3, [r2, #8]
  106b28:	f043 0380 	orr.w	r3, r3, #128	; 0x80
  106b2c:	8113      	strh	r3, [r2, #8]
  106b2e:	bf00      	nop
  106b30:	b002      	add	sp, #8
  106b32:	4770      	bx	lr
  106b34:	40001000 	.word	0x40001000

00106b38 <TIMER1_IRQHandler>:
  106b38:	b508      	push	{r3, lr}
  106b3a:	4b0d      	ldr	r3, [pc, #52]	; (106b70 <TIMER1_IRQHandler+0x38>)
  106b3c:	2200      	movs	r2, #0
  106b3e:	60da      	str	r2, [r3, #12]
  106b40:	4b0c      	ldr	r3, [pc, #48]	; (106b74 <TIMER1_IRQHandler+0x3c>)
  106b42:	681b      	ldr	r3, [r3, #0]
  106b44:	2b00      	cmp	r3, #0
  106b46:	dd09      	ble.n	106b5c <TIMER1_IRQHandler+0x24>
  106b48:	f64f 70ff 	movw	r0, #65535	; 0xffff
  106b4c:	f7ff ffe0 	bl	106b10 <ticker_set>
  106b50:	4b08      	ldr	r3, [pc, #32]	; (106b74 <TIMER1_IRQHandler+0x3c>)
  106b52:	681b      	ldr	r3, [r3, #0]
  106b54:	3b01      	subs	r3, #1
  106b56:	4a07      	ldr	r2, [pc, #28]	; (106b74 <TIMER1_IRQHandler+0x3c>)
  106b58:	6013      	str	r3, [r2, #0]
  106b5a:	e006      	b.n	106b6a <TIMER1_IRQHandler+0x32>
  106b5c:	4a04      	ldr	r2, [pc, #16]	; (106b70 <TIMER1_IRQHandler+0x38>)
  106b5e:	8913      	ldrh	r3, [r2, #8]
  106b60:	f36f 13c7 	bfc	r3, #7, #1
  106b64:	8113      	strh	r3, [r2, #8]
  106b66:	f7fe fc47 	bl	1053f8 <us_ticker_irq_handler>
  106b6a:	bf00      	nop
  106b6c:	bd08      	pop	{r3, pc}
  106b6e:	bf00      	nop
  106b70:	40001000 	.word	0x40001000
  106b74:	3fff45f4 	.word	0x3fff45f4

00106b78 <us_ticker_set_interrupt>:
  106b78:	b500      	push	{lr}
  106b7a:	b085      	sub	sp, #20
  106b7c:	9001      	str	r0, [sp, #4]
  106b7e:	f7ff ff75 	bl	106a6c <us_ticker_read>
  106b82:	4602      	mov	r2, r0
  106b84:	9b01      	ldr	r3, [sp, #4]
  106b86:	1a9b      	subs	r3, r3, r2
  106b88:	9303      	str	r3, [sp, #12]
  106b8a:	9b03      	ldr	r3, [sp, #12]
  106b8c:	2b00      	cmp	r3, #0
  106b8e:	dc03      	bgt.n	106b98 <us_ticker_set_interrupt+0x20>
  106b90:	2001      	movs	r0, #1
  106b92:	f7ff fec3 	bl	10691c <NVIC_SetPendingIRQ>
  106b96:	e007      	b.n	106ba8 <us_ticker_set_interrupt+0x30>
  106b98:	9b03      	ldr	r3, [sp, #12]
  106b9a:	141b      	asrs	r3, r3, #16
  106b9c:	4a04      	ldr	r2, [pc, #16]	; (106bb0 <us_ticker_set_interrupt+0x38>)
  106b9e:	6013      	str	r3, [r2, #0]
  106ba0:	9b03      	ldr	r3, [sp, #12]
  106ba2:	4618      	mov	r0, r3
  106ba4:	f7ff ffb4 	bl	106b10 <ticker_set>
  106ba8:	b005      	add	sp, #20
  106baa:	f85d fb04 	ldr.w	pc, [sp], #4
  106bae:	bf00      	nop
  106bb0:	3fff45f4 	.word	0x3fff45f4

00106bb4 <mbed::FunctionPointerArg1<void, void>::FunctionPointerArg1(void (*)())>:
  106bb4:	b500      	push	{lr}
  106bb6:	b083      	sub	sp, #12
  106bb8:	9001      	str	r0, [sp, #4]
  106bba:	9100      	str	r1, [sp, #0]
  106bbc:	9900      	ldr	r1, [sp, #0]
  106bbe:	9801      	ldr	r0, [sp, #4]
  106bc0:	f000 f82a 	bl	106c18 <mbed::FunctionPointerArg1<void, void>::attach(void (*)())>
  106bc4:	9b01      	ldr	r3, [sp, #4]
  106bc6:	4618      	mov	r0, r3
  106bc8:	b003      	add	sp, #12
  106bca:	f85d fb04 	ldr.w	pc, [sp], #4
  106bce:	bf00      	nop

00106bd0 <mbed::FunctionPointerArg1<void, void>::call()>:
  106bd0:	b500      	push	{lr}
  106bd2:	b083      	sub	sp, #12
  106bd4:	9001      	str	r0, [sp, #4]
  106bd6:	9b01      	ldr	r3, [sp, #4]
  106bd8:	695b      	ldr	r3, [r3, #20]
  106bda:	2b00      	cmp	r3, #0
  106bdc:	d107      	bne.n	106bee <mbed::FunctionPointerArg1<void, void>::call()+0x1e>
  106bde:	9b01      	ldr	r3, [sp, #4]
  106be0:	681b      	ldr	r3, [r3, #0]
  106be2:	2b00      	cmp	r3, #0
  106be4:	d003      	beq.n	106bee <mbed::FunctionPointerArg1<void, void>::call()+0x1e>
  106be6:	9b01      	ldr	r3, [sp, #4]
  106be8:	681b      	ldr	r3, [r3, #0]
  106bea:	4798      	blx	r3
  106bec:	e011      	b.n	106c12 <mbed::FunctionPointerArg1<void, void>::call()+0x42>
  106bee:	9b01      	ldr	r3, [sp, #4]
  106bf0:	695b      	ldr	r3, [r3, #20]
  106bf2:	2b00      	cmp	r3, #0
  106bf4:	d00c      	beq.n	106c10 <mbed::FunctionPointerArg1<void, void>::call()+0x40>
  106bf6:	9b01      	ldr	r3, [sp, #4]
  106bf8:	681b      	ldr	r3, [r3, #0]
  106bfa:	2b00      	cmp	r3, #0
  106bfc:	d008      	beq.n	106c10 <mbed::FunctionPointerArg1<void, void>::call()+0x40>
  106bfe:	9b01      	ldr	r3, [sp, #4]
  106c00:	695b      	ldr	r3, [r3, #20]
  106c02:	9a01      	ldr	r2, [sp, #4]
  106c04:	6810      	ldr	r0, [r2, #0]
  106c06:	9a01      	ldr	r2, [sp, #4]
  106c08:	3204      	adds	r2, #4
  106c0a:	4611      	mov	r1, r2
  106c0c:	4798      	blx	r3
  106c0e:	e000      	b.n	106c12 <mbed::FunctionPointerArg1<void, void>::call()+0x42>
  106c10:	bf00      	nop
  106c12:	b003      	add	sp, #12
  106c14:	f85d fb04 	ldr.w	pc, [sp], #4

00106c18 <mbed::FunctionPointerArg1<void, void>::attach(void (*)())>:
  106c18:	b082      	sub	sp, #8
  106c1a:	9001      	str	r0, [sp, #4]
  106c1c:	9100      	str	r1, [sp, #0]
  106c1e:	9b01      	ldr	r3, [sp, #4]
  106c20:	9a00      	ldr	r2, [sp, #0]
  106c22:	601a      	str	r2, [r3, #0]
  106c24:	9b01      	ldr	r3, [sp, #4]
  106c26:	2200      	movs	r2, #0
  106c28:	615a      	str	r2, [r3, #20]
  106c2a:	bf00      	nop
  106c2c:	b002      	add	sp, #8
  106c2e:	4770      	bx	lr

00106c30 <mbed::FileBase::FileBase(char const*, mbed::PathType)>:
  106c30:	b084      	sub	sp, #16
  106c32:	9003      	str	r0, [sp, #12]
  106c34:	9102      	str	r1, [sp, #8]
  106c36:	4613      	mov	r3, r2
  106c38:	f88d 3007 	strb.w	r3, [sp, #7]
  106c3c:	4a0f      	ldr	r2, [pc, #60]	; (106c7c <mbed::FileBase::FileBase(char const*, mbed::PathType)+0x4c>)
  106c3e:	9b03      	ldr	r3, [sp, #12]
  106c40:	601a      	str	r2, [r3, #0]
  106c42:	9b03      	ldr	r3, [sp, #12]
  106c44:	2200      	movs	r2, #0
  106c46:	605a      	str	r2, [r3, #4]
  106c48:	9b03      	ldr	r3, [sp, #12]
  106c4a:	9a02      	ldr	r2, [sp, #8]
  106c4c:	609a      	str	r2, [r3, #8]
  106c4e:	9b03      	ldr	r3, [sp, #12]
  106c50:	f89d 2007 	ldrb.w	r2, [sp, #7]
  106c54:	731a      	strb	r2, [r3, #12]
  106c56:	9b02      	ldr	r3, [sp, #8]
  106c58:	2b00      	cmp	r3, #0
  106c5a:	d007      	beq.n	106c6c <mbed::FileBase::FileBase(char const*, mbed::PathType)+0x3c>
  106c5c:	4b08      	ldr	r3, [pc, #32]	; (106c80 <mbed::FileBase::FileBase(char const*, mbed::PathType)+0x50>)
  106c5e:	681a      	ldr	r2, [r3, #0]
  106c60:	9b03      	ldr	r3, [sp, #12]
  106c62:	605a      	str	r2, [r3, #4]
  106c64:	4a06      	ldr	r2, [pc, #24]	; (106c80 <mbed::FileBase::FileBase(char const*, mbed::PathType)+0x50>)
  106c66:	9b03      	ldr	r3, [sp, #12]
  106c68:	6013      	str	r3, [r2, #0]
  106c6a:	e002      	b.n	106c72 <mbed::FileBase::FileBase(char const*, mbed::PathType)+0x42>
  106c6c:	9b03      	ldr	r3, [sp, #12]
  106c6e:	2200      	movs	r2, #0
  106c70:	605a      	str	r2, [r3, #4]
  106c72:	9b03      	ldr	r3, [sp, #12]
  106c74:	4618      	mov	r0, r3
  106c76:	b004      	add	sp, #16
  106c78:	4770      	bx	lr
  106c7a:	bf00      	nop
  106c7c:	0010e468 	.word	0x0010e468
  106c80:	3fff45fc 	.word	0x3fff45fc

00106c84 <mbed::FileBase::~FileBase()>:
  106c84:	b500      	push	{lr}
  106c86:	b085      	sub	sp, #20
  106c88:	9001      	str	r0, [sp, #4]
  106c8a:	4a16      	ldr	r2, [pc, #88]	; (106ce4 <mbed::FileBase::~FileBase()+0x60>)
  106c8c:	9b01      	ldr	r3, [sp, #4]
  106c8e:	601a      	str	r2, [r3, #0]
  106c90:	9b01      	ldr	r3, [sp, #4]
  106c92:	689b      	ldr	r3, [r3, #8]
  106c94:	2b00      	cmp	r3, #0
  106c96:	d019      	beq.n	106ccc <mbed::FileBase::~FileBase()+0x48>
  106c98:	4b13      	ldr	r3, [pc, #76]	; (106ce8 <mbed::FileBase::~FileBase()+0x64>)
  106c9a:	681a      	ldr	r2, [r3, #0]
  106c9c:	9b01      	ldr	r3, [sp, #4]
  106c9e:	429a      	cmp	r2, r3
  106ca0:	d104      	bne.n	106cac <mbed::FileBase::~FileBase()+0x28>
  106ca2:	9b01      	ldr	r3, [sp, #4]
  106ca4:	685b      	ldr	r3, [r3, #4]
  106ca6:	4a10      	ldr	r2, [pc, #64]	; (106ce8 <mbed::FileBase::~FileBase()+0x64>)
  106ca8:	6013      	str	r3, [r2, #0]
  106caa:	e00f      	b.n	106ccc <mbed::FileBase::~FileBase()+0x48>
  106cac:	4b0e      	ldr	r3, [pc, #56]	; (106ce8 <mbed::FileBase::~FileBase()+0x64>)
  106cae:	681b      	ldr	r3, [r3, #0]
  106cb0:	9303      	str	r3, [sp, #12]
  106cb2:	9b03      	ldr	r3, [sp, #12]
  106cb4:	685a      	ldr	r2, [r3, #4]
  106cb6:	9b01      	ldr	r3, [sp, #4]
  106cb8:	429a      	cmp	r2, r3
  106cba:	d003      	beq.n	106cc4 <mbed::FileBase::~FileBase()+0x40>
  106cbc:	9b03      	ldr	r3, [sp, #12]
  106cbe:	685b      	ldr	r3, [r3, #4]
  106cc0:	9303      	str	r3, [sp, #12]
  106cc2:	e7f6      	b.n	106cb2 <mbed::FileBase::~FileBase()+0x2e>
  106cc4:	9b01      	ldr	r3, [sp, #4]
  106cc6:	685a      	ldr	r2, [r3, #4]
  106cc8:	9b03      	ldr	r3, [sp, #12]
  106cca:	605a      	str	r2, [r3, #4]
  106ccc:	2300      	movs	r3, #0
  106cce:	2b00      	cmp	r3, #0
  106cd0:	d002      	beq.n	106cd8 <mbed::FileBase::~FileBase()+0x54>
  106cd2:	9801      	ldr	r0, [sp, #4]
  106cd4:	f000 ffbf 	bl	107c56 <operator delete(void*)>
  106cd8:	9b01      	ldr	r3, [sp, #4]
  106cda:	4618      	mov	r0, r3
  106cdc:	b005      	add	sp, #20
  106cde:	f85d fb04 	ldr.w	pc, [sp], #4
  106ce2:	bf00      	nop
  106ce4:	0010e468 	.word	0x0010e468
  106ce8:	3fff45fc 	.word	0x3fff45fc

00106cec <mbed::FileBase::~FileBase()>:
  106cec:	b500      	push	{lr}
  106cee:	b083      	sub	sp, #12
  106cf0:	9001      	str	r0, [sp, #4]
  106cf2:	9801      	ldr	r0, [sp, #4]
  106cf4:	f7ff ffc6 	bl	106c84 <mbed::FileBase::~FileBase()>
  106cf8:	9801      	ldr	r0, [sp, #4]
  106cfa:	f000 ffac 	bl	107c56 <operator delete(void*)>
  106cfe:	9b01      	ldr	r3, [sp, #4]
  106d00:	4618      	mov	r0, r3
  106d02:	b003      	add	sp, #12
  106d04:	f85d fb04 	ldr.w	pc, [sp], #4

00106d08 <mbed::FileBase::lookup(char const*, unsigned int)>:
  106d08:	b500      	push	{lr}
  106d0a:	b085      	sub	sp, #20
  106d0c:	9001      	str	r0, [sp, #4]
  106d0e:	9100      	str	r1, [sp, #0]
  106d10:	4b13      	ldr	r3, [pc, #76]	; (106d60 <mbed::FileBase::lookup(char const*, unsigned int)+0x58>)
  106d12:	681b      	ldr	r3, [r3, #0]
  106d14:	9303      	str	r3, [sp, #12]
  106d16:	9b03      	ldr	r3, [sp, #12]
  106d18:	2b00      	cmp	r3, #0
  106d1a:	d01c      	beq.n	106d56 <mbed::FileBase::lookup(char const*, unsigned int)+0x4e>
  106d1c:	9b03      	ldr	r3, [sp, #12]
  106d1e:	689b      	ldr	r3, [r3, #8]
  106d20:	2b00      	cmp	r3, #0
  106d22:	d014      	beq.n	106d4e <mbed::FileBase::lookup(char const*, unsigned int)+0x46>
  106d24:	9b03      	ldr	r3, [sp, #12]
  106d26:	689b      	ldr	r3, [r3, #8]
  106d28:	9a00      	ldr	r2, [sp, #0]
  106d2a:	9901      	ldr	r1, [sp, #4]
  106d2c:	4618      	mov	r0, r3
  106d2e:	f003 fc4a 	bl	10a5c6 <strncmp>
  106d32:	4603      	mov	r3, r0
  106d34:	2b00      	cmp	r3, #0
  106d36:	d10a      	bne.n	106d4e <mbed::FileBase::lookup(char const*, unsigned int)+0x46>
  106d38:	9b03      	ldr	r3, [sp, #12]
  106d3a:	689b      	ldr	r3, [r3, #8]
  106d3c:	4618      	mov	r0, r3
  106d3e:	f003 fc3a 	bl	10a5b6 <strlen>
  106d42:	4602      	mov	r2, r0
  106d44:	9b00      	ldr	r3, [sp, #0]
  106d46:	429a      	cmp	r2, r3
  106d48:	d101      	bne.n	106d4e <mbed::FileBase::lookup(char const*, unsigned int)+0x46>
  106d4a:	9b03      	ldr	r3, [sp, #12]
  106d4c:	e004      	b.n	106d58 <mbed::FileBase::lookup(char const*, unsigned int)+0x50>
  106d4e:	9b03      	ldr	r3, [sp, #12]
  106d50:	685b      	ldr	r3, [r3, #4]
  106d52:	9303      	str	r3, [sp, #12]
  106d54:	e7df      	b.n	106d16 <mbed::FileBase::lookup(char const*, unsigned int)+0xe>
  106d56:	2300      	movs	r3, #0
  106d58:	4618      	mov	r0, r3
  106d5a:	b005      	add	sp, #20
  106d5c:	f85d fb04 	ldr.w	pc, [sp], #4
  106d60:	3fff45fc 	.word	0x3fff45fc

00106d64 <mbed::FileBase::getPathType()>:
  106d64:	b082      	sub	sp, #8
  106d66:	9001      	str	r0, [sp, #4]
  106d68:	9b01      	ldr	r3, [sp, #4]
  106d6a:	7b1b      	ldrb	r3, [r3, #12]
  106d6c:	4618      	mov	r0, r3
  106d6e:	b002      	add	sp, #8
  106d70:	4770      	bx	lr
  106d72:	bf00      	nop

00106d74 <mbed::FileHandle::flen()>:
  106d74:	b500      	push	{lr}
  106d76:	b085      	sub	sp, #20
  106d78:	9001      	str	r0, [sp, #4]
  106d7a:	9b01      	ldr	r3, [sp, #4]
  106d7c:	681b      	ldr	r3, [r3, #0]
  106d7e:	3310      	adds	r3, #16
  106d80:	681b      	ldr	r3, [r3, #0]
  106d82:	2201      	movs	r2, #1
  106d84:	2100      	movs	r1, #0
  106d86:	9801      	ldr	r0, [sp, #4]
  106d88:	4798      	blx	r3
  106d8a:	9003      	str	r0, [sp, #12]
  106d8c:	9b03      	ldr	r3, [sp, #12]
  106d8e:	f1b3 3fff 	cmp.w	r3, #4294967295
  106d92:	d102      	bne.n	106d9a <mbed::FileHandle::flen()+0x26>
  106d94:	f04f 33ff 	mov.w	r3, #4294967295
  106d98:	e011      	b.n	106dbe <mbed::FileHandle::flen()+0x4a>
  106d9a:	9b01      	ldr	r3, [sp, #4]
  106d9c:	681b      	ldr	r3, [r3, #0]
  106d9e:	3310      	adds	r3, #16
  106da0:	681b      	ldr	r3, [r3, #0]
  106da2:	2202      	movs	r2, #2
  106da4:	2100      	movs	r1, #0
  106da6:	9801      	ldr	r0, [sp, #4]
  106da8:	4798      	blx	r3
  106daa:	9002      	str	r0, [sp, #8]
  106dac:	9b01      	ldr	r3, [sp, #4]
  106dae:	681b      	ldr	r3, [r3, #0]
  106db0:	3310      	adds	r3, #16
  106db2:	681b      	ldr	r3, [r3, #0]
  106db4:	2200      	movs	r2, #0
  106db6:	9903      	ldr	r1, [sp, #12]
  106db8:	9801      	ldr	r0, [sp, #4]
  106dba:	4798      	blx	r3
  106dbc:	9b02      	ldr	r3, [sp, #8]
  106dbe:	4618      	mov	r0, r3
  106dc0:	b005      	add	sp, #20
  106dc2:	f85d fb04 	ldr.w	pc, [sp], #4
  106dc6:	bf00      	nop

00106dc8 <mbed::FileHandle::FileHandle()>:
  106dc8:	b082      	sub	sp, #8
  106dca:	9001      	str	r0, [sp, #4]
  106dcc:	4a03      	ldr	r2, [pc, #12]	; (106ddc <mbed::FileHandle::FileHandle()+0x14>)
  106dce:	9b01      	ldr	r3, [sp, #4]
  106dd0:	601a      	str	r2, [r3, #0]
  106dd2:	9b01      	ldr	r3, [sp, #4]
  106dd4:	4618      	mov	r0, r3
  106dd6:	b002      	add	sp, #8
  106dd8:	4770      	bx	lr
  106dda:	bf00      	nop
  106ddc:	0010e4ec 	.word	0x0010e4ec

00106de0 <mbed::FileLike::FileLike(char const*)>:
  106de0:	b500      	push	{lr}
  106de2:	b083      	sub	sp, #12
  106de4:	9001      	str	r0, [sp, #4]
  106de6:	9100      	str	r1, [sp, #0]
  106de8:	9b01      	ldr	r3, [sp, #4]
  106dea:	4618      	mov	r0, r3
  106dec:	f7ff ffec 	bl	106dc8 <mbed::FileHandle::FileHandle()>
  106df0:	9b01      	ldr	r3, [sp, #4]
  106df2:	3304      	adds	r3, #4
  106df4:	2200      	movs	r2, #0
  106df6:	9900      	ldr	r1, [sp, #0]
  106df8:	4618      	mov	r0, r3
  106dfa:	f7ff ff19 	bl	106c30 <mbed::FileBase::FileBase(char const*, mbed::PathType)>
  106dfe:	4a05      	ldr	r2, [pc, #20]	; (106e14 <mbed::FileLike::FileLike(char const*)+0x34>)
  106e00:	9b01      	ldr	r3, [sp, #4]
  106e02:	601a      	str	r2, [r3, #0]
  106e04:	4a04      	ldr	r2, [pc, #16]	; (106e18 <mbed::FileLike::FileLike(char const*)+0x38>)
  106e06:	9b01      	ldr	r3, [sp, #4]
  106e08:	605a      	str	r2, [r3, #4]
  106e0a:	9b01      	ldr	r3, [sp, #4]
  106e0c:	4618      	mov	r0, r3
  106e0e:	b003      	add	sp, #12
  106e10:	f85d fb04 	ldr.w	pc, [sp], #4
  106e14:	0010e478 	.word	0x0010e478
  106e18:	0010e4a4 	.word	0x0010e4a4

00106e1c <mbed::FileLike::~FileLike()>:
  106e1c:	b500      	push	{lr}
  106e1e:	b083      	sub	sp, #12
  106e20:	9001      	str	r0, [sp, #4]
  106e22:	4a0d      	ldr	r2, [pc, #52]	; (106e58 <mbed::FileLike::~FileLike()+0x3c>)
  106e24:	9b01      	ldr	r3, [sp, #4]
  106e26:	601a      	str	r2, [r3, #0]
  106e28:	4a0c      	ldr	r2, [pc, #48]	; (106e5c <mbed::FileLike::~FileLike()+0x40>)
  106e2a:	9b01      	ldr	r3, [sp, #4]
  106e2c:	605a      	str	r2, [r3, #4]
  106e2e:	9b01      	ldr	r3, [sp, #4]
  106e30:	3304      	adds	r3, #4
  106e32:	4618      	mov	r0, r3
  106e34:	f7ff ff26 	bl	106c84 <mbed::FileBase::~FileBase()>
  106e38:	9b01      	ldr	r3, [sp, #4]
  106e3a:	4618      	mov	r0, r3
  106e3c:	f000 fa2c 	bl	107298 <mbed::FileHandle::~FileHandle()>
  106e40:	2300      	movs	r3, #0
  106e42:	2b00      	cmp	r3, #0
  106e44:	d002      	beq.n	106e4c <mbed::FileLike::~FileLike()+0x30>
  106e46:	9801      	ldr	r0, [sp, #4]
  106e48:	f000 ff05 	bl	107c56 <operator delete(void*)>
  106e4c:	9b01      	ldr	r3, [sp, #4]
  106e4e:	4618      	mov	r0, r3
  106e50:	b003      	add	sp, #12
  106e52:	f85d fb04 	ldr.w	pc, [sp], #4
  106e56:	bf00      	nop
  106e58:	0010e478 	.word	0x0010e478
  106e5c:	0010e4a4 	.word	0x0010e4a4

00106e60 <mbed::FilePath::FilePath(char const*)>:
  106e60:	b500      	push	{lr}
  106e62:	b087      	sub	sp, #28
  106e64:	9001      	str	r0, [sp, #4]
  106e66:	9100      	str	r1, [sp, #0]
  106e68:	9b01      	ldr	r3, [sp, #4]
  106e6a:	2200      	movs	r2, #0
  106e6c:	601a      	str	r2, [r3, #0]
  106e6e:	9b01      	ldr	r3, [sp, #4]
  106e70:	2200      	movs	r2, #0
  106e72:	605a      	str	r2, [r3, #4]
  106e74:	9b00      	ldr	r3, [sp, #0]
  106e76:	781b      	ldrb	r3, [r3, #0]
  106e78:	2b2f      	cmp	r3, #47	; 0x2f
  106e7a:	d131      	bne.n	106ee0 <mbed::FilePath::FilePath(char const*)+0x80>
  106e7c:	9b00      	ldr	r3, [sp, #0]
  106e7e:	3301      	adds	r3, #1
  106e80:	781b      	ldrb	r3, [r3, #0]
  106e82:	2b00      	cmp	r3, #0
  106e84:	d02c      	beq.n	106ee0 <mbed::FilePath::FilePath(char const*)+0x80>
  106e86:	9b00      	ldr	r3, [sp, #0]
  106e88:	3301      	adds	r3, #1
  106e8a:	9304      	str	r3, [sp, #16]
  106e8c:	9b01      	ldr	r3, [sp, #4]
  106e8e:	9a04      	ldr	r2, [sp, #16]
  106e90:	601a      	str	r2, [r3, #0]
  106e92:	2300      	movs	r3, #0
  106e94:	9305      	str	r3, [sp, #20]
  106e96:	9b01      	ldr	r3, [sp, #4]
  106e98:	681b      	ldr	r3, [r3, #0]
  106e9a:	781b      	ldrb	r3, [r3, #0]
  106e9c:	f88d 300f 	strb.w	r3, [sp, #15]
  106ea0:	f89d 300f 	ldrb.w	r3, [sp, #15]
  106ea4:	2b2f      	cmp	r3, #47	; 0x2f
  106ea6:	d105      	bne.n	106eb4 <mbed::FilePath::FilePath(char const*)+0x54>
  106ea8:	9b01      	ldr	r3, [sp, #4]
  106eaa:	681b      	ldr	r3, [r3, #0]
  106eac:	1c5a      	adds	r2, r3, #1
  106eae:	9b01      	ldr	r3, [sp, #4]
  106eb0:	601a      	str	r2, [r3, #0]
  106eb2:	e00d      	b.n	106ed0 <mbed::FilePath::FilePath(char const*)+0x70>
  106eb4:	f89d 300f 	ldrb.w	r3, [sp, #15]
  106eb8:	2b00      	cmp	r3, #0
  106eba:	d008      	beq.n	106ece <mbed::FilePath::FilePath(char const*)+0x6e>
  106ebc:	9b05      	ldr	r3, [sp, #20]
  106ebe:	3301      	adds	r3, #1
  106ec0:	9305      	str	r3, [sp, #20]
  106ec2:	9b01      	ldr	r3, [sp, #4]
  106ec4:	681b      	ldr	r3, [r3, #0]
  106ec6:	1c5a      	adds	r2, r3, #1
  106ec8:	9b01      	ldr	r3, [sp, #4]
  106eca:	601a      	str	r2, [r3, #0]
  106ecc:	e7e3      	b.n	106e96 <mbed::FilePath::FilePath(char const*)+0x36>
  106ece:	bf00      	nop
  106ed0:	9b05      	ldr	r3, [sp, #20]
  106ed2:	4619      	mov	r1, r3
  106ed4:	9804      	ldr	r0, [sp, #16]
  106ed6:	f7ff ff17 	bl	106d08 <mbed::FileBase::lookup(char const*, unsigned int)>
  106eda:	4602      	mov	r2, r0
  106edc:	9b01      	ldr	r3, [sp, #4]
  106ede:	605a      	str	r2, [r3, #4]
  106ee0:	9b01      	ldr	r3, [sp, #4]
  106ee2:	4618      	mov	r0, r3
  106ee4:	b007      	add	sp, #28
  106ee6:	f85d fb04 	ldr.w	pc, [sp], #4
  106eea:	bf00      	nop

00106eec <mbed::FilePath::fileName()>:
  106eec:	b082      	sub	sp, #8
  106eee:	9001      	str	r0, [sp, #4]
  106ef0:	9b01      	ldr	r3, [sp, #4]
  106ef2:	681b      	ldr	r3, [r3, #0]
  106ef4:	4618      	mov	r0, r3
  106ef6:	b002      	add	sp, #8
  106ef8:	4770      	bx	lr
  106efa:	bf00      	nop

00106efc <mbed::FilePath::isFileSystem()>:
  106efc:	b500      	push	{lr}
  106efe:	b083      	sub	sp, #12
  106f00:	9001      	str	r0, [sp, #4]
  106f02:	9b01      	ldr	r3, [sp, #4]
  106f04:	685b      	ldr	r3, [r3, #4]
  106f06:	2b00      	cmp	r3, #0
  106f08:	d101      	bne.n	106f0e <mbed::FilePath::isFileSystem()+0x12>
  106f0a:	2300      	movs	r3, #0
  106f0c:	e00a      	b.n	106f24 <mbed::FilePath::isFileSystem()+0x28>
  106f0e:	9b01      	ldr	r3, [sp, #4]
  106f10:	685b      	ldr	r3, [r3, #4]
  106f12:	4618      	mov	r0, r3
  106f14:	f7ff ff26 	bl	106d64 <mbed::FileBase::getPathType()>
  106f18:	4603      	mov	r3, r0
  106f1a:	2b01      	cmp	r3, #1
  106f1c:	bf0c      	ite	eq
  106f1e:	2301      	moveq	r3, #1
  106f20:	2300      	movne	r3, #0
  106f22:	b2db      	uxtb	r3, r3
  106f24:	4618      	mov	r0, r3
  106f26:	b003      	add	sp, #12
  106f28:	f85d fb04 	ldr.w	pc, [sp], #4

00106f2c <mbed::FilePath::fileSystem()>:
  106f2c:	b500      	push	{lr}
  106f2e:	b083      	sub	sp, #12
  106f30:	9001      	str	r0, [sp, #4]
  106f32:	9801      	ldr	r0, [sp, #4]
  106f34:	f7ff ffe2 	bl	106efc <mbed::FilePath::isFileSystem()>
  106f38:	4603      	mov	r3, r0
  106f3a:	2b00      	cmp	r3, #0
  106f3c:	d002      	beq.n	106f44 <mbed::FilePath::fileSystem()+0x18>
  106f3e:	9b01      	ldr	r3, [sp, #4]
  106f40:	685b      	ldr	r3, [r3, #4]
  106f42:	e000      	b.n	106f46 <mbed::FilePath::fileSystem()+0x1a>
  106f44:	2300      	movs	r3, #0
  106f46:	4618      	mov	r0, r3
  106f48:	b003      	add	sp, #12
  106f4a:	f85d fb04 	ldr.w	pc, [sp], #4
  106f4e:	bf00      	nop

00106f50 <mbed::FilePath::isFile()>:
  106f50:	b500      	push	{lr}
  106f52:	b083      	sub	sp, #12
  106f54:	9001      	str	r0, [sp, #4]
  106f56:	9b01      	ldr	r3, [sp, #4]
  106f58:	685b      	ldr	r3, [r3, #4]
  106f5a:	2b00      	cmp	r3, #0
  106f5c:	d101      	bne.n	106f62 <mbed::FilePath::isFile()+0x12>
  106f5e:	2300      	movs	r3, #0
  106f60:	e00a      	b.n	106f78 <mbed::FilePath::isFile()+0x28>
  106f62:	9b01      	ldr	r3, [sp, #4]
  106f64:	685b      	ldr	r3, [r3, #4]
  106f66:	4618      	mov	r0, r3
  106f68:	f7ff fefc 	bl	106d64 <mbed::FileBase::getPathType()>
  106f6c:	4603      	mov	r3, r0
  106f6e:	2b00      	cmp	r3, #0
  106f70:	bf0c      	ite	eq
  106f72:	2301      	moveq	r3, #1
  106f74:	2300      	movne	r3, #0
  106f76:	b2db      	uxtb	r3, r3
  106f78:	4618      	mov	r0, r3
  106f7a:	b003      	add	sp, #12
  106f7c:	f85d fb04 	ldr.w	pc, [sp], #4

00106f80 <mbed::FilePath::file()>:
  106f80:	b500      	push	{lr}
  106f82:	b083      	sub	sp, #12
  106f84:	9001      	str	r0, [sp, #4]
  106f86:	9801      	ldr	r0, [sp, #4]
  106f88:	f7ff ffe2 	bl	106f50 <mbed::FilePath::isFile()>
  106f8c:	4603      	mov	r3, r0
  106f8e:	2b00      	cmp	r3, #0
  106f90:	d009      	beq.n	106fa6 <mbed::FilePath::file()+0x26>
  106f92:	9b01      	ldr	r3, [sp, #4]
  106f94:	685b      	ldr	r3, [r3, #4]
  106f96:	2b00      	cmp	r3, #0
  106f98:	d003      	beq.n	106fa2 <mbed::FilePath::file()+0x22>
  106f9a:	9b01      	ldr	r3, [sp, #4]
  106f9c:	685b      	ldr	r3, [r3, #4]
  106f9e:	3b04      	subs	r3, #4
  106fa0:	e002      	b.n	106fa8 <mbed::FilePath::file()+0x28>
  106fa2:	2300      	movs	r3, #0
  106fa4:	e000      	b.n	106fa8 <mbed::FilePath::file()+0x28>
  106fa6:	2300      	movs	r3, #0
  106fa8:	4618      	mov	r0, r3
  106faa:	b003      	add	sp, #12
  106fac:	f85d fb04 	ldr.w	pc, [sp], #4

00106fb0 <mbed::FilePath::exists()>:
  106fb0:	b082      	sub	sp, #8
  106fb2:	9001      	str	r0, [sp, #4]
  106fb4:	9b01      	ldr	r3, [sp, #4]
  106fb6:	685b      	ldr	r3, [r3, #4]
  106fb8:	2b00      	cmp	r3, #0
  106fba:	bf14      	ite	ne
  106fbc:	2301      	movne	r3, #1
  106fbe:	2300      	moveq	r3, #0
  106fc0:	b2db      	uxtb	r3, r3
  106fc2:	4618      	mov	r0, r3
  106fc4:	b002      	add	sp, #8
  106fc6:	4770      	bx	lr

00106fc8 <mbed::I2C::I2C(PinName, PinName)>:
  106fc8:	b500      	push	{lr}
  106fca:	b085      	sub	sp, #20
  106fcc:	9003      	str	r0, [sp, #12]
  106fce:	9102      	str	r1, [sp, #8]
  106fd0:	9201      	str	r2, [sp, #4]
  106fd2:	9b03      	ldr	r3, [sp, #12]
  106fd4:	2200      	movs	r2, #0
  106fd6:	601a      	str	r2, [r3, #0]
  106fd8:	9b03      	ldr	r3, [sp, #12]
  106fda:	4a08      	ldr	r2, [pc, #32]	; (106ffc <mbed::I2C::I2C(PinName, PinName)+0x34>)
  106fdc:	605a      	str	r2, [r3, #4]
  106fde:	9b03      	ldr	r3, [sp, #12]
  106fe0:	9a01      	ldr	r2, [sp, #4]
  106fe2:	9902      	ldr	r1, [sp, #8]
  106fe4:	4618      	mov	r0, r3
  106fe6:	f7fe fde1 	bl	105bac <i2c_init>
  106fea:	4a05      	ldr	r2, [pc, #20]	; (107000 <mbed::I2C::I2C(PinName, PinName)+0x38>)
  106fec:	9b03      	ldr	r3, [sp, #12]
  106fee:	6013      	str	r3, [r2, #0]
  106ff0:	9b03      	ldr	r3, [sp, #12]
  106ff2:	4618      	mov	r0, r3
  106ff4:	b005      	add	sp, #20
  106ff6:	f85d fb04 	ldr.w	pc, [sp], #4
  106ffa:	bf00      	nop
  106ffc:	000186a0 	.word	0x000186a0
  107000:	3fff4600 	.word	0x3fff4600

00107004 <mbed::I2C::frequency(int)>:
  107004:	b500      	push	{lr}
  107006:	b083      	sub	sp, #12
  107008:	9001      	str	r0, [sp, #4]
  10700a:	9100      	str	r1, [sp, #0]
  10700c:	9b01      	ldr	r3, [sp, #4]
  10700e:	9a00      	ldr	r2, [sp, #0]
  107010:	605a      	str	r2, [r3, #4]
  107012:	9a01      	ldr	r2, [sp, #4]
  107014:	9b01      	ldr	r3, [sp, #4]
  107016:	685b      	ldr	r3, [r3, #4]
  107018:	4619      	mov	r1, r3
  10701a:	4610      	mov	r0, r2
  10701c:	f7fe fdfe 	bl	105c1c <i2c_frequency>
  107020:	4a03      	ldr	r2, [pc, #12]	; (107030 <mbed::I2C::frequency(int)+0x2c>)
  107022:	9b01      	ldr	r3, [sp, #4]
  107024:	6013      	str	r3, [r2, #0]
  107026:	bf00      	nop
  107028:	b003      	add	sp, #12
  10702a:	f85d fb04 	ldr.w	pc, [sp], #4
  10702e:	bf00      	nop
  107030:	3fff4600 	.word	0x3fff4600

00107034 <mbed::I2C::aquire()>:
  107034:	b500      	push	{lr}
  107036:	b083      	sub	sp, #12
  107038:	9001      	str	r0, [sp, #4]
  10703a:	4b09      	ldr	r3, [pc, #36]	; (107060 <mbed::I2C::aquire()+0x2c>)
  10703c:	681a      	ldr	r2, [r3, #0]
  10703e:	9b01      	ldr	r3, [sp, #4]
  107040:	429a      	cmp	r2, r3
  107042:	d009      	beq.n	107058 <mbed::I2C::aquire()+0x24>
  107044:	9a01      	ldr	r2, [sp, #4]
  107046:	9b01      	ldr	r3, [sp, #4]
  107048:	685b      	ldr	r3, [r3, #4]
  10704a:	4619      	mov	r1, r3
  10704c:	4610      	mov	r0, r2
  10704e:	f7fe fde5 	bl	105c1c <i2c_frequency>
  107052:	4a03      	ldr	r2, [pc, #12]	; (107060 <mbed::I2C::aquire()+0x2c>)
  107054:	9b01      	ldr	r3, [sp, #4]
  107056:	6013      	str	r3, [r2, #0]
  107058:	bf00      	nop
  10705a:	b003      	add	sp, #12
  10705c:	f85d fb04 	ldr.w	pc, [sp], #4
  107060:	3fff4600 	.word	0x3fff4600

00107064 <mbed::I2C::write(int, char const*, int, bool)>:
  107064:	b500      	push	{lr}
  107066:	b089      	sub	sp, #36	; 0x24
  107068:	9005      	str	r0, [sp, #20]
  10706a:	9104      	str	r1, [sp, #16]
  10706c:	9203      	str	r2, [sp, #12]
  10706e:	9302      	str	r3, [sp, #8]
  107070:	9805      	ldr	r0, [sp, #20]
  107072:	f7ff ffdf 	bl	107034 <mbed::I2C::aquire()>
  107076:	f89d 3028 	ldrb.w	r3, [sp, #40]	; 0x28
  10707a:	2b00      	cmp	r3, #0
  10707c:	d001      	beq.n	107082 <mbed::I2C::write(int, char const*, int, bool)+0x1e>
  10707e:	2300      	movs	r3, #0
  107080:	e000      	b.n	107084 <mbed::I2C::write(int, char const*, int, bool)+0x20>
  107082:	2301      	movs	r3, #1
  107084:	9307      	str	r3, [sp, #28]
  107086:	9805      	ldr	r0, [sp, #20]
  107088:	9b07      	ldr	r3, [sp, #28]
  10708a:	9300      	str	r3, [sp, #0]
  10708c:	9b02      	ldr	r3, [sp, #8]
  10708e:	9a03      	ldr	r2, [sp, #12]
  107090:	9904      	ldr	r1, [sp, #16]
  107092:	f7fe feb9 	bl	105e08 <i2c_write>
  107096:	9006      	str	r0, [sp, #24]
  107098:	9a02      	ldr	r2, [sp, #8]
  10709a:	9b06      	ldr	r3, [sp, #24]
  10709c:	429a      	cmp	r2, r3
  10709e:	bf14      	ite	ne
  1070a0:	2301      	movne	r3, #1
  1070a2:	2300      	moveq	r3, #0
  1070a4:	b2db      	uxtb	r3, r3
  1070a6:	4618      	mov	r0, r3
  1070a8:	b009      	add	sp, #36	; 0x24
  1070aa:	f85d fb04 	ldr.w	pc, [sp], #4
  1070ae:	bf00      	nop

001070b0 <mbed::I2C::read(int, char*, int, bool)>:
  1070b0:	b500      	push	{lr}
  1070b2:	b089      	sub	sp, #36	; 0x24
  1070b4:	9005      	str	r0, [sp, #20]
  1070b6:	9104      	str	r1, [sp, #16]
  1070b8:	9203      	str	r2, [sp, #12]
  1070ba:	9302      	str	r3, [sp, #8]
  1070bc:	9805      	ldr	r0, [sp, #20]
  1070be:	f7ff ffb9 	bl	107034 <mbed::I2C::aquire()>
  1070c2:	f89d 3028 	ldrb.w	r3, [sp, #40]	; 0x28
  1070c6:	2b00      	cmp	r3, #0
  1070c8:	d001      	beq.n	1070ce <mbed::I2C::read(int, char*, int, bool)+0x1e>
  1070ca:	2300      	movs	r3, #0
  1070cc:	e000      	b.n	1070d0 <mbed::I2C::read(int, char*, int, bool)+0x20>
  1070ce:	2301      	movs	r3, #1
  1070d0:	9307      	str	r3, [sp, #28]
  1070d2:	9805      	ldr	r0, [sp, #20]
  1070d4:	9b07      	ldr	r3, [sp, #28]
  1070d6:	9300      	str	r3, [sp, #0]
  1070d8:	9b02      	ldr	r3, [sp, #8]
  1070da:	9a03      	ldr	r2, [sp, #12]
  1070dc:	9904      	ldr	r1, [sp, #16]
  1070de:	f7fe fed1 	bl	105e84 <i2c_read>
  1070e2:	9006      	str	r0, [sp, #24]
  1070e4:	9a02      	ldr	r2, [sp, #8]
  1070e6:	9b06      	ldr	r3, [sp, #24]
  1070e8:	429a      	cmp	r2, r3
  1070ea:	bf14      	ite	ne
  1070ec:	2301      	movne	r3, #1
  1070ee:	2300      	moveq	r3, #0
  1070f0:	b2db      	uxtb	r3, r3
  1070f2:	4618      	mov	r0, r3
  1070f4:	b009      	add	sp, #36	; 0x24
  1070f6:	f85d fb04 	ldr.w	pc, [sp], #4
  1070fa:	bf00      	nop

001070fc <mbed::InterruptIn::InterruptIn(PinName)>:
  1070fc:	b500      	push	{lr}
  1070fe:	b083      	sub	sp, #12
  107100:	9001      	str	r0, [sp, #4]
  107102:	9100      	str	r1, [sp, #0]
  107104:	4a19      	ldr	r2, [pc, #100]	; (10716c <mbed::InterruptIn::InterruptIn(PinName)+0x70>)
  107106:	9b01      	ldr	r3, [sp, #4]
  107108:	601a      	str	r2, [r3, #0]
  10710a:	9b01      	ldr	r3, [sp, #4]
  10710c:	3304      	adds	r3, #4
  10710e:	2200      	movs	r2, #0
  107110:	601a      	str	r2, [r3, #0]
  107112:	605a      	str	r2, [r3, #4]
  107114:	609a      	str	r2, [r3, #8]
  107116:	60da      	str	r2, [r3, #12]
  107118:	611a      	str	r2, [r3, #16]
  10711a:	615a      	str	r2, [r3, #20]
  10711c:	9b01      	ldr	r3, [sp, #4]
  10711e:	2200      	movs	r2, #0
  107120:	61da      	str	r2, [r3, #28]
  107122:	9b01      	ldr	r3, [sp, #4]
  107124:	2200      	movs	r2, #0
  107126:	621a      	str	r2, [r3, #32]
  107128:	9b01      	ldr	r3, [sp, #4]
  10712a:	2200      	movs	r2, #0
  10712c:	625a      	str	r2, [r3, #36]	; 0x24
  10712e:	9b01      	ldr	r3, [sp, #4]
  107130:	3328      	adds	r3, #40	; 0x28
  107132:	2100      	movs	r1, #0
  107134:	4618      	mov	r0, r3
  107136:	f7ff fd3d 	bl	106bb4 <mbed::FunctionPointerArg1<void, void>::FunctionPointerArg1(void (*)())>
  10713a:	9b01      	ldr	r3, [sp, #4]
  10713c:	3340      	adds	r3, #64	; 0x40
  10713e:	2100      	movs	r1, #0
  107140:	4618      	mov	r0, r3
  107142:	f7ff fd37 	bl	106bb4 <mbed::FunctionPointerArg1<void, void>::FunctionPointerArg1(void (*)())>
  107146:	9b01      	ldr	r3, [sp, #4]
  107148:	f103 001c 	add.w	r0, r3, #28
  10714c:	9b01      	ldr	r3, [sp, #4]
  10714e:	4a08      	ldr	r2, [pc, #32]	; (107170 <mbed::InterruptIn::InterruptIn(PinName)+0x74>)
  107150:	9900      	ldr	r1, [sp, #0]
  107152:	f7fe fbb3 	bl	1058bc <gpio_irq_init>
  107156:	9b01      	ldr	r3, [sp, #4]
  107158:	3304      	adds	r3, #4
  10715a:	9900      	ldr	r1, [sp, #0]
  10715c:	4618      	mov	r0, r3
  10715e:	f7fe f8cd 	bl	1052fc <gpio_init_in>
  107162:	9b01      	ldr	r3, [sp, #4]
  107164:	4618      	mov	r0, r3
  107166:	b003      	add	sp, #12
  107168:	f85d fb04 	ldr.w	pc, [sp], #4
  10716c:	0010e4b4 	.word	0x0010e4b4
  107170:	00107259 	.word	0x00107259

00107174 <mbed::InterruptIn::~InterruptIn()>:
  107174:	b500      	push	{lr}
  107176:	b083      	sub	sp, #12
  107178:	9001      	str	r0, [sp, #4]
  10717a:	4a09      	ldr	r2, [pc, #36]	; (1071a0 <mbed::InterruptIn::~InterruptIn()+0x2c>)
  10717c:	9b01      	ldr	r3, [sp, #4]
  10717e:	601a      	str	r2, [r3, #0]
  107180:	9b01      	ldr	r3, [sp, #4]
  107182:	331c      	adds	r3, #28
  107184:	4618      	mov	r0, r3
  107186:	f7fe fc25 	bl	1059d4 <gpio_irq_free>
  10718a:	2300      	movs	r3, #0
  10718c:	2b00      	cmp	r3, #0
  10718e:	d002      	beq.n	107196 <mbed::InterruptIn::~InterruptIn()+0x22>
  107190:	9801      	ldr	r0, [sp, #4]
  107192:	f000 fd60 	bl	107c56 <operator delete(void*)>
  107196:	9b01      	ldr	r3, [sp, #4]
  107198:	4618      	mov	r0, r3
  10719a:	b003      	add	sp, #12
  10719c:	f85d fb04 	ldr.w	pc, [sp], #4
  1071a0:	0010e4b4 	.word	0x0010e4b4

001071a4 <mbed::InterruptIn::~InterruptIn()>:
  1071a4:	b500      	push	{lr}
  1071a6:	b083      	sub	sp, #12
  1071a8:	9001      	str	r0, [sp, #4]
  1071aa:	9801      	ldr	r0, [sp, #4]
  1071ac:	f7ff ffe2 	bl	107174 <mbed::InterruptIn::~InterruptIn()>
  1071b0:	9801      	ldr	r0, [sp, #4]
  1071b2:	f000 fd50 	bl	107c56 <operator delete(void*)>
  1071b6:	9b01      	ldr	r3, [sp, #4]
  1071b8:	4618      	mov	r0, r3
  1071ba:	b003      	add	sp, #12
  1071bc:	f85d fb04 	ldr.w	pc, [sp], #4

001071c0 <mbed::InterruptIn::rise(void (*)())>:
  1071c0:	b500      	push	{lr}
  1071c2:	b083      	sub	sp, #12
  1071c4:	9001      	str	r0, [sp, #4]
  1071c6:	9100      	str	r1, [sp, #0]
  1071c8:	9b00      	ldr	r3, [sp, #0]
  1071ca:	2b00      	cmp	r3, #0
  1071cc:	d00d      	beq.n	1071ea <mbed::InterruptIn::rise(void (*)())+0x2a>
  1071ce:	9b01      	ldr	r3, [sp, #4]
  1071d0:	3328      	adds	r3, #40	; 0x28
  1071d2:	9900      	ldr	r1, [sp, #0]
  1071d4:	4618      	mov	r0, r3
  1071d6:	f7ff fd1f 	bl	106c18 <mbed::FunctionPointerArg1<void, void>::attach(void (*)())>
  1071da:	9b01      	ldr	r3, [sp, #4]
  1071dc:	331c      	adds	r3, #28
  1071de:	2201      	movs	r2, #1
  1071e0:	2101      	movs	r1, #1
  1071e2:	4618      	mov	r0, r3
  1071e4:	f7fe fc04 	bl	1059f0 <gpio_irq_set>
  1071e8:	e00c      	b.n	107204 <mbed::InterruptIn::rise(void (*)())+0x44>
  1071ea:	9b01      	ldr	r3, [sp, #4]
  1071ec:	3328      	adds	r3, #40	; 0x28
  1071ee:	2100      	movs	r1, #0
  1071f0:	4618      	mov	r0, r3
  1071f2:	f7ff fd11 	bl	106c18 <mbed::FunctionPointerArg1<void, void>::attach(void (*)())>
  1071f6:	9b01      	ldr	r3, [sp, #4]
  1071f8:	331c      	adds	r3, #28
  1071fa:	2200      	movs	r2, #0
  1071fc:	2101      	movs	r1, #1
  1071fe:	4618      	mov	r0, r3
  107200:	f7fe fbf6 	bl	1059f0 <gpio_irq_set>
  107204:	bf00      	nop
  107206:	b003      	add	sp, #12
  107208:	f85d fb04 	ldr.w	pc, [sp], #4

0010720c <mbed::InterruptIn::fall(void (*)())>:
  10720c:	b500      	push	{lr}
  10720e:	b083      	sub	sp, #12
  107210:	9001      	str	r0, [sp, #4]
  107212:	9100      	str	r1, [sp, #0]
  107214:	9b00      	ldr	r3, [sp, #0]
  107216:	2b00      	cmp	r3, #0
  107218:	d00d      	beq.n	107236 <mbed::InterruptIn::fall(void (*)())+0x2a>
  10721a:	9b01      	ldr	r3, [sp, #4]
  10721c:	3340      	adds	r3, #64	; 0x40
  10721e:	9900      	ldr	r1, [sp, #0]
  107220:	4618      	mov	r0, r3
  107222:	f7ff fcf9 	bl	106c18 <mbed::FunctionPointerArg1<void, void>::attach(void (*)())>
  107226:	9b01      	ldr	r3, [sp, #4]
  107228:	331c      	adds	r3, #28
  10722a:	2201      	movs	r2, #1
  10722c:	2102      	movs	r1, #2
  10722e:	4618      	mov	r0, r3
  107230:	f7fe fbde 	bl	1059f0 <gpio_irq_set>
  107234:	e00c      	b.n	107250 <mbed::InterruptIn::fall(void (*)())+0x44>
  107236:	9b01      	ldr	r3, [sp, #4]
  107238:	3340      	adds	r3, #64	; 0x40
  10723a:	2100      	movs	r1, #0
  10723c:	4618      	mov	r0, r3
  10723e:	f7ff fceb 	bl	106c18 <mbed::FunctionPointerArg1<void, void>::attach(void (*)())>
  107242:	9b01      	ldr	r3, [sp, #4]
  107244:	331c      	adds	r3, #28
  107246:	2200      	movs	r2, #0
  107248:	2102      	movs	r1, #2
  10724a:	4618      	mov	r0, r3
  10724c:	f7fe fbd0 	bl	1059f0 <gpio_irq_set>
  107250:	bf00      	nop
  107252:	b003      	add	sp, #12
  107254:	f85d fb04 	ldr.w	pc, [sp], #4

00107258 <mbed::InterruptIn::_irq_handler(unsigned long, gpio_irq_event)>:
  107258:	b500      	push	{lr}
  10725a:	b085      	sub	sp, #20
  10725c:	9001      	str	r0, [sp, #4]
  10725e:	460b      	mov	r3, r1
  107260:	f88d 3003 	strb.w	r3, [sp, #3]
  107264:	9b01      	ldr	r3, [sp, #4]
  107266:	9303      	str	r3, [sp, #12]
  107268:	f89d 3003 	ldrb.w	r3, [sp, #3]
  10726c:	2b01      	cmp	r3, #1
  10726e:	d003      	beq.n	107278 <mbed::InterruptIn::_irq_handler(unsigned long, gpio_irq_event)+0x20>
  107270:	2b02      	cmp	r3, #2
  107272:	d007      	beq.n	107284 <mbed::InterruptIn::_irq_handler(unsigned long, gpio_irq_event)+0x2c>
  107274:	2b00      	cmp	r3, #0
  107276:	e00b      	b.n	107290 <mbed::InterruptIn::_irq_handler(unsigned long, gpio_irq_event)+0x38>
  107278:	9b03      	ldr	r3, [sp, #12]
  10727a:	3328      	adds	r3, #40	; 0x28
  10727c:	4618      	mov	r0, r3
  10727e:	f7ff fca7 	bl	106bd0 <mbed::FunctionPointerArg1<void, void>::call()>
  107282:	e005      	b.n	107290 <mbed::InterruptIn::_irq_handler(unsigned long, gpio_irq_event)+0x38>
  107284:	9b03      	ldr	r3, [sp, #12]
  107286:	3340      	adds	r3, #64	; 0x40
  107288:	4618      	mov	r0, r3
  10728a:	f7ff fca1 	bl	106bd0 <mbed::FunctionPointerArg1<void, void>::call()>
  10728e:	bf00      	nop
  107290:	bf00      	nop
  107292:	b005      	add	sp, #20
  107294:	f85d fb04 	ldr.w	pc, [sp], #4

00107298 <mbed::FileHandle::~FileHandle()>:
  107298:	b500      	push	{lr}
  10729a:	b085      	sub	sp, #20
  10729c:	9001      	str	r0, [sp, #4]
  10729e:	4a12      	ldr	r2, [pc, #72]	; (1072e8 <mbed::FileHandle::~FileHandle()+0x50>)
  1072a0:	9b01      	ldr	r3, [sp, #4]
  1072a2:	601a      	str	r2, [r3, #0]
  1072a4:	2300      	movs	r3, #0
  1072a6:	9303      	str	r3, [sp, #12]
  1072a8:	2240      	movs	r2, #64	; 0x40
  1072aa:	9b03      	ldr	r3, [sp, #12]
  1072ac:	429a      	cmp	r2, r3
  1072ae:	d90f      	bls.n	1072d0 <mbed::FileHandle::~FileHandle()+0x38>
  1072b0:	4a0e      	ldr	r2, [pc, #56]	; (1072ec <mbed::FileHandle::~FileHandle()+0x54>)
  1072b2:	9b03      	ldr	r3, [sp, #12]
  1072b4:	f852 2023 	ldr.w	r2, [r2, r3, lsl #2]
  1072b8:	9b01      	ldr	r3, [sp, #4]
  1072ba:	429a      	cmp	r2, r3
  1072bc:	d104      	bne.n	1072c8 <mbed::FileHandle::~FileHandle()+0x30>
  1072be:	4a0b      	ldr	r2, [pc, #44]	; (1072ec <mbed::FileHandle::~FileHandle()+0x54>)
  1072c0:	9b03      	ldr	r3, [sp, #12]
  1072c2:	2100      	movs	r1, #0
  1072c4:	f842 1023 	str.w	r1, [r2, r3, lsl #2]
  1072c8:	9b03      	ldr	r3, [sp, #12]
  1072ca:	3301      	adds	r3, #1
  1072cc:	9303      	str	r3, [sp, #12]
  1072ce:	e7eb      	b.n	1072a8 <mbed::FileHandle::~FileHandle()+0x10>
  1072d0:	2300      	movs	r3, #0
  1072d2:	2b00      	cmp	r3, #0
  1072d4:	d002      	beq.n	1072dc <mbed::FileHandle::~FileHandle()+0x44>
  1072d6:	9801      	ldr	r0, [sp, #4]
  1072d8:	f000 fcbd 	bl	107c56 <operator delete(void*)>
  1072dc:	9b01      	ldr	r3, [sp, #4]
  1072de:	4618      	mov	r0, r3
  1072e0:	b005      	add	sp, #20
  1072e2:	f85d fb04 	ldr.w	pc, [sp], #4
  1072e6:	bf00      	nop
  1072e8:	0010e4ec 	.word	0x0010e4ec
  1072ec:	3fff4604 	.word	0x3fff4604

001072f0 <init_serial()>:
  1072f0:	b508      	push	{r3, lr}
  1072f2:	4b07      	ldr	r3, [pc, #28]	; (107310 <init_serial()+0x20>)
  1072f4:	681b      	ldr	r3, [r3, #0]
  1072f6:	2b00      	cmp	r3, #0
  1072f8:	d107      	bne.n	10730a <init_serial()+0x1a>
  1072fa:	f04f 32ff 	mov.w	r2, #4294967295
  1072fe:	f04f 31ff 	mov.w	r1, #4294967295
  107302:	4804      	ldr	r0, [pc, #16]	; (107314 <init_serial()+0x24>)
  107304:	f7fe fea6 	bl	106054 <serial_init>
  107308:	e000      	b.n	10730c <init_serial()+0x1c>
  10730a:	bf00      	nop
  10730c:	bd08      	pop	{r3, pc}
  10730e:	bf00      	nop
  107310:	3fff45e0 	.word	0x3fff45e0
  107314:	3fff5390 	.word	0x3fff5390

00107318 <openmode_to_posix(int)>:
  107318:	b084      	sub	sp, #16
  10731a:	9001      	str	r0, [sp, #4]
  10731c:	9b01      	ldr	r3, [sp, #4]
  10731e:	9303      	str	r3, [sp, #12]
  107320:	9b03      	ldr	r3, [sp, #12]
  107322:	f423 3380 	bic.w	r3, r3, #65536	; 0x10000
  107326:	9303      	str	r3, [sp, #12]
  107328:	9b03      	ldr	r3, [sp, #12]
  10732a:	4618      	mov	r0, r3
  10732c:	b004      	add	sp, #16
  10732e:	4770      	bx	lr

00107330 <_open>:
  107330:	b510      	push	{r4, lr}
  107332:	b08a      	sub	sp, #40	; 0x28
  107334:	9001      	str	r0, [sp, #4]
  107336:	9100      	str	r1, [sp, #0]
  107338:	4948      	ldr	r1, [pc, #288]	; (10745c <_open+0x12c>)
  10733a:	9801      	ldr	r0, [sp, #4]
  10733c:	f003 f931 	bl	10a5a2 <strcmp>
  107340:	4603      	mov	r3, r0
  107342:	2b00      	cmp	r3, #0
  107344:	d103      	bne.n	10734e <_open+0x1e>
  107346:	f7ff ffd3 	bl	1072f0 <init_serial()>
  10734a:	2300      	movs	r3, #0
  10734c:	e083      	b.n	107456 <_open+0x126>
  10734e:	4944      	ldr	r1, [pc, #272]	; (107460 <_open+0x130>)
  107350:	9801      	ldr	r0, [sp, #4]
  107352:	f003 f926 	bl	10a5a2 <strcmp>
  107356:	4603      	mov	r3, r0
  107358:	2b00      	cmp	r3, #0
  10735a:	d103      	bne.n	107364 <_open+0x34>
  10735c:	f7ff ffc8 	bl	1072f0 <init_serial()>
  107360:	2301      	movs	r3, #1
  107362:	e078      	b.n	107456 <_open+0x126>
  107364:	493f      	ldr	r1, [pc, #252]	; (107464 <_open+0x134>)
  107366:	9801      	ldr	r0, [sp, #4]
  107368:	f003 f91b 	bl	10a5a2 <strcmp>
  10736c:	4603      	mov	r3, r0
  10736e:	2b00      	cmp	r3, #0
  107370:	d103      	bne.n	10737a <_open+0x4a>
  107372:	f7ff ffbd 	bl	1072f0 <init_serial()>
  107376:	2302      	movs	r3, #2
  107378:	e06d      	b.n	107456 <_open+0x126>
  10737a:	2300      	movs	r3, #0
  10737c:	9309      	str	r3, [sp, #36]	; 0x24
  10737e:	2240      	movs	r2, #64	; 0x40
  107380:	9b09      	ldr	r3, [sp, #36]	; 0x24
  107382:	429a      	cmp	r2, r3
  107384:	d90a      	bls.n	10739c <_open+0x6c>
  107386:	4a38      	ldr	r2, [pc, #224]	; (107468 <_open+0x138>)
  107388:	9b09      	ldr	r3, [sp, #36]	; 0x24
  10738a:	f852 3023 	ldr.w	r3, [r2, r3, lsl #2]
  10738e:	2b00      	cmp	r3, #0
  107390:	d003      	beq.n	10739a <_open+0x6a>
  107392:	9b09      	ldr	r3, [sp, #36]	; 0x24
  107394:	3301      	adds	r3, #1
  107396:	9309      	str	r3, [sp, #36]	; 0x24
  107398:	e7f1      	b.n	10737e <_open+0x4e>
  10739a:	bf00      	nop
  10739c:	2240      	movs	r2, #64	; 0x40
  10739e:	9b09      	ldr	r3, [sp, #36]	; 0x24
  1073a0:	429a      	cmp	r2, r3
  1073a2:	d802      	bhi.n	1073aa <_open+0x7a>
  1073a4:	f04f 33ff 	mov.w	r3, #4294967295
  1073a8:	e055      	b.n	107456 <_open+0x126>
  1073aa:	9b01      	ldr	r3, [sp, #4]
  1073ac:	781b      	ldrb	r3, [r3, #0]
  1073ae:	2b3a      	cmp	r3, #58	; 0x3a
  1073b0:	d108      	bne.n	1073c4 <_open+0x94>
  1073b2:	ab05      	add	r3, sp, #20
  1073b4:	461a      	mov	r2, r3
  1073b6:	492d      	ldr	r1, [pc, #180]	; (10746c <_open+0x13c>)
  1073b8:	9801      	ldr	r0, [sp, #4]
  1073ba:	f003 f883 	bl	10a4c4 <siscanf>
  1073be:	9b05      	ldr	r3, [sp, #20]
  1073c0:	9308      	str	r3, [sp, #32]
  1073c2:	e03b      	b.n	10743c <_open+0x10c>
  1073c4:	ab03      	add	r3, sp, #12
  1073c6:	9901      	ldr	r1, [sp, #4]
  1073c8:	4618      	mov	r0, r3
  1073ca:	f7ff fd49 	bl	106e60 <mbed::FilePath::FilePath(char const*)>
  1073ce:	ab03      	add	r3, sp, #12
  1073d0:	4618      	mov	r0, r3
  1073d2:	f7ff fded 	bl	106fb0 <mbed::FilePath::exists()>
  1073d6:	4603      	mov	r3, r0
  1073d8:	f083 0301 	eor.w	r3, r3, #1
  1073dc:	b2db      	uxtb	r3, r3
  1073de:	2b00      	cmp	r3, #0
  1073e0:	d002      	beq.n	1073e8 <_open+0xb8>
  1073e2:	f04f 33ff 	mov.w	r3, #4294967295
  1073e6:	e036      	b.n	107456 <_open+0x126>
  1073e8:	ab03      	add	r3, sp, #12
  1073ea:	4618      	mov	r0, r3
  1073ec:	f7ff fdb0 	bl	106f50 <mbed::FilePath::isFile()>
  1073f0:	4603      	mov	r3, r0
  1073f2:	2b00      	cmp	r3, #0
  1073f4:	d005      	beq.n	107402 <_open+0xd2>
  1073f6:	ab03      	add	r3, sp, #12
  1073f8:	4618      	mov	r0, r3
  1073fa:	f7ff fdc1 	bl	106f80 <mbed::FilePath::file()>
  1073fe:	9008      	str	r0, [sp, #32]
  107400:	e01c      	b.n	10743c <_open+0x10c>
  107402:	ab03      	add	r3, sp, #12
  107404:	4618      	mov	r0, r3
  107406:	f7ff fd91 	bl	106f2c <mbed::FilePath::fileSystem()>
  10740a:	9007      	str	r0, [sp, #28]
  10740c:	9b07      	ldr	r3, [sp, #28]
  10740e:	2b00      	cmp	r3, #0
  107410:	d102      	bne.n	107418 <_open+0xe8>
  107412:	f04f 33ff 	mov.w	r3, #4294967295
  107416:	e01e      	b.n	107456 <_open+0x126>
  107418:	9800      	ldr	r0, [sp, #0]
  10741a:	f7ff ff7d 	bl	107318 <openmode_to_posix(int)>
  10741e:	9006      	str	r0, [sp, #24]
  107420:	9b07      	ldr	r3, [sp, #28]
  107422:	681b      	ldr	r3, [r3, #0]
  107424:	3308      	adds	r3, #8
  107426:	681c      	ldr	r4, [r3, #0]
  107428:	ab03      	add	r3, sp, #12
  10742a:	4618      	mov	r0, r3
  10742c:	f7ff fd5e 	bl	106eec <mbed::FilePath::fileName()>
  107430:	4603      	mov	r3, r0
  107432:	9a06      	ldr	r2, [sp, #24]
  107434:	4619      	mov	r1, r3
  107436:	9807      	ldr	r0, [sp, #28]
  107438:	47a0      	blx	r4
  10743a:	9008      	str	r0, [sp, #32]
  10743c:	9b08      	ldr	r3, [sp, #32]
  10743e:	2b00      	cmp	r3, #0
  107440:	d102      	bne.n	107448 <_open+0x118>
  107442:	f04f 33ff 	mov.w	r3, #4294967295
  107446:	e006      	b.n	107456 <_open+0x126>
  107448:	4907      	ldr	r1, [pc, #28]	; (107468 <_open+0x138>)
  10744a:	9b09      	ldr	r3, [sp, #36]	; 0x24
  10744c:	9a08      	ldr	r2, [sp, #32]
  10744e:	f841 2023 	str.w	r2, [r1, r3, lsl #2]
  107452:	9b09      	ldr	r3, [sp, #36]	; 0x24
  107454:	3303      	adds	r3, #3
  107456:	4618      	mov	r0, r3
  107458:	b00a      	add	sp, #40	; 0x28
  10745a:	bd10      	pop	{r4, pc}
  10745c:	0010e4bc 	.word	0x0010e4bc
  107460:	0010e4c4 	.word	0x0010e4c4
  107464:	0010e4cc 	.word	0x0010e4cc
  107468:	3fff4604 	.word	0x3fff4604
  10746c:	0010e4d4 	.word	0x0010e4d4

00107470 <_close>:
  107470:	b500      	push	{lr}
  107472:	b085      	sub	sp, #20
  107474:	9001      	str	r0, [sp, #4]
  107476:	9b01      	ldr	r3, [sp, #4]
  107478:	2b02      	cmp	r3, #2
  10747a:	dc01      	bgt.n	107480 <_close+0x10>
  10747c:	2300      	movs	r3, #0
  10747e:	e018      	b.n	1074b2 <_close+0x42>
  107480:	9b01      	ldr	r3, [sp, #4]
  107482:	3b03      	subs	r3, #3
  107484:	4a0d      	ldr	r2, [pc, #52]	; (1074bc <_close+0x4c>)
  107486:	f852 3023 	ldr.w	r3, [r2, r3, lsl #2]
  10748a:	9303      	str	r3, [sp, #12]
  10748c:	9b01      	ldr	r3, [sp, #4]
  10748e:	3b03      	subs	r3, #3
  107490:	4a0a      	ldr	r2, [pc, #40]	; (1074bc <_close+0x4c>)
  107492:	2100      	movs	r1, #0
  107494:	f842 1023 	str.w	r1, [r2, r3, lsl #2]
  107498:	9b03      	ldr	r3, [sp, #12]
  10749a:	2b00      	cmp	r3, #0
  10749c:	d102      	bne.n	1074a4 <_close+0x34>
  10749e:	f04f 33ff 	mov.w	r3, #4294967295
  1074a2:	e006      	b.n	1074b2 <_close+0x42>
  1074a4:	9b03      	ldr	r3, [sp, #12]
  1074a6:	681b      	ldr	r3, [r3, #0]
  1074a8:	3304      	adds	r3, #4
  1074aa:	681b      	ldr	r3, [r3, #0]
  1074ac:	9803      	ldr	r0, [sp, #12]
  1074ae:	4798      	blx	r3
  1074b0:	4603      	mov	r3, r0
  1074b2:	4618      	mov	r0, r3
  1074b4:	b005      	add	sp, #20
  1074b6:	f85d fb04 	ldr.w	pc, [sp], #4
  1074ba:	bf00      	nop
  1074bc:	3fff4604 	.word	0x3fff4604

001074c0 <_write>:
  1074c0:	b500      	push	{lr}
  1074c2:	b089      	sub	sp, #36	; 0x24
  1074c4:	9003      	str	r0, [sp, #12]
  1074c6:	9102      	str	r1, [sp, #8]
  1074c8:	9201      	str	r2, [sp, #4]
  1074ca:	9300      	str	r3, [sp, #0]
  1074cc:	9b03      	ldr	r3, [sp, #12]
  1074ce:	2b02      	cmp	r3, #2
  1074d0:	dc1a      	bgt.n	107508 <_write+0x48>
  1074d2:	4b1a      	ldr	r3, [pc, #104]	; (10753c <_write+0x7c>)
  1074d4:	681b      	ldr	r3, [r3, #0]
  1074d6:	2b00      	cmp	r3, #0
  1074d8:	d101      	bne.n	1074de <_write+0x1e>
  1074da:	f7ff ff09 	bl	1072f0 <init_serial()>
  1074de:	2300      	movs	r3, #0
  1074e0:	9306      	str	r3, [sp, #24]
  1074e2:	9a06      	ldr	r2, [sp, #24]
  1074e4:	9b01      	ldr	r3, [sp, #4]
  1074e6:	429a      	cmp	r2, r3
  1074e8:	d20b      	bcs.n	107502 <_write+0x42>
  1074ea:	9a02      	ldr	r2, [sp, #8]
  1074ec:	9b06      	ldr	r3, [sp, #24]
  1074ee:	4413      	add	r3, r2
  1074f0:	781b      	ldrb	r3, [r3, #0]
  1074f2:	4619      	mov	r1, r3
  1074f4:	4812      	ldr	r0, [pc, #72]	; (107540 <_write+0x80>)
  1074f6:	f7fe ff47 	bl	106388 <serial_putc>
  1074fa:	9b06      	ldr	r3, [sp, #24]
  1074fc:	3301      	adds	r3, #1
  1074fe:	9306      	str	r3, [sp, #24]
  107500:	e7ef      	b.n	1074e2 <_write+0x22>
  107502:	9b01      	ldr	r3, [sp, #4]
  107504:	9307      	str	r3, [sp, #28]
  107506:	e013      	b.n	107530 <_write+0x70>
  107508:	9b03      	ldr	r3, [sp, #12]
  10750a:	3b03      	subs	r3, #3
  10750c:	4a0d      	ldr	r2, [pc, #52]	; (107544 <_write+0x84>)
  10750e:	f852 3023 	ldr.w	r3, [r2, r3, lsl #2]
  107512:	9305      	str	r3, [sp, #20]
  107514:	9b05      	ldr	r3, [sp, #20]
  107516:	2b00      	cmp	r3, #0
  107518:	d102      	bne.n	107520 <_write+0x60>
  10751a:	f04f 33ff 	mov.w	r3, #4294967295
  10751e:	e008      	b.n	107532 <_write+0x72>
  107520:	9b05      	ldr	r3, [sp, #20]
  107522:	681b      	ldr	r3, [r3, #0]
  107524:	681b      	ldr	r3, [r3, #0]
  107526:	9a01      	ldr	r2, [sp, #4]
  107528:	9902      	ldr	r1, [sp, #8]
  10752a:	9805      	ldr	r0, [sp, #20]
  10752c:	4798      	blx	r3
  10752e:	9007      	str	r0, [sp, #28]
  107530:	9b07      	ldr	r3, [sp, #28]
  107532:	4618      	mov	r0, r3
  107534:	b009      	add	sp, #36	; 0x24
  107536:	f85d fb04 	ldr.w	pc, [sp], #4
  10753a:	bf00      	nop
  10753c:	3fff45e0 	.word	0x3fff45e0
  107540:	3fff5390 	.word	0x3fff5390
  107544:	3fff4604 	.word	0x3fff4604

00107548 <_read>:
  107548:	b500      	push	{lr}
  10754a:	b087      	sub	sp, #28
  10754c:	9003      	str	r0, [sp, #12]
  10754e:	9102      	str	r1, [sp, #8]
  107550:	9201      	str	r2, [sp, #4]
  107552:	9300      	str	r3, [sp, #0]
  107554:	9b03      	ldr	r3, [sp, #12]
  107556:	2b02      	cmp	r3, #2
  107558:	dc0f      	bgt.n	10757a <_read+0x32>
  10755a:	4b15      	ldr	r3, [pc, #84]	; (1075b0 <_read+0x68>)
  10755c:	681b      	ldr	r3, [r3, #0]
  10755e:	2b00      	cmp	r3, #0
  107560:	d101      	bne.n	107566 <_read+0x1e>
  107562:	f7ff fec5 	bl	1072f0 <init_serial()>
  107566:	4813      	ldr	r0, [pc, #76]	; (1075b4 <_read+0x6c>)
  107568:	f7fe ff22 	bl	1063b0 <serial_getc>
  10756c:	4603      	mov	r3, r0
  10756e:	b2da      	uxtb	r2, r3
  107570:	9b02      	ldr	r3, [sp, #8]
  107572:	701a      	strb	r2, [r3, #0]
  107574:	2301      	movs	r3, #1
  107576:	9305      	str	r3, [sp, #20]
  107578:	e014      	b.n	1075a4 <_read+0x5c>
  10757a:	9b03      	ldr	r3, [sp, #12]
  10757c:	3b03      	subs	r3, #3
  10757e:	4a0e      	ldr	r2, [pc, #56]	; (1075b8 <_read+0x70>)
  107580:	f852 3023 	ldr.w	r3, [r2, r3, lsl #2]
  107584:	9304      	str	r3, [sp, #16]
  107586:	9b04      	ldr	r3, [sp, #16]
  107588:	2b00      	cmp	r3, #0
  10758a:	d102      	bne.n	107592 <_read+0x4a>
  10758c:	f04f 33ff 	mov.w	r3, #4294967295
  107590:	e009      	b.n	1075a6 <_read+0x5e>
  107592:	9b04      	ldr	r3, [sp, #16]
  107594:	681b      	ldr	r3, [r3, #0]
  107596:	3308      	adds	r3, #8
  107598:	681b      	ldr	r3, [r3, #0]
  10759a:	9a01      	ldr	r2, [sp, #4]
  10759c:	9902      	ldr	r1, [sp, #8]
  10759e:	9804      	ldr	r0, [sp, #16]
  1075a0:	4798      	blx	r3
  1075a2:	9005      	str	r0, [sp, #20]
  1075a4:	9b05      	ldr	r3, [sp, #20]
  1075a6:	4618      	mov	r0, r3
  1075a8:	b007      	add	sp, #28
  1075aa:	f85d fb04 	ldr.w	pc, [sp], #4
  1075ae:	bf00      	nop
  1075b0:	3fff45e0 	.word	0x3fff45e0
  1075b4:	3fff5390 	.word	0x3fff5390
  1075b8:	3fff4604 	.word	0x3fff4604

001075bc <_isatty>:
  1075bc:	b500      	push	{lr}
  1075be:	b085      	sub	sp, #20
  1075c0:	9001      	str	r0, [sp, #4]
  1075c2:	9b01      	ldr	r3, [sp, #4]
  1075c4:	2b02      	cmp	r3, #2
  1075c6:	dc01      	bgt.n	1075cc <_isatty+0x10>
  1075c8:	2301      	movs	r3, #1
  1075ca:	e012      	b.n	1075f2 <_isatty+0x36>
  1075cc:	9b01      	ldr	r3, [sp, #4]
  1075ce:	3b03      	subs	r3, #3
  1075d0:	4a0a      	ldr	r2, [pc, #40]	; (1075fc <_isatty+0x40>)
  1075d2:	f852 3023 	ldr.w	r3, [r2, r3, lsl #2]
  1075d6:	9303      	str	r3, [sp, #12]
  1075d8:	9b03      	ldr	r3, [sp, #12]
  1075da:	2b00      	cmp	r3, #0
  1075dc:	d102      	bne.n	1075e4 <_isatty+0x28>
  1075de:	f04f 33ff 	mov.w	r3, #4294967295
  1075e2:	e006      	b.n	1075f2 <_isatty+0x36>
  1075e4:	9b03      	ldr	r3, [sp, #12]
  1075e6:	681b      	ldr	r3, [r3, #0]
  1075e8:	330c      	adds	r3, #12
  1075ea:	681b      	ldr	r3, [r3, #0]
  1075ec:	9803      	ldr	r0, [sp, #12]
  1075ee:	4798      	blx	r3
  1075f0:	4603      	mov	r3, r0
  1075f2:	4618      	mov	r0, r3
  1075f4:	b005      	add	sp, #20
  1075f6:	f85d fb04 	ldr.w	pc, [sp], #4
  1075fa:	bf00      	nop
  1075fc:	3fff4604 	.word	0x3fff4604

00107600 <_lseek>:
  107600:	b500      	push	{lr}
  107602:	b087      	sub	sp, #28
  107604:	9003      	str	r0, [sp, #12]
  107606:	9102      	str	r1, [sp, #8]
  107608:	9201      	str	r2, [sp, #4]
  10760a:	9b03      	ldr	r3, [sp, #12]
  10760c:	2b02      	cmp	r3, #2
  10760e:	dc01      	bgt.n	107614 <_lseek+0x14>
  107610:	2300      	movs	r3, #0
  107612:	e014      	b.n	10763e <_lseek+0x3e>
  107614:	9b03      	ldr	r3, [sp, #12]
  107616:	3b03      	subs	r3, #3
  107618:	4a0b      	ldr	r2, [pc, #44]	; (107648 <_lseek+0x48>)
  10761a:	f852 3023 	ldr.w	r3, [r2, r3, lsl #2]
  10761e:	9305      	str	r3, [sp, #20]
  107620:	9b05      	ldr	r3, [sp, #20]
  107622:	2b00      	cmp	r3, #0
  107624:	d102      	bne.n	10762c <_lseek+0x2c>
  107626:	f04f 33ff 	mov.w	r3, #4294967295
  10762a:	e008      	b.n	10763e <_lseek+0x3e>
  10762c:	9b05      	ldr	r3, [sp, #20]
  10762e:	681b      	ldr	r3, [r3, #0]
  107630:	3310      	adds	r3, #16
  107632:	681b      	ldr	r3, [r3, #0]
  107634:	9a01      	ldr	r2, [sp, #4]
  107636:	9902      	ldr	r1, [sp, #8]
  107638:	9805      	ldr	r0, [sp, #20]
  10763a:	4798      	blx	r3
  10763c:	4603      	mov	r3, r0
  10763e:	4618      	mov	r0, r3
  107640:	b007      	add	sp, #28
  107642:	f85d fb04 	ldr.w	pc, [sp], #4
  107646:	bf00      	nop
  107648:	3fff4604 	.word	0x3fff4604

0010764c <_fstat>:
  10764c:	b500      	push	{lr}
  10764e:	b083      	sub	sp, #12
  107650:	9001      	str	r0, [sp, #4]
  107652:	9100      	str	r1, [sp, #0]
  107654:	9b01      	ldr	r3, [sp, #4]
  107656:	2b01      	cmp	r3, #1
  107658:	d005      	beq.n	107666 <_fstat+0x1a>
  10765a:	9b01      	ldr	r3, [sp, #4]
  10765c:	2b02      	cmp	r3, #2
  10765e:	d002      	beq.n	107666 <_fstat+0x1a>
  107660:	9b01      	ldr	r3, [sp, #4]
  107662:	2b00      	cmp	r3, #0
  107664:	d105      	bne.n	107672 <_fstat+0x26>
  107666:	9b00      	ldr	r3, [sp, #0]
  107668:	f44f 5200 	mov.w	r2, #8192	; 0x2000
  10766c:	605a      	str	r2, [r3, #4]
  10766e:	2300      	movs	r3, #0
  107670:	e006      	b.n	107680 <_fstat+0x34>
  107672:	f001 f8a3 	bl	1087bc <__errno>
  107676:	4602      	mov	r2, r0
  107678:	2309      	movs	r3, #9
  10767a:	6013      	str	r3, [r2, #0]
  10767c:	f04f 33ff 	mov.w	r3, #4294967295
  107680:	4618      	mov	r0, r3
  107682:	b003      	add	sp, #12
  107684:	f85d fb04 	ldr.w	pc, [sp], #4

00107688 <mbed_main>:
  107688:	bf00      	nop
  10768a:	4770      	bx	lr

0010768c <mbed_sdk_init>:
  10768c:	bf00      	nop
  10768e:	4770      	bx	lr

00107690 <__wrap_main>:
  107690:	b508      	push	{r3, lr}
  107692:	f7ff fffb 	bl	10768c <mbed_sdk_init>
  107696:	f7ff fff7 	bl	107688 <mbed_main>
  10769a:	f7fa fe13 	bl	1022c4 <main>
  10769e:	4603      	mov	r3, r0
  1076a0:	4618      	mov	r0, r3
  1076a2:	bd08      	pop	{r3, pc}

001076a4 <_sbrk>:
  1076a4:	b410      	push	{r4}
  1076a6:	b085      	sub	sp, #20
  1076a8:	9001      	str	r0, [sp, #4]
  1076aa:	4b11      	ldr	r3, [pc, #68]	; (1076f0 <_sbrk+0x4c>)
  1076ac:	681b      	ldr	r3, [r3, #0]
  1076ae:	9303      	str	r3, [sp, #12]
  1076b0:	4b0f      	ldr	r3, [pc, #60]	; (1076f0 <_sbrk+0x4c>)
  1076b2:	681a      	ldr	r2, [r3, #0]
  1076b4:	9b01      	ldr	r3, [sp, #4]
  1076b6:	4413      	add	r3, r2
  1076b8:	9302      	str	r3, [sp, #8]
  1076ba:	f3ef 8308 	mrs	r3, MSP
  1076be:	461c      	mov	r4, r3
  1076c0:	4623      	mov	r3, r4
  1076c2:	461a      	mov	r2, r3
  1076c4:	9b02      	ldr	r3, [sp, #8]
  1076c6:	429a      	cmp	r2, r3
  1076c8:	bf94      	ite	ls
  1076ca:	2301      	movls	r3, #1
  1076cc:	2300      	movhi	r3, #0
  1076ce:	b2db      	uxtb	r3, r3
  1076d0:	2b00      	cmp	r3, #0
  1076d2:	d005      	beq.n	1076e0 <_sbrk+0x3c>
  1076d4:	4b07      	ldr	r3, [pc, #28]	; (1076f4 <_sbrk+0x50>)
  1076d6:	220c      	movs	r2, #12
  1076d8:	601a      	str	r2, [r3, #0]
  1076da:	f04f 33ff 	mov.w	r3, #4294967295
  1076de:	e003      	b.n	1076e8 <_sbrk+0x44>
  1076e0:	4a03      	ldr	r2, [pc, #12]	; (1076f0 <_sbrk+0x4c>)
  1076e2:	9b02      	ldr	r3, [sp, #8]
  1076e4:	6013      	str	r3, [r2, #0]
  1076e6:	9b03      	ldr	r3, [sp, #12]
  1076e8:	4618      	mov	r0, r3
  1076ea:	b005      	add	sp, #20
  1076ec:	bc10      	pop	{r4}
  1076ee:	4770      	bx	lr
  1076f0:	3fff409c 	.word	0x3fff409c
  1076f4:	3fff5398 	.word	0x3fff5398

001076f8 <_exit>:
  1076f8:	b500      	push	{lr}
  1076fa:	b083      	sub	sp, #12
  1076fc:	9001      	str	r0, [sp, #4]
  1076fe:	9b01      	ldr	r3, [sp, #4]
  107700:	2b00      	cmp	r3, #0
  107702:	d001      	beq.n	107708 <_exit+0x10>
  107704:	f7fd fc9a 	bl	10503c <mbed_die>
  107708:	e7fe      	b.n	107708 <_exit+0x10>
  10770a:	bf00      	nop

0010770c <mbed::mbed_set_unbuffered_stream(__sFILE*)>:
  10770c:	b500      	push	{lr}
  10770e:	b083      	sub	sp, #12
  107710:	9001      	str	r0, [sp, #4]
  107712:	2100      	movs	r1, #0
  107714:	9801      	ldr	r0, [sp, #4]
  107716:	f002 fe1d 	bl	10a354 <setbuf>
  10771a:	bf00      	nop
  10771c:	b003      	add	sp, #12
  10771e:	f85d fb04 	ldr.w	pc, [sp], #4
  107722:	bf00      	nop

00107724 <mbed::mbed_getc(__sFILE*)>:
  107724:	b500      	push	{lr}
  107726:	b083      	sub	sp, #12
  107728:	9001      	str	r0, [sp, #4]
  10772a:	9801      	ldr	r0, [sp, #4]
  10772c:	f001 f9a8 	bl	108a80 <fgetc>
  107730:	4603      	mov	r3, r0
  107732:	4618      	mov	r0, r3
  107734:	b003      	add	sp, #12
  107736:	f85d fb04 	ldr.w	pc, [sp], #4
  10773a:	bf00      	nop

0010773c <mbed::Serial::Serial(PinName, PinName, char const*)>:
  10773c:	b500      	push	{lr}
  10773e:	b085      	sub	sp, #20
  107740:	9003      	str	r0, [sp, #12]
  107742:	9102      	str	r1, [sp, #8]
  107744:	9201      	str	r2, [sp, #4]
  107746:	9300      	str	r3, [sp, #0]
  107748:	9b03      	ldr	r3, [sp, #12]
  10774a:	9a01      	ldr	r2, [sp, #4]
  10774c:	9902      	ldr	r1, [sp, #8]
  10774e:	4618      	mov	r0, r3
  107750:	f000 f83c 	bl	1077cc <mbed::SerialBase::SerialBase(PinName, PinName)>
  107754:	9b03      	ldr	r3, [sp, #12]
  107756:	3340      	adds	r3, #64	; 0x40
  107758:	9900      	ldr	r1, [sp, #0]
  10775a:	4618      	mov	r0, r3
  10775c:	f000 f95e 	bl	107a1c <mbed::Stream::Stream(char const*)>
  107760:	4a06      	ldr	r2, [pc, #24]	; (10777c <mbed::Serial::Serial(PinName, PinName, char const*)+0x40>)
  107762:	9b03      	ldr	r3, [sp, #12]
  107764:	601a      	str	r2, [r3, #0]
  107766:	4a06      	ldr	r2, [pc, #24]	; (107780 <mbed::Serial::Serial(PinName, PinName, char const*)+0x44>)
  107768:	9b03      	ldr	r3, [sp, #12]
  10776a:	641a      	str	r2, [r3, #64]	; 0x40
  10776c:	4a05      	ldr	r2, [pc, #20]	; (107784 <mbed::Serial::Serial(PinName, PinName, char const*)+0x48>)
  10776e:	9b03      	ldr	r3, [sp, #12]
  107770:	645a      	str	r2, [r3, #68]	; 0x44
  107772:	9b03      	ldr	r3, [sp, #12]
  107774:	4618      	mov	r0, r3
  107776:	b005      	add	sp, #20
  107778:	f85d fb04 	ldr.w	pc, [sp], #4
  10777c:	0010e518 	.word	0x0010e518
  107780:	0010e530 	.word	0x0010e530
  107784:	0010e564 	.word	0x0010e564

00107788 <mbed::Serial::_getc()>:
  107788:	b500      	push	{lr}
  10778a:	b083      	sub	sp, #12
  10778c:	9001      	str	r0, [sp, #4]
  10778e:	9b01      	ldr	r3, [sp, #4]
  107790:	4618      	mov	r0, r3
  107792:	f000 f88d 	bl	1078b0 <mbed::SerialBase::_base_getc()>
  107796:	4603      	mov	r3, r0
  107798:	4618      	mov	r0, r3
  10779a:	b003      	add	sp, #12
  10779c:	f85d fb04 	ldr.w	pc, [sp], #4

001077a0 <non-virtual thunk to mbed::Serial::_getc()>:
  1077a0:	f1a0 0040 	sub.w	r0, r0, #64	; 0x40
  1077a4:	f7ff bff0 	b.w	107788 <mbed::Serial::_getc()>

001077a8 <mbed::Serial::_putc(int)>:
  1077a8:	b500      	push	{lr}
  1077aa:	b083      	sub	sp, #12
  1077ac:	9001      	str	r0, [sp, #4]
  1077ae:	9100      	str	r1, [sp, #0]
  1077b0:	9b01      	ldr	r3, [sp, #4]
  1077b2:	9900      	ldr	r1, [sp, #0]
  1077b4:	4618      	mov	r0, r3
  1077b6:	f000 f889 	bl	1078cc <mbed::SerialBase::_base_putc(int)>
  1077ba:	4603      	mov	r3, r0
  1077bc:	4618      	mov	r0, r3
  1077be:	b003      	add	sp, #12
  1077c0:	f85d fb04 	ldr.w	pc, [sp], #4

001077c4 <non-virtual thunk to mbed::Serial::_putc(int)>:
  1077c4:	f1a0 0040 	sub.w	r0, r0, #64	; 0x40
  1077c8:	f7ff bfee 	b.w	1077a8 <mbed::Serial::_putc(int)>

001077cc <mbed::SerialBase::SerialBase(PinName, PinName)>:
  1077cc:	b530      	push	{r4, r5, lr}
  1077ce:	b085      	sub	sp, #20
  1077d0:	9003      	str	r0, [sp, #12]
  1077d2:	9102      	str	r1, [sp, #8]
  1077d4:	9201      	str	r2, [sp, #4]
  1077d6:	4a16      	ldr	r2, [pc, #88]	; (107830 <mbed::SerialBase::SerialBase(PinName, PinName)+0x64>)
  1077d8:	9b03      	ldr	r3, [sp, #12]
  1077da:	601a      	str	r2, [r3, #0]
  1077dc:	9b03      	ldr	r3, [sp, #12]
  1077de:	2200      	movs	r2, #0
  1077e0:	605a      	str	r2, [r3, #4]
  1077e2:	9b03      	ldr	r3, [sp, #12]
  1077e4:	2200      	movs	r2, #0
  1077e6:	609a      	str	r2, [r3, #8]
  1077e8:	9b03      	ldr	r3, [sp, #12]
  1077ea:	330c      	adds	r3, #12
  1077ec:	2401      	movs	r4, #1
  1077ee:	461d      	mov	r5, r3
  1077f0:	f1b4 3fff 	cmp.w	r4, #4294967295
  1077f4:	d006      	beq.n	107804 <mbed::SerialBase::SerialBase(PinName, PinName)+0x38>
  1077f6:	2100      	movs	r1, #0
  1077f8:	4628      	mov	r0, r5
  1077fa:	f7ff f9db 	bl	106bb4 <mbed::FunctionPointerArg1<void, void>::FunctionPointerArg1(void (*)())>
  1077fe:	3518      	adds	r5, #24
  107800:	3c01      	subs	r4, #1
  107802:	e7f5      	b.n	1077f0 <mbed::SerialBase::SerialBase(PinName, PinName)+0x24>
  107804:	9b03      	ldr	r3, [sp, #12]
  107806:	f44f 5216 	mov.w	r2, #9600	; 0x2580
  10780a:	63da      	str	r2, [r3, #60]	; 0x3c
  10780c:	9b03      	ldr	r3, [sp, #12]
  10780e:	3304      	adds	r3, #4
  107810:	9a01      	ldr	r2, [sp, #4]
  107812:	9902      	ldr	r1, [sp, #8]
  107814:	4618      	mov	r0, r3
  107816:	f7fe fc1d 	bl	106054 <serial_init>
  10781a:	9b03      	ldr	r3, [sp, #12]
  10781c:	3304      	adds	r3, #4
  10781e:	9a03      	ldr	r2, [sp, #12]
  107820:	4904      	ldr	r1, [pc, #16]	; (107834 <mbed::SerialBase::SerialBase(PinName, PinName)+0x68>)
  107822:	4618      	mov	r0, r3
  107824:	f7fe fdd6 	bl	1063d4 <serial_irq_handler>
  107828:	9b03      	ldr	r3, [sp, #12]
  10782a:	4618      	mov	r0, r3
  10782c:	b005      	add	sp, #20
  10782e:	bd30      	pop	{r4, r5, pc}
  107830:	0010df4c 	.word	0x0010df4c
  107834:	0010787d 	.word	0x0010787d

00107838 <mbed::SerialBase::format(int, mbed::SerialBase::Parity, int)>:
  107838:	b500      	push	{lr}
  10783a:	b085      	sub	sp, #20
  10783c:	9003      	str	r0, [sp, #12]
  10783e:	9102      	str	r1, [sp, #8]
  107840:	9300      	str	r3, [sp, #0]
  107842:	4613      	mov	r3, r2
  107844:	f88d 3007 	strb.w	r3, [sp, #7]
  107848:	9b03      	ldr	r3, [sp, #12]
  10784a:	1d18      	adds	r0, r3, #4
  10784c:	f89d 2007 	ldrb.w	r2, [sp, #7]
  107850:	9b00      	ldr	r3, [sp, #0]
  107852:	9902      	ldr	r1, [sp, #8]
  107854:	f7fe fd00 	bl	106258 <serial_format>
  107858:	bf00      	nop
  10785a:	b005      	add	sp, #20
  10785c:	f85d fb04 	ldr.w	pc, [sp], #4

00107860 <mbed::SerialBase::readable()>:
  107860:	b500      	push	{lr}
  107862:	b083      	sub	sp, #12
  107864:	9001      	str	r0, [sp, #4]
  107866:	9b01      	ldr	r3, [sp, #4]
  107868:	3304      	adds	r3, #4
  10786a:	4618      	mov	r0, r3
  10786c:	f7fe fd74 	bl	106358 <serial_readable>
  107870:	4603      	mov	r3, r0
  107872:	4618      	mov	r0, r3
  107874:	b003      	add	sp, #12
  107876:	f85d fb04 	ldr.w	pc, [sp], #4
  10787a:	bf00      	nop

0010787c <mbed::SerialBase::_irq_handler(unsigned long, SerialIrq)>:
  10787c:	b500      	push	{lr}
  10787e:	b085      	sub	sp, #20
  107880:	9001      	str	r0, [sp, #4]
  107882:	460b      	mov	r3, r1
  107884:	f88d 3003 	strb.w	r3, [sp, #3]
  107888:	9b01      	ldr	r3, [sp, #4]
  10788a:	9303      	str	r3, [sp, #12]
  10788c:	f89d 2003 	ldrb.w	r2, [sp, #3]
  107890:	4613      	mov	r3, r2
  107892:	005b      	lsls	r3, r3, #1
  107894:	4413      	add	r3, r2
  107896:	00db      	lsls	r3, r3, #3
  107898:	3308      	adds	r3, #8
  10789a:	9a03      	ldr	r2, [sp, #12]
  10789c:	4413      	add	r3, r2
  10789e:	3304      	adds	r3, #4
  1078a0:	4618      	mov	r0, r3
  1078a2:	f7ff f995 	bl	106bd0 <mbed::FunctionPointerArg1<void, void>::call()>
  1078a6:	bf00      	nop
  1078a8:	b005      	add	sp, #20
  1078aa:	f85d fb04 	ldr.w	pc, [sp], #4
  1078ae:	bf00      	nop

001078b0 <mbed::SerialBase::_base_getc()>:
  1078b0:	b500      	push	{lr}
  1078b2:	b083      	sub	sp, #12
  1078b4:	9001      	str	r0, [sp, #4]
  1078b6:	9b01      	ldr	r3, [sp, #4]
  1078b8:	3304      	adds	r3, #4
  1078ba:	4618      	mov	r0, r3
  1078bc:	f7fe fd78 	bl	1063b0 <serial_getc>
  1078c0:	4603      	mov	r3, r0
  1078c2:	4618      	mov	r0, r3
  1078c4:	b003      	add	sp, #12
  1078c6:	f85d fb04 	ldr.w	pc, [sp], #4
  1078ca:	bf00      	nop

001078cc <mbed::SerialBase::_base_putc(int)>:
  1078cc:	b500      	push	{lr}
  1078ce:	b083      	sub	sp, #12
  1078d0:	9001      	str	r0, [sp, #4]
  1078d2:	9100      	str	r1, [sp, #0]
  1078d4:	9b01      	ldr	r3, [sp, #4]
  1078d6:	3304      	adds	r3, #4
  1078d8:	9900      	ldr	r1, [sp, #0]
  1078da:	4618      	mov	r0, r3
  1078dc:	f7fe fd54 	bl	106388 <serial_putc>
  1078e0:	9b00      	ldr	r3, [sp, #0]
  1078e2:	4618      	mov	r0, r3
  1078e4:	b003      	add	sp, #12
  1078e6:	f85d fb04 	ldr.w	pc, [sp], #4
  1078ea:	bf00      	nop

001078ec <mbed::SPI::SPI(PinName, PinName, PinName, PinName)>:
  1078ec:	b500      	push	{lr}
  1078ee:	b087      	sub	sp, #28
  1078f0:	9005      	str	r0, [sp, #20]
  1078f2:	9104      	str	r1, [sp, #16]
  1078f4:	9203      	str	r2, [sp, #12]
  1078f6:	9302      	str	r3, [sp, #8]
  1078f8:	4a16      	ldr	r2, [pc, #88]	; (107954 <mbed::SPI::SPI(PinName, PinName, PinName, PinName)+0x68>)
  1078fa:	9b05      	ldr	r3, [sp, #20]
  1078fc:	601a      	str	r2, [r3, #0]
  1078fe:	9b05      	ldr	r3, [sp, #20]
  107900:	2200      	movs	r2, #0
  107902:	605a      	str	r2, [r3, #4]
  107904:	9b05      	ldr	r3, [sp, #20]
  107906:	2208      	movs	r2, #8
  107908:	609a      	str	r2, [r3, #8]
  10790a:	9b05      	ldr	r3, [sp, #20]
  10790c:	2200      	movs	r2, #0
  10790e:	60da      	str	r2, [r3, #12]
  107910:	9b05      	ldr	r3, [sp, #20]
  107912:	4a11      	ldr	r2, [pc, #68]	; (107958 <mbed::SPI::SPI(PinName, PinName, PinName, PinName)+0x6c>)
  107914:	611a      	str	r2, [r3, #16]
  107916:	9b05      	ldr	r3, [sp, #20]
  107918:	1d18      	adds	r0, r3, #4
  10791a:	9b08      	ldr	r3, [sp, #32]
  10791c:	9300      	str	r3, [sp, #0]
  10791e:	9b02      	ldr	r3, [sp, #8]
  107920:	9a03      	ldr	r2, [sp, #12]
  107922:	9904      	ldr	r1, [sp, #16]
  107924:	f7fe fdf6 	bl	106514 <spi_init>
  107928:	9b05      	ldr	r3, [sp, #20]
  10792a:	1d18      	adds	r0, r3, #4
  10792c:	9b05      	ldr	r3, [sp, #20]
  10792e:	6899      	ldr	r1, [r3, #8]
  107930:	9b05      	ldr	r3, [sp, #20]
  107932:	68da      	ldr	r2, [r3, #12]
  107934:	2300      	movs	r3, #0
  107936:	f7fe fed7 	bl	1066e8 <spi_format>
  10793a:	9b05      	ldr	r3, [sp, #20]
  10793c:	1d1a      	adds	r2, r3, #4
  10793e:	9b05      	ldr	r3, [sp, #20]
  107940:	691b      	ldr	r3, [r3, #16]
  107942:	4619      	mov	r1, r3
  107944:	4610      	mov	r0, r2
  107946:	f7fe ff61 	bl	10680c <spi_frequency>
  10794a:	9b05      	ldr	r3, [sp, #20]
  10794c:	4618      	mov	r0, r3
  10794e:	b007      	add	sp, #28
  107950:	f85d fb04 	ldr.w	pc, [sp], #4
  107954:	0010e574 	.word	0x0010e574
  107958:	000f4240 	.word	0x000f4240

0010795c <mbed::SPI::format(int, int)>:
  10795c:	b500      	push	{lr}
  10795e:	b085      	sub	sp, #20
  107960:	9003      	str	r0, [sp, #12]
  107962:	9102      	str	r1, [sp, #8]
  107964:	9201      	str	r2, [sp, #4]
  107966:	9b03      	ldr	r3, [sp, #12]
  107968:	9a02      	ldr	r2, [sp, #8]
  10796a:	609a      	str	r2, [r3, #8]
  10796c:	9b03      	ldr	r3, [sp, #12]
  10796e:	9a01      	ldr	r2, [sp, #4]
  107970:	60da      	str	r2, [r3, #12]
  107972:	4b05      	ldr	r3, [pc, #20]	; (107988 <mbed::SPI::format(int, int)+0x2c>)
  107974:	2200      	movs	r2, #0
  107976:	601a      	str	r2, [r3, #0]
  107978:	9803      	ldr	r0, [sp, #12]
  10797a:	f000 f81b 	bl	1079b4 <mbed::SPI::aquire()>
  10797e:	bf00      	nop
  107980:	b005      	add	sp, #20
  107982:	f85d fb04 	ldr.w	pc, [sp], #4
  107986:	bf00      	nop
  107988:	3fff4704 	.word	0x3fff4704

0010798c <mbed::SPI::frequency(int)>:
  10798c:	b500      	push	{lr}
  10798e:	b083      	sub	sp, #12
  107990:	9001      	str	r0, [sp, #4]
  107992:	9100      	str	r1, [sp, #0]
  107994:	9b01      	ldr	r3, [sp, #4]
  107996:	9a00      	ldr	r2, [sp, #0]
  107998:	611a      	str	r2, [r3, #16]
  10799a:	4b05      	ldr	r3, [pc, #20]	; (1079b0 <mbed::SPI::frequency(int)+0x24>)
  10799c:	2200      	movs	r2, #0
  10799e:	601a      	str	r2, [r3, #0]
  1079a0:	9801      	ldr	r0, [sp, #4]
  1079a2:	f000 f807 	bl	1079b4 <mbed::SPI::aquire()>
  1079a6:	bf00      	nop
  1079a8:	b003      	add	sp, #12
  1079aa:	f85d fb04 	ldr.w	pc, [sp], #4
  1079ae:	bf00      	nop
  1079b0:	3fff4704 	.word	0x3fff4704

001079b4 <mbed::SPI::aquire()>:
  1079b4:	b500      	push	{lr}
  1079b6:	b083      	sub	sp, #12
  1079b8:	9001      	str	r0, [sp, #4]
  1079ba:	4b0e      	ldr	r3, [pc, #56]	; (1079f4 <mbed::SPI::aquire()+0x40>)
  1079bc:	681a      	ldr	r2, [r3, #0]
  1079be:	9b01      	ldr	r3, [sp, #4]
  1079c0:	429a      	cmp	r2, r3
  1079c2:	d013      	beq.n	1079ec <mbed::SPI::aquire()+0x38>
  1079c4:	9b01      	ldr	r3, [sp, #4]
  1079c6:	1d18      	adds	r0, r3, #4
  1079c8:	9b01      	ldr	r3, [sp, #4]
  1079ca:	6899      	ldr	r1, [r3, #8]
  1079cc:	9b01      	ldr	r3, [sp, #4]
  1079ce:	68da      	ldr	r2, [r3, #12]
  1079d0:	2300      	movs	r3, #0
  1079d2:	f7fe fe89 	bl	1066e8 <spi_format>
  1079d6:	9b01      	ldr	r3, [sp, #4]
  1079d8:	1d1a      	adds	r2, r3, #4
  1079da:	9b01      	ldr	r3, [sp, #4]
  1079dc:	691b      	ldr	r3, [r3, #16]
  1079de:	4619      	mov	r1, r3
  1079e0:	4610      	mov	r0, r2
  1079e2:	f7fe ff13 	bl	10680c <spi_frequency>
  1079e6:	4a03      	ldr	r2, [pc, #12]	; (1079f4 <mbed::SPI::aquire()+0x40>)
  1079e8:	9b01      	ldr	r3, [sp, #4]
  1079ea:	6013      	str	r3, [r2, #0]
  1079ec:	bf00      	nop
  1079ee:	b003      	add	sp, #12
  1079f0:	f85d fb04 	ldr.w	pc, [sp], #4
  1079f4:	3fff4704 	.word	0x3fff4704

001079f8 <mbed::SPI::write(int)>:
  1079f8:	b500      	push	{lr}
  1079fa:	b083      	sub	sp, #12
  1079fc:	9001      	str	r0, [sp, #4]
  1079fe:	9100      	str	r1, [sp, #0]
  107a00:	9801      	ldr	r0, [sp, #4]
  107a02:	f7ff ffd7 	bl	1079b4 <mbed::SPI::aquire()>
  107a06:	9b01      	ldr	r3, [sp, #4]
  107a08:	3304      	adds	r3, #4
  107a0a:	9900      	ldr	r1, [sp, #0]
  107a0c:	4618      	mov	r0, r3
  107a0e:	f7fe ff47 	bl	1068a0 <spi_master_write>
  107a12:	4603      	mov	r3, r0
  107a14:	4618      	mov	r0, r3
  107a16:	b003      	add	sp, #12
  107a18:	f85d fb04 	ldr.w	pc, [sp], #4

00107a1c <mbed::Stream::Stream(char const*)>:
  107a1c:	b500      	push	{lr}
  107a1e:	b087      	sub	sp, #28
  107a20:	9001      	str	r0, [sp, #4]
  107a22:	9100      	str	r1, [sp, #0]
  107a24:	9b01      	ldr	r3, [sp, #4]
  107a26:	9900      	ldr	r1, [sp, #0]
  107a28:	4618      	mov	r0, r3
  107a2a:	f7ff f9d9 	bl	106de0 <mbed::FileLike::FileLike(char const*)>
  107a2e:	4a10      	ldr	r2, [pc, #64]	; (107a70 <mbed::Stream::Stream(char const*)+0x54>)
  107a30:	9b01      	ldr	r3, [sp, #4]
  107a32:	601a      	str	r2, [r3, #0]
  107a34:	4a0f      	ldr	r2, [pc, #60]	; (107a74 <mbed::Stream::Stream(char const*)+0x58>)
  107a36:	9b01      	ldr	r3, [sp, #4]
  107a38:	605a      	str	r2, [r3, #4]
  107a3a:	9b01      	ldr	r3, [sp, #4]
  107a3c:	2200      	movs	r2, #0
  107a3e:	615a      	str	r2, [r3, #20]
  107a40:	ab03      	add	r3, sp, #12
  107a42:	9a01      	ldr	r2, [sp, #4]
  107a44:	490c      	ldr	r1, [pc, #48]	; (107a78 <mbed::Stream::Stream(char const*)+0x5c>)
  107a46:	4618      	mov	r0, r3
  107a48:	f002 fd18 	bl	10a47c <siprintf>
  107a4c:	ab03      	add	r3, sp, #12
  107a4e:	490b      	ldr	r1, [pc, #44]	; (107a7c <mbed::Stream::Stream(char const*)+0x60>)
  107a50:	4618      	mov	r0, r3
  107a52:	f001 f91f 	bl	108c94 <fopen>
  107a56:	4602      	mov	r2, r0
  107a58:	9b01      	ldr	r3, [sp, #4]
  107a5a:	615a      	str	r2, [r3, #20]
  107a5c:	9b01      	ldr	r3, [sp, #4]
  107a5e:	695b      	ldr	r3, [r3, #20]
  107a60:	4618      	mov	r0, r3
  107a62:	f7ff fe53 	bl	10770c <mbed::mbed_set_unbuffered_stream(__sFILE*)>
  107a66:	9b01      	ldr	r3, [sp, #4]
  107a68:	4618      	mov	r0, r3
  107a6a:	b007      	add	sp, #28
  107a6c:	f85d fb04 	ldr.w	pc, [sp], #4
  107a70:	0010e590 	.word	0x0010e590
  107a74:	0010e5c4 	.word	0x0010e5c4
  107a78:	0010e580 	.word	0x0010e580
  107a7c:	0010e584 	.word	0x0010e584

00107a80 <mbed::Stream::~Stream()>:
  107a80:	b500      	push	{lr}
  107a82:	b083      	sub	sp, #12
  107a84:	9001      	str	r0, [sp, #4]
  107a86:	4a0d      	ldr	r2, [pc, #52]	; (107abc <mbed::Stream::~Stream()+0x3c>)
  107a88:	9b01      	ldr	r3, [sp, #4]
  107a8a:	601a      	str	r2, [r3, #0]
  107a8c:	4a0c      	ldr	r2, [pc, #48]	; (107ac0 <mbed::Stream::~Stream()+0x40>)
  107a8e:	9b01      	ldr	r3, [sp, #4]
  107a90:	605a      	str	r2, [r3, #4]
  107a92:	9b01      	ldr	r3, [sp, #4]
  107a94:	695b      	ldr	r3, [r3, #20]
  107a96:	4618      	mov	r0, r3
  107a98:	f000 fefc 	bl	108894 <fclose>
  107a9c:	9b01      	ldr	r3, [sp, #4]
  107a9e:	4618      	mov	r0, r3
  107aa0:	f7ff f9bc 	bl	106e1c <mbed::FileLike::~FileLike()>
  107aa4:	2300      	movs	r3, #0
  107aa6:	2b00      	cmp	r3, #0
  107aa8:	d002      	beq.n	107ab0 <mbed::Stream::~Stream()+0x30>
  107aaa:	9801      	ldr	r0, [sp, #4]
  107aac:	f000 f8d3 	bl	107c56 <operator delete(void*)>
  107ab0:	9b01      	ldr	r3, [sp, #4]
  107ab2:	4618      	mov	r0, r3
  107ab4:	b003      	add	sp, #12
  107ab6:	f85d fb04 	ldr.w	pc, [sp], #4
  107aba:	bf00      	nop
  107abc:	0010e590 	.word	0x0010e590
  107ac0:	0010e5c4 	.word	0x0010e5c4

00107ac4 <mbed::Stream::putc(int)>:
  107ac4:	b500      	push	{lr}
  107ac6:	b083      	sub	sp, #12
  107ac8:	9001      	str	r0, [sp, #4]
  107aca:	9100      	str	r1, [sp, #0]
  107acc:	9b01      	ldr	r3, [sp, #4]
  107ace:	695b      	ldr	r3, [r3, #20]
  107ad0:	4618      	mov	r0, r3
  107ad2:	f000 ff97 	bl	108a04 <fflush>
  107ad6:	9b01      	ldr	r3, [sp, #4]
  107ad8:	695b      	ldr	r3, [r3, #20]
  107ada:	4619      	mov	r1, r3
  107adc:	9800      	ldr	r0, [sp, #0]
  107ade:	f001 f905 	bl	108cec <fputc>
  107ae2:	4603      	mov	r3, r0
  107ae4:	4618      	mov	r0, r3
  107ae6:	b003      	add	sp, #12
  107ae8:	f85d fb04 	ldr.w	pc, [sp], #4

00107aec <mbed::Stream::getc()>:
  107aec:	b500      	push	{lr}
  107aee:	b083      	sub	sp, #12
  107af0:	9001      	str	r0, [sp, #4]
  107af2:	9b01      	ldr	r3, [sp, #4]
  107af4:	695b      	ldr	r3, [r3, #20]
  107af6:	4618      	mov	r0, r3
  107af8:	f000 ff84 	bl	108a04 <fflush>
  107afc:	9b01      	ldr	r3, [sp, #4]
  107afe:	695b      	ldr	r3, [r3, #20]
  107b00:	4618      	mov	r0, r3
  107b02:	f7ff fe0f 	bl	107724 <mbed::mbed_getc(__sFILE*)>
  107b06:	4603      	mov	r3, r0
  107b08:	4618      	mov	r0, r3
  107b0a:	b003      	add	sp, #12
  107b0c:	f85d fb04 	ldr.w	pc, [sp], #4

00107b10 <mbed::Stream::close()>:
  107b10:	b082      	sub	sp, #8
  107b12:	9001      	str	r0, [sp, #4]
  107b14:	2300      	movs	r3, #0
  107b16:	4618      	mov	r0, r3
  107b18:	b002      	add	sp, #8
  107b1a:	4770      	bx	lr

00107b1c <mbed::Stream::write(void const*, unsigned int)>:
  107b1c:	b500      	push	{lr}
  107b1e:	b087      	sub	sp, #28
  107b20:	9003      	str	r0, [sp, #12]
  107b22:	9102      	str	r1, [sp, #8]
  107b24:	9201      	str	r2, [sp, #4]
  107b26:	9b02      	ldr	r3, [sp, #8]
  107b28:	9305      	str	r3, [sp, #20]
  107b2a:	9a05      	ldr	r2, [sp, #20]
  107b2c:	9b01      	ldr	r3, [sp, #4]
  107b2e:	4413      	add	r3, r2
  107b30:	9304      	str	r3, [sp, #16]
  107b32:	9a05      	ldr	r2, [sp, #20]
  107b34:	9b04      	ldr	r3, [sp, #16]
  107b36:	429a      	cmp	r2, r3
  107b38:	d015      	beq.n	107b66 <mbed::Stream::write(void const*, unsigned int)+0x4a>
  107b3a:	9b03      	ldr	r3, [sp, #12]
  107b3c:	681b      	ldr	r3, [r3, #0]
  107b3e:	3324      	adds	r3, #36	; 0x24
  107b40:	681a      	ldr	r2, [r3, #0]
  107b42:	9b05      	ldr	r3, [sp, #20]
  107b44:	1c59      	adds	r1, r3, #1
  107b46:	9105      	str	r1, [sp, #20]
  107b48:	781b      	ldrb	r3, [r3, #0]
  107b4a:	4619      	mov	r1, r3
  107b4c:	9803      	ldr	r0, [sp, #12]
  107b4e:	4790      	blx	r2
  107b50:	4603      	mov	r3, r0
  107b52:	f1b3 3fff 	cmp.w	r3, #4294967295
  107b56:	bf0c      	ite	eq
  107b58:	2301      	moveq	r3, #1
  107b5a:	2300      	movne	r3, #0
  107b5c:	b2db      	uxtb	r3, r3
  107b5e:	2b00      	cmp	r3, #0
  107b60:	d100      	bne.n	107b64 <mbed::Stream::write(void const*, unsigned int)+0x48>
  107b62:	e7e6      	b.n	107b32 <mbed::Stream::write(void const*, unsigned int)+0x16>
  107b64:	bf00      	nop
  107b66:	9a05      	ldr	r2, [sp, #20]
  107b68:	9b02      	ldr	r3, [sp, #8]
  107b6a:	1ad3      	subs	r3, r2, r3
  107b6c:	4618      	mov	r0, r3
  107b6e:	b007      	add	sp, #28
  107b70:	f85d fb04 	ldr.w	pc, [sp], #4

00107b74 <mbed::Stream::read(void*, unsigned int)>:
  107b74:	b500      	push	{lr}
  107b76:	b089      	sub	sp, #36	; 0x24
  107b78:	9003      	str	r0, [sp, #12]
  107b7a:	9102      	str	r1, [sp, #8]
  107b7c:	9201      	str	r2, [sp, #4]
  107b7e:	9b02      	ldr	r3, [sp, #8]
  107b80:	9307      	str	r3, [sp, #28]
  107b82:	9a07      	ldr	r2, [sp, #28]
  107b84:	9b01      	ldr	r3, [sp, #4]
  107b86:	4413      	add	r3, r2
  107b88:	9306      	str	r3, [sp, #24]
  107b8a:	9a07      	ldr	r2, [sp, #28]
  107b8c:	9b06      	ldr	r3, [sp, #24]
  107b8e:	429a      	cmp	r2, r3
  107b90:	d012      	beq.n	107bb8 <mbed::Stream::read(void*, unsigned int)+0x44>
  107b92:	9b03      	ldr	r3, [sp, #12]
  107b94:	681b      	ldr	r3, [r3, #0]
  107b96:	3328      	adds	r3, #40	; 0x28
  107b98:	681b      	ldr	r3, [r3, #0]
  107b9a:	9803      	ldr	r0, [sp, #12]
  107b9c:	4798      	blx	r3
  107b9e:	9005      	str	r0, [sp, #20]
  107ba0:	9b05      	ldr	r3, [sp, #20]
  107ba2:	f1b3 3fff 	cmp.w	r3, #4294967295
  107ba6:	d006      	beq.n	107bb6 <mbed::Stream::read(void*, unsigned int)+0x42>
  107ba8:	9b07      	ldr	r3, [sp, #28]
  107baa:	1c5a      	adds	r2, r3, #1
  107bac:	9207      	str	r2, [sp, #28]
  107bae:	9a05      	ldr	r2, [sp, #20]
  107bb0:	b2d2      	uxtb	r2, r2
  107bb2:	701a      	strb	r2, [r3, #0]
  107bb4:	e7e9      	b.n	107b8a <mbed::Stream::read(void*, unsigned int)+0x16>
  107bb6:	bf00      	nop
  107bb8:	9a07      	ldr	r2, [sp, #28]
  107bba:	9b02      	ldr	r3, [sp, #8]
  107bbc:	1ad3      	subs	r3, r2, r3
  107bbe:	4618      	mov	r0, r3
  107bc0:	b009      	add	sp, #36	; 0x24
  107bc2:	f85d fb04 	ldr.w	pc, [sp], #4
  107bc6:	bf00      	nop

00107bc8 <mbed::Stream::lseek(long, int)>:
  107bc8:	b084      	sub	sp, #16
  107bca:	9003      	str	r0, [sp, #12]
  107bcc:	9102      	str	r1, [sp, #8]
  107bce:	9201      	str	r2, [sp, #4]
  107bd0:	2300      	movs	r3, #0
  107bd2:	4618      	mov	r0, r3
  107bd4:	b004      	add	sp, #16
  107bd6:	4770      	bx	lr

00107bd8 <mbed::Stream::isatty()>:
  107bd8:	b082      	sub	sp, #8
  107bda:	9001      	str	r0, [sp, #4]
  107bdc:	2300      	movs	r3, #0
  107bde:	4618      	mov	r0, r3
  107be0:	b002      	add	sp, #8
  107be2:	4770      	bx	lr

00107be4 <mbed::Stream::fsync()>:
  107be4:	b082      	sub	sp, #8
  107be6:	9001      	str	r0, [sp, #4]
  107be8:	2300      	movs	r3, #0
  107bea:	4618      	mov	r0, r3
  107bec:	b002      	add	sp, #8
  107bee:	4770      	bx	lr

00107bf0 <mbed::Stream::flen()>:
  107bf0:	b082      	sub	sp, #8
  107bf2:	9001      	str	r0, [sp, #4]
  107bf4:	2300      	movs	r3, #0
  107bf6:	4618      	mov	r0, r3
  107bf8:	b002      	add	sp, #8
  107bfa:	4770      	bx	lr

00107bfc <Reset_Handler>:
  107bfc:	4908      	ldr	r1, [pc, #32]	; (107c20 <Reset_Handler+0x24>)
  107bfe:	4a09      	ldr	r2, [pc, #36]	; (107c24 <Reset_Handler+0x28>)
  107c00:	4b09      	ldr	r3, [pc, #36]	; (107c28 <Reset_Handler+0x2c>)
  107c02:	429a      	cmp	r2, r3
  107c04:	bfbe      	ittt	lt
  107c06:	f851 0b04 	ldrlt.w	r0, [r1], #4
  107c0a:	f842 0b04 	strlt.w	r0, [r2], #4
  107c0e:	e7f8      	blt.n	107c02 <Reset_Handler+0x6>
  107c10:	4806      	ldr	r0, [pc, #24]	; (107c2c <Reset_Handler+0x30>)
  107c12:	f380 8808 	msr	MSP, r0
  107c16:	4806      	ldr	r0, [pc, #24]	; (107c30 <Reset_Handler+0x34>)
  107c18:	4780      	blx	r0
  107c1a:	4806      	ldr	r0, [pc, #24]	; (107c34 <Reset_Handler+0x38>)
  107c1c:	4700      	bx	r0
  107c1e:	0000      	.short	0x0000
  107c20:	0010eae8 	.word	0x0010eae8
  107c24:	3fff4000 	.word	0x3fff4000
  107c28:	3fff415c 	.word	0x3fff415c
  107c2c:	3fffd800 	.word	0x3fffd800
  107c30:	00105571 	.word	0x00105571
  107c34:	00102735 	.word	0x00102735

00107c38 <NMI_Handler>:
  107c38:	e7fe      	b.n	107c38 <NMI_Handler>

00107c3a <HardFault_Handler>:
  107c3a:	e7fe      	b.n	107c3a <HardFault_Handler>

00107c3c <MemManage_Handler>:
  107c3c:	e7fe      	b.n	107c3c <MemManage_Handler>

00107c3e <BusFault_Handler>:
  107c3e:	e7fe      	b.n	107c3e <BusFault_Handler>

00107c40 <UsageFault_Handler>:
  107c40:	e7fe      	b.n	107c40 <UsageFault_Handler>
  107c42:	e7fe      	b.n	107c42 <UsageFault_Handler+0x2>

00107c44 <DebugMon_Handler>:
  107c44:	e7fe      	b.n	107c44 <DebugMon_Handler>
  107c46:	e7fe      	b.n	107c46 <DebugMon_Handler+0x2>
  107c48:	e7fe      	b.n	107c48 <DebugMon_Handler+0x4>

00107c4a <ADC_IRQHandler>:
  107c4a:	e7fe      	b.n	107c4a <ADC_IRQHandler>

00107c4c <__aeabi_atexit>:
  107c4c:	460b      	mov	r3, r1
  107c4e:	4601      	mov	r1, r0
  107c50:	4618      	mov	r0, r3
  107c52:	f000 bda5 	b.w	1087a0 <__cxa_atexit>

00107c56 <operator delete(void*)>:
  107c56:	f7fa bdb3 	b.w	1027c0 <__wrap_free>

00107c5a <operator new(unsigned int)>:
  107c5a:	b510      	push	{r4, lr}
  107c5c:	2800      	cmp	r0, #0
  107c5e:	bf14      	ite	ne
  107c60:	4604      	movne	r4, r0
  107c62:	2401      	moveq	r4, #1
  107c64:	4620      	mov	r0, r4
  107c66:	f7fa fd9d 	bl	1027a4 <__wrap_malloc>
  107c6a:	b930      	cbnz	r0, 107c7a <operator new(unsigned int)+0x20>
  107c6c:	f000 f886 	bl	107d7c <std::get_new_handler()>
  107c70:	b908      	cbnz	r0, 107c76 <operator new(unsigned int)+0x1c>
  107c72:	f7fa fdb1 	bl	1027d8 <abort>
  107c76:	4780      	blx	r0
  107c78:	e7f4      	b.n	107c64 <operator new(unsigned int)+0xa>
  107c7a:	bd10      	pop	{r4, pc}

00107c7c <std::allocator<char>::allocator()>:
  107c7c:	4770      	bx	lr

00107c7e <std::allocator<char>::~allocator()>:
  107c7e:	4770      	bx	lr

00107c80 <std::char_traits<char>::copy(char*, char const*, unsigned int)>:
  107c80:	b10a      	cbz	r2, 107c86 <std::char_traits<char>::copy(char*, char const*, unsigned int)+0x6>
  107c82:	f001 b997 	b.w	108fb4 <memcpy>
  107c86:	4770      	bx	lr

00107c88 <std::__cxx11::basic_string<char, std::char_traits<char>, std::allocator<char> >::_M_create(unsigned int&, unsigned int)>:
  107c88:	b508      	push	{r3, lr}
  107c8a:	680b      	ldr	r3, [r1, #0]
  107c8c:	f1b3 4f00 	cmp.w	r3, #2147483648	; 0x80000000
  107c90:	d302      	bcc.n	107c98 <std::__cxx11::basic_string<char, std::char_traits<char>, std::allocator<char> >::_M_create(unsigned int&, unsigned int)+0x10>
  107c92:	480a      	ldr	r0, [pc, #40]	; (107cbc <std::__cxx11::basic_string<char, std::char_traits<char>, std::allocator<char> >::_M_create(unsigned int&, unsigned int)+0x34>)
  107c94:	f000 f87d 	bl	107d92 <std::__throw_length_error(char const*)>
  107c98:	4293      	cmp	r3, r2
  107c9a:	d909      	bls.n	107cb0 <std::__cxx11::basic_string<char, std::char_traits<char>, std::allocator<char> >::_M_create(unsigned int&, unsigned int)+0x28>
  107c9c:	0052      	lsls	r2, r2, #1
  107c9e:	4293      	cmp	r3, r2
  107ca0:	d206      	bcs.n	107cb0 <std::__cxx11::basic_string<char, std::char_traits<char>, std::allocator<char> >::_M_create(unsigned int&, unsigned int)+0x28>
  107ca2:	f1b2 4f00 	cmp.w	r2, #2147483648	; 0x80000000
  107ca6:	bf2a      	itet	cs
  107ca8:	f06f 4300 	mvncs.w	r3, #2147483648	; 0x80000000
  107cac:	600a      	strcc	r2, [r1, #0]
  107cae:	600b      	strcs	r3, [r1, #0]
  107cb0:	6808      	ldr	r0, [r1, #0]
  107cb2:	e8bd 4008 	ldmia.w	sp!, {r3, lr}
  107cb6:	3001      	adds	r0, #1
  107cb8:	f7ff bfcf 	b.w	107c5a <operator new(unsigned int)>
  107cbc:	0010e5cc 	.word	0x0010e5cc

00107cc0 <std::__cxx11::basic_string<char, std::char_traits<char>, std::allocator<char> >::_M_dispose()>:
  107cc0:	4603      	mov	r3, r0
  107cc2:	f853 0b08 	ldr.w	r0, [r3], #8
  107cc6:	4298      	cmp	r0, r3
  107cc8:	d001      	beq.n	107cce <std::__cxx11::basic_string<char, std::char_traits<char>, std::allocator<char> >::_M_dispose()+0xe>
  107cca:	f7ff bfc4 	b.w	107c56 <operator delete(void*)>
  107cce:	4770      	bx	lr

00107cd0 <std::__cxx11::basic_string<char, std::char_traits<char>, std::allocator<char> >::_S_copy(char*, char const*, unsigned int)>:
  107cd0:	2a01      	cmp	r2, #1
  107cd2:	b510      	push	{r4, lr}
  107cd4:	d102      	bne.n	107cdc <std::__cxx11::basic_string<char, std::char_traits<char>, std::allocator<char> >::_S_copy(char*, char const*, unsigned int)+0xc>
  107cd6:	780a      	ldrb	r2, [r1, #0]
  107cd8:	7002      	strb	r2, [r0, #0]
  107cda:	bd10      	pop	{r4, pc}
  107cdc:	f7ff ffd0 	bl	107c80 <std::char_traits<char>::copy(char*, char const*, unsigned int)>
  107ce0:	bd10      	pop	{r4, pc}

00107ce2 <std::__cxx11::basic_string<char, std::char_traits<char>, std::allocator<char> >::_S_copy_chars(char*, char const*, char const*)>:
  107ce2:	b508      	push	{r3, lr}
  107ce4:	1a52      	subs	r2, r2, r1
  107ce6:	f7ff fff3 	bl	107cd0 <std::__cxx11::basic_string<char, std::char_traits<char>, std::allocator<char> >::_S_copy(char*, char const*, unsigned int)>
  107cea:	bd08      	pop	{r3, pc}

00107cec <std::__cxx11::basic_string<char, std::char_traits<char>, std::allocator<char> >::basic_string()>:
  107cec:	f100 0208 	add.w	r2, r0, #8
  107cf0:	6002      	str	r2, [r0, #0]
  107cf2:	2200      	movs	r2, #0
  107cf4:	6042      	str	r2, [r0, #4]
  107cf6:	7202      	strb	r2, [r0, #8]
  107cf8:	4770      	bx	lr

00107cfa <std::__cxx11::basic_string<char, std::char_traits<char>, std::allocator<char> >::~basic_string()>:
  107cfa:	b510      	push	{r4, lr}
  107cfc:	4604      	mov	r4, r0
  107cfe:	f7ff ffdf 	bl	107cc0 <std::__cxx11::basic_string<char, std::char_traits<char>, std::allocator<char> >::_M_dispose()>
  107d02:	4620      	mov	r0, r4
  107d04:	bd10      	pop	{r4, pc}
	...

00107d08 <void std::__cxx11::basic_string<char, std::char_traits<char>, std::allocator<char> >::_M_construct<char const*>(char const*, char const*, std::forward_iterator_tag)>:
  107d08:	b573      	push	{r0, r1, r4, r5, r6, lr}
  107d0a:	4604      	mov	r4, r0
  107d0c:	4616      	mov	r6, r2
  107d0e:	460d      	mov	r5, r1
  107d10:	b901      	cbnz	r1, 107d14 <void std::__cxx11::basic_string<char, std::char_traits<char>, std::allocator<char> >::_M_construct<char const*>(char const*, char const*, std::forward_iterator_tag)+0xc>
  107d12:	b9ba      	cbnz	r2, 107d44 <void std::__cxx11::basic_string<char, std::char_traits<char>, std::allocator<char> >::_M_construct<char const*>(char const*, char const*, std::forward_iterator_tag)+0x3c>
  107d14:	1b73      	subs	r3, r6, r5
  107d16:	2b0f      	cmp	r3, #15
  107d18:	9301      	str	r3, [sp, #4]
  107d1a:	d907      	bls.n	107d2c <void std::__cxx11::basic_string<char, std::char_traits<char>, std::allocator<char> >::_M_construct<char const*>(char const*, char const*, std::forward_iterator_tag)+0x24>
  107d1c:	2200      	movs	r2, #0
  107d1e:	a901      	add	r1, sp, #4
  107d20:	4620      	mov	r0, r4
  107d22:	f7ff ffb1 	bl	107c88 <std::__cxx11::basic_string<char, std::char_traits<char>, std::allocator<char> >::_M_create(unsigned int&, unsigned int)>
  107d26:	9b01      	ldr	r3, [sp, #4]
  107d28:	6020      	str	r0, [r4, #0]
  107d2a:	60a3      	str	r3, [r4, #8]
  107d2c:	4632      	mov	r2, r6
  107d2e:	4629      	mov	r1, r5
  107d30:	6820      	ldr	r0, [r4, #0]
  107d32:	f7ff ffd6 	bl	107ce2 <std::__cxx11::basic_string<char, std::char_traits<char>, std::allocator<char> >::_S_copy_chars(char*, char const*, char const*)>
  107d36:	9b01      	ldr	r3, [sp, #4]
  107d38:	6822      	ldr	r2, [r4, #0]
  107d3a:	2100      	movs	r1, #0
  107d3c:	6063      	str	r3, [r4, #4]
  107d3e:	54d1      	strb	r1, [r2, r3]
  107d40:	b002      	add	sp, #8
  107d42:	bd70      	pop	{r4, r5, r6, pc}
  107d44:	4801      	ldr	r0, [pc, #4]	; (107d4c <void std::__cxx11::basic_string<char, std::char_traits<char>, std::allocator<char> >::_M_construct<char const*>(char const*, char const*, std::forward_iterator_tag)+0x44>)
  107d46:	f000 f821 	bl	107d8c <std::__throw_logic_error(char const*)>
  107d4a:	bf00      	nop
  107d4c:	0010e727 	.word	0x0010e727

00107d50 <std::__cxx11::basic_string<char, std::char_traits<char>, std::allocator<char> >::basic_string(char const*, std::allocator<char> const&)>:
  107d50:	b538      	push	{r3, r4, r5, lr}
  107d52:	f100 0308 	add.w	r3, r0, #8
  107d56:	4604      	mov	r4, r0
  107d58:	6003      	str	r3, [r0, #0]
  107d5a:	460d      	mov	r5, r1
  107d5c:	b121      	cbz	r1, 107d68 <std::__cxx11::basic_string<char, std::char_traits<char>, std::allocator<char> >::basic_string(char const*, std::allocator<char> const&)+0x18>
  107d5e:	4608      	mov	r0, r1
  107d60:	f002 fc29 	bl	10a5b6 <strlen>
  107d64:	182a      	adds	r2, r5, r0
  107d66:	e001      	b.n	107d6c <std::__cxx11::basic_string<char, std::char_traits<char>, std::allocator<char> >::basic_string(char const*, std::allocator<char> const&)+0x1c>
  107d68:	f04f 32ff 	mov.w	r2, #4294967295
  107d6c:	4620      	mov	r0, r4
  107d6e:	f04f 0300 	mov.w	r3, #0
  107d72:	4629      	mov	r1, r5
  107d74:	f7ff ffc8 	bl	107d08 <void std::__cxx11::basic_string<char, std::char_traits<char>, std::allocator<char> >::_M_construct<char const*>(char const*, char const*, std::forward_iterator_tag)>
  107d78:	4620      	mov	r0, r4
  107d7a:	bd38      	pop	{r3, r4, r5, pc}

00107d7c <std::get_new_handler()>:
  107d7c:	4b02      	ldr	r3, [pc, #8]	; (107d88 <std::get_new_handler()+0xc>)
  107d7e:	6818      	ldr	r0, [r3, #0]
  107d80:	f3bf 8f5f 	dmb	sy
  107d84:	4770      	bx	lr
  107d86:	bf00      	nop
  107d88:	3fff4708 	.word	0x3fff4708

00107d8c <std::__throw_logic_error(char const*)>:
  107d8c:	b508      	push	{r3, lr}
  107d8e:	f7fa fd23 	bl	1027d8 <abort>

00107d92 <std::__throw_length_error(char const*)>:
  107d92:	b508      	push	{r3, lr}
  107d94:	f7fa fd20 	bl	1027d8 <abort>

00107d98 <_GLOBAL__sub_I__ZNSt12ctype_bynameIcEC2ERKSsj>:
  107d98:	4b24      	ldr	r3, [pc, #144]	; (107e2c <_GLOBAL__sub_I__ZNSt12ctype_bynameIcEC2ERKSsj+0x94>)
  107d9a:	681a      	ldr	r2, [r3, #0]
  107d9c:	07d0      	lsls	r0, r2, #31
  107d9e:	bf5c      	itt	pl
  107da0:	2201      	movpl	r2, #1
  107da2:	601a      	strpl	r2, [r3, #0]
  107da4:	4b22      	ldr	r3, [pc, #136]	; (107e30 <_GLOBAL__sub_I__ZNSt12ctype_bynameIcEC2ERKSsj+0x98>)
  107da6:	681a      	ldr	r2, [r3, #0]
  107da8:	07d1      	lsls	r1, r2, #31
  107daa:	bf5c      	itt	pl
  107dac:	2201      	movpl	r2, #1
  107dae:	601a      	strpl	r2, [r3, #0]
  107db0:	4b20      	ldr	r3, [pc, #128]	; (107e34 <_GLOBAL__sub_I__ZNSt12ctype_bynameIcEC2ERKSsj+0x9c>)
  107db2:	681a      	ldr	r2, [r3, #0]
  107db4:	07d2      	lsls	r2, r2, #31
  107db6:	bf5c      	itt	pl
  107db8:	2201      	movpl	r2, #1
  107dba:	601a      	strpl	r2, [r3, #0]
  107dbc:	4b1e      	ldr	r3, [pc, #120]	; (107e38 <_GLOBAL__sub_I__ZNSt12ctype_bynameIcEC2ERKSsj+0xa0>)
  107dbe:	681a      	ldr	r2, [r3, #0]
  107dc0:	07d0      	lsls	r0, r2, #31
  107dc2:	bf5c      	itt	pl
  107dc4:	2201      	movpl	r2, #1
  107dc6:	601a      	strpl	r2, [r3, #0]
  107dc8:	4b1c      	ldr	r3, [pc, #112]	; (107e3c <_GLOBAL__sub_I__ZNSt12ctype_bynameIcEC2ERKSsj+0xa4>)
  107dca:	681a      	ldr	r2, [r3, #0]
  107dcc:	07d1      	lsls	r1, r2, #31
  107dce:	bf5c      	itt	pl
  107dd0:	2201      	movpl	r2, #1
  107dd2:	601a      	strpl	r2, [r3, #0]
  107dd4:	4b1a      	ldr	r3, [pc, #104]	; (107e40 <_GLOBAL__sub_I__ZNSt12ctype_bynameIcEC2ERKSsj+0xa8>)
  107dd6:	681a      	ldr	r2, [r3, #0]
  107dd8:	07d2      	lsls	r2, r2, #31
  107dda:	bf5c      	itt	pl
  107ddc:	2201      	movpl	r2, #1
  107dde:	601a      	strpl	r2, [r3, #0]
  107de0:	4b18      	ldr	r3, [pc, #96]	; (107e44 <_GLOBAL__sub_I__ZNSt12ctype_bynameIcEC2ERKSsj+0xac>)
  107de2:	681a      	ldr	r2, [r3, #0]
  107de4:	07d0      	lsls	r0, r2, #31
  107de6:	bf5c      	itt	pl
  107de8:	2201      	movpl	r2, #1
  107dea:	601a      	strpl	r2, [r3, #0]
  107dec:	4b16      	ldr	r3, [pc, #88]	; (107e48 <_GLOBAL__sub_I__ZNSt12ctype_bynameIcEC2ERKSsj+0xb0>)
  107dee:	681a      	ldr	r2, [r3, #0]
  107df0:	07d1      	lsls	r1, r2, #31
  107df2:	bf5c      	itt	pl
  107df4:	2201      	movpl	r2, #1
  107df6:	601a      	strpl	r2, [r3, #0]
  107df8:	4b14      	ldr	r3, [pc, #80]	; (107e4c <_GLOBAL__sub_I__ZNSt12ctype_bynameIcEC2ERKSsj+0xb4>)
  107dfa:	681a      	ldr	r2, [r3, #0]
  107dfc:	07d2      	lsls	r2, r2, #31
  107dfe:	bf5c      	itt	pl
  107e00:	2201      	movpl	r2, #1
  107e02:	601a      	strpl	r2, [r3, #0]
  107e04:	4b12      	ldr	r3, [pc, #72]	; (107e50 <_GLOBAL__sub_I__ZNSt12ctype_bynameIcEC2ERKSsj+0xb8>)
  107e06:	681a      	ldr	r2, [r3, #0]
  107e08:	07d0      	lsls	r0, r2, #31
  107e0a:	bf5c      	itt	pl
  107e0c:	2201      	movpl	r2, #1
  107e0e:	601a      	strpl	r2, [r3, #0]
  107e10:	4b10      	ldr	r3, [pc, #64]	; (107e54 <_GLOBAL__sub_I__ZNSt12ctype_bynameIcEC2ERKSsj+0xbc>)
  107e12:	681a      	ldr	r2, [r3, #0]
  107e14:	07d1      	lsls	r1, r2, #31
  107e16:	bf5c      	itt	pl
  107e18:	2201      	movpl	r2, #1
  107e1a:	601a      	strpl	r2, [r3, #0]
  107e1c:	4b0e      	ldr	r3, [pc, #56]	; (107e58 <_GLOBAL__sub_I__ZNSt12ctype_bynameIcEC2ERKSsj+0xc0>)
  107e1e:	681a      	ldr	r2, [r3, #0]
  107e20:	07d2      	lsls	r2, r2, #31
  107e22:	bf5c      	itt	pl
  107e24:	2201      	movpl	r2, #1
  107e26:	601a      	strpl	r2, [r3, #0]
  107e28:	4770      	bx	lr
  107e2a:	bf00      	nop
  107e2c:	3fff4738 	.word	0x3fff4738
  107e30:	3fff4734 	.word	0x3fff4734
  107e34:	3fff4730 	.word	0x3fff4730
  107e38:	3fff472c 	.word	0x3fff472c
  107e3c:	3fff4728 	.word	0x3fff4728
  107e40:	3fff4724 	.word	0x3fff4724
  107e44:	3fff4720 	.word	0x3fff4720
  107e48:	3fff471c 	.word	0x3fff471c
  107e4c:	3fff4718 	.word	0x3fff4718
  107e50:	3fff4714 	.word	0x3fff4714
  107e54:	3fff4710 	.word	0x3fff4710
  107e58:	3fff470c 	.word	0x3fff470c

00107e5c <_GLOBAL__sub_I__ZNSt12ctype_bynameIcEC2ERKNSt7__cxx1112basic_stringIcSt11char_traitsIcESaIcEEEj>:
  107e5c:	4b18      	ldr	r3, [pc, #96]	; (107ec0 <_GLOBAL__sub_I__ZNSt12ctype_bynameIcEC2ERKNSt7__cxx1112basic_stringIcSt11char_traitsIcESaIcEEEj+0x64>)
  107e5e:	681a      	ldr	r2, [r3, #0]
  107e60:	07d1      	lsls	r1, r2, #31
  107e62:	bf5c      	itt	pl
  107e64:	2201      	movpl	r2, #1
  107e66:	601a      	strpl	r2, [r3, #0]
  107e68:	4b16      	ldr	r3, [pc, #88]	; (107ec4 <_GLOBAL__sub_I__ZNSt12ctype_bynameIcEC2ERKNSt7__cxx1112basic_stringIcSt11char_traitsIcESaIcEEEj+0x68>)
  107e6a:	681a      	ldr	r2, [r3, #0]
  107e6c:	07d2      	lsls	r2, r2, #31
  107e6e:	bf5c      	itt	pl
  107e70:	2201      	movpl	r2, #1
  107e72:	601a      	strpl	r2, [r3, #0]
  107e74:	4b14      	ldr	r3, [pc, #80]	; (107ec8 <_GLOBAL__sub_I__ZNSt12ctype_bynameIcEC2ERKNSt7__cxx1112basic_stringIcSt11char_traitsIcESaIcEEEj+0x6c>)
  107e76:	681a      	ldr	r2, [r3, #0]
  107e78:	07d0      	lsls	r0, r2, #31
  107e7a:	bf5c      	itt	pl
  107e7c:	2201      	movpl	r2, #1
  107e7e:	601a      	strpl	r2, [r3, #0]
  107e80:	4b12      	ldr	r3, [pc, #72]	; (107ecc <_GLOBAL__sub_I__ZNSt12ctype_bynameIcEC2ERKNSt7__cxx1112basic_stringIcSt11char_traitsIcESaIcEEEj+0x70>)
  107e82:	681a      	ldr	r2, [r3, #0]
  107e84:	07d1      	lsls	r1, r2, #31
  107e86:	bf5c      	itt	pl
  107e88:	2201      	movpl	r2, #1
  107e8a:	601a      	strpl	r2, [r3, #0]
  107e8c:	4b10      	ldr	r3, [pc, #64]	; (107ed0 <_GLOBAL__sub_I__ZNSt12ctype_bynameIcEC2ERKNSt7__cxx1112basic_stringIcSt11char_traitsIcESaIcEEEj+0x74>)
  107e8e:	681a      	ldr	r2, [r3, #0]
  107e90:	07d2      	lsls	r2, r2, #31
  107e92:	bf5c      	itt	pl
  107e94:	2201      	movpl	r2, #1
  107e96:	601a      	strpl	r2, [r3, #0]
  107e98:	4b0e      	ldr	r3, [pc, #56]	; (107ed4 <_GLOBAL__sub_I__ZNSt12ctype_bynameIcEC2ERKNSt7__cxx1112basic_stringIcSt11char_traitsIcESaIcEEEj+0x78>)
  107e9a:	681a      	ldr	r2, [r3, #0]
  107e9c:	07d0      	lsls	r0, r2, #31
  107e9e:	bf5c      	itt	pl
  107ea0:	2201      	movpl	r2, #1
  107ea2:	601a      	strpl	r2, [r3, #0]
  107ea4:	4b0c      	ldr	r3, [pc, #48]	; (107ed8 <_GLOBAL__sub_I__ZNSt12ctype_bynameIcEC2ERKNSt7__cxx1112basic_stringIcSt11char_traitsIcESaIcEEEj+0x7c>)
  107ea6:	681a      	ldr	r2, [r3, #0]
  107ea8:	07d1      	lsls	r1, r2, #31
  107eaa:	bf5c      	itt	pl
  107eac:	2201      	movpl	r2, #1
  107eae:	601a      	strpl	r2, [r3, #0]
  107eb0:	4b0a      	ldr	r3, [pc, #40]	; (107edc <_GLOBAL__sub_I__ZNSt12ctype_bynameIcEC2ERKNSt7__cxx1112basic_stringIcSt11char_traitsIcESaIcEEEj+0x80>)
  107eb2:	681a      	ldr	r2, [r3, #0]
  107eb4:	07d2      	lsls	r2, r2, #31
  107eb6:	bf5c      	itt	pl
  107eb8:	2201      	movpl	r2, #1
  107eba:	601a      	strpl	r2, [r3, #0]
  107ebc:	4770      	bx	lr
  107ebe:	bf00      	nop
  107ec0:	3fff4758 	.word	0x3fff4758
  107ec4:	3fff4754 	.word	0x3fff4754
  107ec8:	3fff4750 	.word	0x3fff4750
  107ecc:	3fff474c 	.word	0x3fff474c
  107ed0:	3fff4748 	.word	0x3fff4748
  107ed4:	3fff4744 	.word	0x3fff4744
  107ed8:	3fff4740 	.word	0x3fff4740
  107edc:	3fff473c 	.word	0x3fff473c

00107ee0 <_GLOBAL__sub_I__ZNSt12ctype_bynameIwEC2ERKSsj>:
  107ee0:	4b24      	ldr	r3, [pc, #144]	; (107f74 <_GLOBAL__sub_I__ZNSt12ctype_bynameIwEC2ERKSsj+0x94>)
  107ee2:	681a      	ldr	r2, [r3, #0]
  107ee4:	07d0      	lsls	r0, r2, #31
  107ee6:	bf5c      	itt	pl
  107ee8:	2201      	movpl	r2, #1
  107eea:	601a      	strpl	r2, [r3, #0]
  107eec:	4b22      	ldr	r3, [pc, #136]	; (107f78 <_GLOBAL__sub_I__ZNSt12ctype_bynameIwEC2ERKSsj+0x98>)
  107eee:	681a      	ldr	r2, [r3, #0]
  107ef0:	07d1      	lsls	r1, r2, #31
  107ef2:	bf5c      	itt	pl
  107ef4:	2201      	movpl	r2, #1
  107ef6:	601a      	strpl	r2, [r3, #0]
  107ef8:	4b20      	ldr	r3, [pc, #128]	; (107f7c <_GLOBAL__sub_I__ZNSt12ctype_bynameIwEC2ERKSsj+0x9c>)
  107efa:	681a      	ldr	r2, [r3, #0]
  107efc:	07d2      	lsls	r2, r2, #31
  107efe:	bf5c      	itt	pl
  107f00:	2201      	movpl	r2, #1
  107f02:	601a      	strpl	r2, [r3, #0]
  107f04:	4b1e      	ldr	r3, [pc, #120]	; (107f80 <_GLOBAL__sub_I__ZNSt12ctype_bynameIwEC2ERKSsj+0xa0>)
  107f06:	681a      	ldr	r2, [r3, #0]
  107f08:	07d0      	lsls	r0, r2, #31
  107f0a:	bf5c      	itt	pl
  107f0c:	2201      	movpl	r2, #1
  107f0e:	601a      	strpl	r2, [r3, #0]
  107f10:	4b1c      	ldr	r3, [pc, #112]	; (107f84 <_GLOBAL__sub_I__ZNSt12ctype_bynameIwEC2ERKSsj+0xa4>)
  107f12:	681a      	ldr	r2, [r3, #0]
  107f14:	07d1      	lsls	r1, r2, #31
  107f16:	bf5c      	itt	pl
  107f18:	2201      	movpl	r2, #1
  107f1a:	601a      	strpl	r2, [r3, #0]
  107f1c:	4b1a      	ldr	r3, [pc, #104]	; (107f88 <_GLOBAL__sub_I__ZNSt12ctype_bynameIwEC2ERKSsj+0xa8>)
  107f1e:	681a      	ldr	r2, [r3, #0]
  107f20:	07d2      	lsls	r2, r2, #31
  107f22:	bf5c      	itt	pl
  107f24:	2201      	movpl	r2, #1
  107f26:	601a      	strpl	r2, [r3, #0]
  107f28:	4b18      	ldr	r3, [pc, #96]	; (107f8c <_GLOBAL__sub_I__ZNSt12ctype_bynameIwEC2ERKSsj+0xac>)
  107f2a:	681a      	ldr	r2, [r3, #0]
  107f2c:	07d0      	lsls	r0, r2, #31
  107f2e:	bf5c      	itt	pl
  107f30:	2201      	movpl	r2, #1
  107f32:	601a      	strpl	r2, [r3, #0]
  107f34:	4b16      	ldr	r3, [pc, #88]	; (107f90 <_GLOBAL__sub_I__ZNSt12ctype_bynameIwEC2ERKSsj+0xb0>)
  107f36:	681a      	ldr	r2, [r3, #0]
  107f38:	07d1      	lsls	r1, r2, #31
  107f3a:	bf5c      	itt	pl
  107f3c:	2201      	movpl	r2, #1
  107f3e:	601a      	strpl	r2, [r3, #0]
  107f40:	4b14      	ldr	r3, [pc, #80]	; (107f94 <_GLOBAL__sub_I__ZNSt12ctype_bynameIwEC2ERKSsj+0xb4>)
  107f42:	681a      	ldr	r2, [r3, #0]
  107f44:	07d2      	lsls	r2, r2, #31
  107f46:	bf5c      	itt	pl
  107f48:	2201      	movpl	r2, #1
  107f4a:	601a      	strpl	r2, [r3, #0]
  107f4c:	4b12      	ldr	r3, [pc, #72]	; (107f98 <_GLOBAL__sub_I__ZNSt12ctype_bynameIwEC2ERKSsj+0xb8>)
  107f4e:	681a      	ldr	r2, [r3, #0]
  107f50:	07d0      	lsls	r0, r2, #31
  107f52:	bf5c      	itt	pl
  107f54:	2201      	movpl	r2, #1
  107f56:	601a      	strpl	r2, [r3, #0]
  107f58:	4b10      	ldr	r3, [pc, #64]	; (107f9c <_GLOBAL__sub_I__ZNSt12ctype_bynameIwEC2ERKSsj+0xbc>)
  107f5a:	681a      	ldr	r2, [r3, #0]
  107f5c:	07d1      	lsls	r1, r2, #31
  107f5e:	bf5c      	itt	pl
  107f60:	2201      	movpl	r2, #1
  107f62:	601a      	strpl	r2, [r3, #0]
  107f64:	4b0e      	ldr	r3, [pc, #56]	; (107fa0 <_GLOBAL__sub_I__ZNSt12ctype_bynameIwEC2ERKSsj+0xc0>)
  107f66:	681a      	ldr	r2, [r3, #0]
  107f68:	07d2      	lsls	r2, r2, #31
  107f6a:	bf5c      	itt	pl
  107f6c:	2201      	movpl	r2, #1
  107f6e:	601a      	strpl	r2, [r3, #0]
  107f70:	4770      	bx	lr
  107f72:	bf00      	nop
  107f74:	3fff4788 	.word	0x3fff4788
  107f78:	3fff4784 	.word	0x3fff4784
  107f7c:	3fff4780 	.word	0x3fff4780
  107f80:	3fff477c 	.word	0x3fff477c
  107f84:	3fff4778 	.word	0x3fff4778
  107f88:	3fff4774 	.word	0x3fff4774
  107f8c:	3fff4770 	.word	0x3fff4770
  107f90:	3fff476c 	.word	0x3fff476c
  107f94:	3fff4768 	.word	0x3fff4768
  107f98:	3fff4764 	.word	0x3fff4764
  107f9c:	3fff4760 	.word	0x3fff4760
  107fa0:	3fff475c 	.word	0x3fff475c

00107fa4 <_GLOBAL__sub_I__ZNSt12ctype_bynameIwEC2ERKNSt7__cxx1112basic_stringIcSt11char_traitsIcESaIcEEEj>:
  107fa4:	4b18      	ldr	r3, [pc, #96]	; (108008 <_GLOBAL__sub_I__ZNSt12ctype_bynameIwEC2ERKNSt7__cxx1112basic_stringIcSt11char_traitsIcESaIcEEEj+0x64>)
  107fa6:	681a      	ldr	r2, [r3, #0]
  107fa8:	07d1      	lsls	r1, r2, #31
  107faa:	bf5c      	itt	pl
  107fac:	2201      	movpl	r2, #1
  107fae:	601a      	strpl	r2, [r3, #0]
  107fb0:	4b16      	ldr	r3, [pc, #88]	; (10800c <_GLOBAL__sub_I__ZNSt12ctype_bynameIwEC2ERKNSt7__cxx1112basic_stringIcSt11char_traitsIcESaIcEEEj+0x68>)
  107fb2:	681a      	ldr	r2, [r3, #0]
  107fb4:	07d2      	lsls	r2, r2, #31
  107fb6:	bf5c      	itt	pl
  107fb8:	2201      	movpl	r2, #1
  107fba:	601a      	strpl	r2, [r3, #0]
  107fbc:	4b14      	ldr	r3, [pc, #80]	; (108010 <_GLOBAL__sub_I__ZNSt12ctype_bynameIwEC2ERKNSt7__cxx1112basic_stringIcSt11char_traitsIcESaIcEEEj+0x6c>)
  107fbe:	681a      	ldr	r2, [r3, #0]
  107fc0:	07d0      	lsls	r0, r2, #31
  107fc2:	bf5c      	itt	pl
  107fc4:	2201      	movpl	r2, #1
  107fc6:	601a      	strpl	r2, [r3, #0]
  107fc8:	4b12      	ldr	r3, [pc, #72]	; (108014 <_GLOBAL__sub_I__ZNSt12ctype_bynameIwEC2ERKNSt7__cxx1112basic_stringIcSt11char_traitsIcESaIcEEEj+0x70>)
  107fca:	681a      	ldr	r2, [r3, #0]
  107fcc:	07d1      	lsls	r1, r2, #31
  107fce:	bf5c      	itt	pl
  107fd0:	2201      	movpl	r2, #1
  107fd2:	601a      	strpl	r2, [r3, #0]
  107fd4:	4b10      	ldr	r3, [pc, #64]	; (108018 <_GLOBAL__sub_I__ZNSt12ctype_bynameIwEC2ERKNSt7__cxx1112basic_stringIcSt11char_traitsIcESaIcEEEj+0x74>)
  107fd6:	681a      	ldr	r2, [r3, #0]
  107fd8:	07d2      	lsls	r2, r2, #31
  107fda:	bf5c      	itt	pl
  107fdc:	2201      	movpl	r2, #1
  107fde:	601a      	strpl	r2, [r3, #0]
  107fe0:	4b0e      	ldr	r3, [pc, #56]	; (10801c <_GLOBAL__sub_I__ZNSt12ctype_bynameIwEC2ERKNSt7__cxx1112basic_stringIcSt11char_traitsIcESaIcEEEj+0x78>)
  107fe2:	681a      	ldr	r2, [r3, #0]
  107fe4:	07d0      	lsls	r0, r2, #31
  107fe6:	bf5c      	itt	pl
  107fe8:	2201      	movpl	r2, #1
  107fea:	601a      	strpl	r2, [r3, #0]
  107fec:	4b0c      	ldr	r3, [pc, #48]	; (108020 <_GLOBAL__sub_I__ZNSt12ctype_bynameIwEC2ERKNSt7__cxx1112basic_stringIcSt11char_traitsIcESaIcEEEj+0x7c>)
  107fee:	681a      	ldr	r2, [r3, #0]
  107ff0:	07d1      	lsls	r1, r2, #31
  107ff2:	bf5c      	itt	pl
  107ff4:	2201      	movpl	r2, #1
  107ff6:	601a      	strpl	r2, [r3, #0]
  107ff8:	4b0a      	ldr	r3, [pc, #40]	; (108024 <_GLOBAL__sub_I__ZNSt12ctype_bynameIwEC2ERKNSt7__cxx1112basic_stringIcSt11char_traitsIcESaIcEEEj+0x80>)
  107ffa:	681a      	ldr	r2, [r3, #0]
  107ffc:	07d2      	lsls	r2, r2, #31
  107ffe:	bf5c      	itt	pl
  108000:	2201      	movpl	r2, #1
  108002:	601a      	strpl	r2, [r3, #0]
  108004:	4770      	bx	lr
  108006:	bf00      	nop
  108008:	3fff47a8 	.word	0x3fff47a8
  10800c:	3fff47a4 	.word	0x3fff47a4
  108010:	3fff47a0 	.word	0x3fff47a0
  108014:	3fff479c 	.word	0x3fff479c
  108018:	3fff4798 	.word	0x3fff4798
  10801c:	3fff4794 	.word	0x3fff4794
  108020:	3fff4790 	.word	0x3fff4790
  108024:	3fff478c 	.word	0x3fff478c

00108028 <__aeabi_drsub>:
  108028:	f081 4100 	eor.w	r1, r1, #2147483648	; 0x80000000
  10802c:	e002      	b.n	108034 <__adddf3>
  10802e:	bf00      	nop

00108030 <__aeabi_dsub>:
  108030:	f083 4300 	eor.w	r3, r3, #2147483648	; 0x80000000

00108034 <__adddf3>:
  108034:	b530      	push	{r4, r5, lr}
  108036:	ea4f 0441 	mov.w	r4, r1, lsl #1
  10803a:	ea4f 0543 	mov.w	r5, r3, lsl #1
  10803e:	ea94 0f05 	teq	r4, r5
  108042:	bf08      	it	eq
  108044:	ea90 0f02 	teqeq	r0, r2
  108048:	bf1f      	itttt	ne
  10804a:	ea54 0c00 	orrsne.w	r12, r4, r0
  10804e:	ea55 0c02 	orrsne.w	r12, r5, r2
  108052:	ea7f 5c64 	mvnsne.w	r12, r4, asr #21
  108056:	ea7f 5c65 	mvnsne.w	r12, r5, asr #21
  10805a:	f000 80e2 	beq.w	108222 <__adddf3+0x1ee>
  10805e:	ea4f 5454 	mov.w	r4, r4, lsr #21
  108062:	ebd4 5555 	rsbs	r5, r4, r5, lsr #21
  108066:	bfb8      	it	lt
  108068:	426d      	neglt	r5, r5
  10806a:	dd0c      	ble.n	108086 <__adddf3+0x52>
  10806c:	442c      	add	r4, r5
  10806e:	ea80 0202 	eor.w	r2, r0, r2
  108072:	ea81 0303 	eor.w	r3, r1, r3
  108076:	ea82 0000 	eor.w	r0, r2, r0
  10807a:	ea83 0101 	eor.w	r1, r3, r1
  10807e:	ea80 0202 	eor.w	r2, r0, r2
  108082:	ea81 0303 	eor.w	r3, r1, r3
  108086:	2d36      	cmp	r5, #54	; 0x36
  108088:	bf88      	it	hi
  10808a:	bd30      	pophi	{r4, r5, pc}
  10808c:	f011 4f00 	tst.w	r1, #2147483648	; 0x80000000
  108090:	ea4f 3101 	mov.w	r1, r1, lsl #12
  108094:	f44f 1c80 	mov.w	r12, #1048576	; 0x100000
  108098:	ea4c 3111 	orr.w	r1, r12, r1, lsr #12
  10809c:	d002      	beq.n	1080a4 <__adddf3+0x70>
  10809e:	4240      	negs	r0, r0
  1080a0:	eb61 0141 	sbc.w	r1, r1, r1, lsl #1
  1080a4:	f013 4f00 	tst.w	r3, #2147483648	; 0x80000000
  1080a8:	ea4f 3303 	mov.w	r3, r3, lsl #12
  1080ac:	ea4c 3313 	orr.w	r3, r12, r3, lsr #12
  1080b0:	d002      	beq.n	1080b8 <__adddf3+0x84>
  1080b2:	4252      	negs	r2, r2
  1080b4:	eb63 0343 	sbc.w	r3, r3, r3, lsl #1
  1080b8:	ea94 0f05 	teq	r4, r5
  1080bc:	f000 80a7 	beq.w	10820e <__adddf3+0x1da>
  1080c0:	f1a4 0401 	sub.w	r4, r4, #1
  1080c4:	f1d5 0e20 	rsbs	lr, r5, #32
  1080c8:	db0d      	blt.n	1080e6 <__adddf3+0xb2>
  1080ca:	fa02 fc0e 	lsl.w	r12, r2, lr
  1080ce:	fa22 f205 	lsr.w	r2, r2, r5
  1080d2:	1880      	adds	r0, r0, r2
  1080d4:	f141 0100 	adc.w	r1, r1, #0
  1080d8:	fa03 f20e 	lsl.w	r2, r3, lr
  1080dc:	1880      	adds	r0, r0, r2
  1080de:	fa43 f305 	asr.w	r3, r3, r5
  1080e2:	4159      	adcs	r1, r3
  1080e4:	e00e      	b.n	108104 <__adddf3+0xd0>
  1080e6:	f1a5 0520 	sub.w	r5, r5, #32
  1080ea:	f10e 0e20 	add.w	lr, lr, #32
  1080ee:	2a01      	cmp	r2, #1
  1080f0:	fa03 fc0e 	lsl.w	r12, r3, lr
  1080f4:	bf28      	it	cs
  1080f6:	f04c 0c02 	orrcs.w	r12, r12, #2
  1080fa:	fa43 f305 	asr.w	r3, r3, r5
  1080fe:	18c0      	adds	r0, r0, r3
  108100:	eb51 71e3 	adcs.w	r1, r1, r3, asr #31
  108104:	f001 4500 	and.w	r5, r1, #2147483648	; 0x80000000
  108108:	d507      	bpl.n	10811a <__adddf3+0xe6>
  10810a:	f04f 0e00 	mov.w	lr, #0
  10810e:	f1dc 0c00 	rsbs	r12, r12, #0
  108112:	eb7e 0000 	sbcs.w	r0, lr, r0
  108116:	eb6e 0101 	sbc.w	r1, lr, r1
  10811a:	f5b1 1f80 	cmp.w	r1, #1048576	; 0x100000
  10811e:	d31b      	bcc.n	108158 <__adddf3+0x124>
  108120:	f5b1 1f00 	cmp.w	r1, #2097152	; 0x200000
  108124:	d30c      	bcc.n	108140 <__adddf3+0x10c>
  108126:	0849      	lsrs	r1, r1, #1
  108128:	ea5f 0030 	movs.w	r0, r0, rrx
  10812c:	ea4f 0c3c 	mov.w	r12, r12, rrx
  108130:	f104 0401 	add.w	r4, r4, #1
  108134:	ea4f 5244 	mov.w	r2, r4, lsl #21
  108138:	f512 0f80 	cmn.w	r2, #4194304	; 0x400000
  10813c:	f080 809a 	bcs.w	108274 <__adddf3+0x240>
  108140:	f1bc 4f00 	cmp.w	r12, #2147483648	; 0x80000000
  108144:	bf08      	it	eq
  108146:	ea5f 0c50 	movseq.w	r12, r0, lsr #1
  10814a:	f150 0000 	adcs.w	r0, r0, #0
  10814e:	eb41 5104 	adc.w	r1, r1, r4, lsl #20
  108152:	ea41 0105 	orr.w	r1, r1, r5
  108156:	bd30      	pop	{r4, r5, pc}
  108158:	ea5f 0c4c 	movs.w	r12, r12, lsl #1
  10815c:	4140      	adcs	r0, r0
  10815e:	eb41 0101 	adc.w	r1, r1, r1
  108162:	f411 1f80 	tst.w	r1, #1048576	; 0x100000
  108166:	f1a4 0401 	sub.w	r4, r4, #1
  10816a:	d1e9      	bne.n	108140 <__adddf3+0x10c>
  10816c:	f091 0f00 	teq	r1, #0
  108170:	bf04      	itt	eq
  108172:	4601      	moveq	r1, r0
  108174:	2000      	moveq	r0, #0
  108176:	fab1 f381 	clz	r3, r1
  10817a:	bf08      	it	eq
  10817c:	3320      	addeq	r3, #32
  10817e:	f1a3 030b 	sub.w	r3, r3, #11
  108182:	f1b3 0220 	subs.w	r2, r3, #32
  108186:	da0c      	bge.n	1081a2 <__adddf3+0x16e>
  108188:	320c      	adds	r2, #12
  10818a:	dd08      	ble.n	10819e <__adddf3+0x16a>
  10818c:	f102 0c14 	add.w	r12, r2, #20
  108190:	f1c2 020c 	rsb	r2, r2, #12
  108194:	fa01 f00c 	lsl.w	r0, r1, r12
  108198:	fa21 f102 	lsr.w	r1, r1, r2
  10819c:	e00c      	b.n	1081b8 <__adddf3+0x184>
  10819e:	f102 0214 	add.w	r2, r2, #20
  1081a2:	bfd8      	it	le
  1081a4:	f1c2 0c20 	rsble	r12, r2, #32
  1081a8:	fa01 f102 	lsl.w	r1, r1, r2
  1081ac:	fa20 fc0c 	lsr.w	r12, r0, r12
  1081b0:	bfdc      	itt	le
  1081b2:	ea41 010c 	orrle.w	r1, r1, r12
  1081b6:	4090      	lslle	r0, r2
  1081b8:	1ae4      	subs	r4, r4, r3
  1081ba:	bfa2      	ittt	ge
  1081bc:	eb01 5104 	addge.w	r1, r1, r4, lsl #20
  1081c0:	4329      	orrge	r1, r5
  1081c2:	bd30      	popge	{r4, r5, pc}
  1081c4:	ea6f 0404 	mvn.w	r4, r4
  1081c8:	3c1f      	subs	r4, #31
  1081ca:	da1c      	bge.n	108206 <__adddf3+0x1d2>
  1081cc:	340c      	adds	r4, #12
  1081ce:	dc0e      	bgt.n	1081ee <__adddf3+0x1ba>
  1081d0:	f104 0414 	add.w	r4, r4, #20
  1081d4:	f1c4 0220 	rsb	r2, r4, #32
  1081d8:	fa20 f004 	lsr.w	r0, r0, r4
  1081dc:	fa01 f302 	lsl.w	r3, r1, r2
  1081e0:	ea40 0003 	orr.w	r0, r0, r3
  1081e4:	fa21 f304 	lsr.w	r3, r1, r4
  1081e8:	ea45 0103 	orr.w	r1, r5, r3
  1081ec:	bd30      	pop	{r4, r5, pc}
  1081ee:	f1c4 040c 	rsb	r4, r4, #12
  1081f2:	f1c4 0220 	rsb	r2, r4, #32
  1081f6:	fa20 f002 	lsr.w	r0, r0, r2
  1081fa:	fa01 f304 	lsl.w	r3, r1, r4
  1081fe:	ea40 0003 	orr.w	r0, r0, r3
  108202:	4629      	mov	r1, r5
  108204:	bd30      	pop	{r4, r5, pc}
  108206:	fa21 f004 	lsr.w	r0, r1, r4
  10820a:	4629      	mov	r1, r5
  10820c:	bd30      	pop	{r4, r5, pc}
  10820e:	f094 0f00 	teq	r4, #0
  108212:	f483 1380 	eor.w	r3, r3, #1048576	; 0x100000
  108216:	bf06      	itte	eq
  108218:	f481 1180 	eoreq.w	r1, r1, #1048576	; 0x100000
  10821c:	3401      	addeq	r4, #1
  10821e:	3d01      	subne	r5, #1
  108220:	e74e      	b.n	1080c0 <__adddf3+0x8c>
  108222:	ea7f 5c64 	mvns.w	r12, r4, asr #21
  108226:	bf18      	it	ne
  108228:	ea7f 5c65 	mvnsne.w	r12, r5, asr #21
  10822c:	d029      	beq.n	108282 <__adddf3+0x24e>
  10822e:	ea94 0f05 	teq	r4, r5
  108232:	bf08      	it	eq
  108234:	ea90 0f02 	teqeq	r0, r2
  108238:	d005      	beq.n	108246 <__adddf3+0x212>
  10823a:	ea54 0c00 	orrs.w	r12, r4, r0
  10823e:	bf04      	itt	eq
  108240:	4619      	moveq	r1, r3
  108242:	4610      	moveq	r0, r2
  108244:	bd30      	pop	{r4, r5, pc}
  108246:	ea91 0f03 	teq	r1, r3
  10824a:	bf1e      	ittt	ne
  10824c:	2100      	movne	r1, #0
  10824e:	2000      	movne	r0, #0
  108250:	bd30      	popne	{r4, r5, pc}
  108252:	ea5f 5c54 	movs.w	r12, r4, lsr #21
  108256:	d105      	bne.n	108264 <__adddf3+0x230>
  108258:	0040      	lsls	r0, r0, #1
  10825a:	4149      	adcs	r1, r1
  10825c:	bf28      	it	cs
  10825e:	f041 4100 	orrcs.w	r1, r1, #2147483648	; 0x80000000
  108262:	bd30      	pop	{r4, r5, pc}
  108264:	f514 0480 	adds.w	r4, r4, #4194304	; 0x400000
  108268:	bf3c      	itt	cc
  10826a:	f501 1180 	addcc.w	r1, r1, #1048576	; 0x100000
  10826e:	bd30      	popcc	{r4, r5, pc}
  108270:	f001 4500 	and.w	r5, r1, #2147483648	; 0x80000000
  108274:	f045 41fe 	orr.w	r1, r5, #2130706432	; 0x7f000000
  108278:	f441 0170 	orr.w	r1, r1, #15728640	; 0xf00000
  10827c:	f04f 0000 	mov.w	r0, #0
  108280:	bd30      	pop	{r4, r5, pc}
  108282:	ea7f 5c64 	mvns.w	r12, r4, asr #21
  108286:	bf1a      	itte	ne
  108288:	4619      	movne	r1, r3
  10828a:	4610      	movne	r0, r2
  10828c:	ea7f 5c65 	mvnseq.w	r12, r5, asr #21
  108290:	bf1c      	itt	ne
  108292:	460b      	movne	r3, r1
  108294:	4602      	movne	r2, r0
  108296:	ea50 3401 	orrs.w	r4, r0, r1, lsl #12
  10829a:	bf06      	itte	eq
  10829c:	ea52 3503 	orrseq.w	r5, r2, r3, lsl #12
  1082a0:	ea91 0f03 	teqeq	r1, r3
  1082a4:	f441 2100 	orrne.w	r1, r1, #524288	; 0x80000
  1082a8:	bd30      	pop	{r4, r5, pc}
  1082aa:	bf00      	nop

001082ac <__aeabi_ui2d>:
  1082ac:	f090 0f00 	teq	r0, #0
  1082b0:	bf04      	itt	eq
  1082b2:	2100      	moveq	r1, #0
  1082b4:	4770      	bxeq	lr
  1082b6:	b530      	push	{r4, r5, lr}
  1082b8:	f44f 6480 	mov.w	r4, #1024	; 0x400
  1082bc:	f104 0432 	add.w	r4, r4, #50	; 0x32
  1082c0:	f04f 0500 	mov.w	r5, #0
  1082c4:	f04f 0100 	mov.w	r1, #0
  1082c8:	e750      	b.n	10816c <__adddf3+0x138>
  1082ca:	bf00      	nop

001082cc <__aeabi_i2d>:
  1082cc:	f090 0f00 	teq	r0, #0
  1082d0:	bf04      	itt	eq
  1082d2:	2100      	moveq	r1, #0
  1082d4:	4770      	bxeq	lr
  1082d6:	b530      	push	{r4, r5, lr}
  1082d8:	f44f 6480 	mov.w	r4, #1024	; 0x400
  1082dc:	f104 0432 	add.w	r4, r4, #50	; 0x32
  1082e0:	f010 4500 	ands.w	r5, r0, #2147483648	; 0x80000000
  1082e4:	bf48      	it	mi
  1082e6:	4240      	negmi	r0, r0
  1082e8:	f04f 0100 	mov.w	r1, #0
  1082ec:	e73e      	b.n	10816c <__adddf3+0x138>
  1082ee:	bf00      	nop

001082f0 <__aeabi_f2d>:
  1082f0:	0042      	lsls	r2, r0, #1
  1082f2:	ea4f 01e2 	mov.w	r1, r2, asr #3
  1082f6:	ea4f 0131 	mov.w	r1, r1, rrx
  1082fa:	ea4f 7002 	mov.w	r0, r2, lsl #28
  1082fe:	bf1f      	itttt	ne
  108300:	f012 437f 	andsne.w	r3, r2, #4278190080	; 0xff000000
  108304:	f093 4f7f 	teqne	r3, #4278190080	; 0xff000000
  108308:	f081 5160 	eorne.w	r1, r1, #939524096	; 0x38000000
  10830c:	4770      	bxne	lr
  10830e:	f092 0f00 	teq	r2, #0
  108312:	bf14      	ite	ne
  108314:	f093 4f7f 	teqne	r3, #4278190080	; 0xff000000
  108318:	4770      	bxeq	lr
  10831a:	b530      	push	{r4, r5, lr}
  10831c:	f44f 7460 	mov.w	r4, #896	; 0x380
  108320:	f001 4500 	and.w	r5, r1, #2147483648	; 0x80000000
  108324:	f021 4100 	bic.w	r1, r1, #2147483648	; 0x80000000
  108328:	e720      	b.n	10816c <__adddf3+0x138>
  10832a:	bf00      	nop

0010832c <__aeabi_ul2d>:
  10832c:	ea50 0201 	orrs.w	r2, r0, r1
  108330:	bf08      	it	eq
  108332:	4770      	bxeq	lr
  108334:	b530      	push	{r4, r5, lr}
  108336:	f04f 0500 	mov.w	r5, #0
  10833a:	e00a      	b.n	108352 <__aeabi_l2d+0x16>

0010833c <__aeabi_l2d>:
  10833c:	ea50 0201 	orrs.w	r2, r0, r1
  108340:	bf08      	it	eq
  108342:	4770      	bxeq	lr
  108344:	b530      	push	{r4, r5, lr}
  108346:	f011 4500 	ands.w	r5, r1, #2147483648	; 0x80000000
  10834a:	d502      	bpl.n	108352 <__aeabi_l2d+0x16>
  10834c:	4240      	negs	r0, r0
  10834e:	eb61 0141 	sbc.w	r1, r1, r1, lsl #1
  108352:	f44f 6480 	mov.w	r4, #1024	; 0x400
  108356:	f104 0432 	add.w	r4, r4, #50	; 0x32
  10835a:	ea5f 5c91 	movs.w	r12, r1, lsr #22
  10835e:	f43f aedc 	beq.w	10811a <__adddf3+0xe6>
  108362:	f04f 0203 	mov.w	r2, #3
  108366:	ea5f 0cdc 	movs.w	r12, r12, lsr #3
  10836a:	bf18      	it	ne
  10836c:	3203      	addne	r2, #3
  10836e:	ea5f 0cdc 	movs.w	r12, r12, lsr #3
  108372:	bf18      	it	ne
  108374:	3203      	addne	r2, #3
  108376:	eb02 02dc 	add.w	r2, r2, r12, lsr #3
  10837a:	f1c2 0320 	rsb	r3, r2, #32
  10837e:	fa00 fc03 	lsl.w	r12, r0, r3
  108382:	fa20 f002 	lsr.w	r0, r0, r2
  108386:	fa01 fe03 	lsl.w	lr, r1, r3
  10838a:	ea40 000e 	orr.w	r0, r0, lr
  10838e:	fa21 f102 	lsr.w	r1, r1, r2
  108392:	4414      	add	r4, r2
  108394:	e6c1      	b.n	10811a <__adddf3+0xe6>
  108396:	bf00      	nop

00108398 <__gedf2>:
  108398:	f04f 3cff 	mov.w	r12, #4294967295
  10839c:	e006      	b.n	1083ac <__cmpdf2+0x4>
  10839e:	bf00      	nop

001083a0 <__ledf2>:
  1083a0:	f04f 0c01 	mov.w	r12, #1
  1083a4:	e002      	b.n	1083ac <__cmpdf2+0x4>
  1083a6:	bf00      	nop

001083a8 <__cmpdf2>:
  1083a8:	f04f 0c01 	mov.w	r12, #1
  1083ac:	f84d cd04 	str.w	r12, [sp, #-4]!
  1083b0:	ea4f 0c41 	mov.w	r12, r1, lsl #1
  1083b4:	ea7f 5c6c 	mvns.w	r12, r12, asr #21
  1083b8:	ea4f 0c43 	mov.w	r12, r3, lsl #1
  1083bc:	bf18      	it	ne
  1083be:	ea7f 5c6c 	mvnsne.w	r12, r12, asr #21
  1083c2:	d01b      	beq.n	1083fc <__cmpdf2+0x54>
  1083c4:	b001      	add	sp, #4
  1083c6:	ea50 0c41 	orrs.w	r12, r0, r1, lsl #1
  1083ca:	bf0c      	ite	eq
  1083cc:	ea52 0c43 	orrseq.w	r12, r2, r3, lsl #1
  1083d0:	ea91 0f03 	teqne	r1, r3
  1083d4:	bf02      	ittt	eq
  1083d6:	ea90 0f02 	teqeq	r0, r2
  1083da:	2000      	moveq	r0, #0
  1083dc:	4770      	bxeq	lr
  1083de:	f110 0f00 	cmn.w	r0, #0
  1083e2:	ea91 0f03 	teq	r1, r3
  1083e6:	bf58      	it	pl
  1083e8:	4299      	cmppl	r1, r3
  1083ea:	bf08      	it	eq
  1083ec:	4290      	cmpeq	r0, r2
  1083ee:	bf2c      	ite	cs
  1083f0:	17d8      	asrcs	r0, r3, #31
  1083f2:	ea6f 70e3 	mvncc.w	r0, r3, asr #31
  1083f6:	f040 0001 	orr.w	r0, r0, #1
  1083fa:	4770      	bx	lr
  1083fc:	ea4f 0c41 	mov.w	r12, r1, lsl #1
  108400:	ea7f 5c6c 	mvns.w	r12, r12, asr #21
  108404:	d102      	bne.n	10840c <__cmpdf2+0x64>
  108406:	ea50 3c01 	orrs.w	r12, r0, r1, lsl #12
  10840a:	d107      	bne.n	10841c <__cmpdf2+0x74>
  10840c:	ea4f 0c43 	mov.w	r12, r3, lsl #1
  108410:	ea7f 5c6c 	mvns.w	r12, r12, asr #21
  108414:	d1d6      	bne.n	1083c4 <__cmpdf2+0x1c>
  108416:	ea52 3c03 	orrs.w	r12, r2, r3, lsl #12
  10841a:	d0d3      	beq.n	1083c4 <__cmpdf2+0x1c>
  10841c:	f85d 0b04 	ldr.w	r0, [sp], #4
  108420:	4770      	bx	lr
  108422:	bf00      	nop

00108424 <__aeabi_cdrcmple>:
  108424:	4684      	mov	r12, r0
  108426:	4610      	mov	r0, r2
  108428:	4662      	mov	r2, r12
  10842a:	468c      	mov	r12, r1
  10842c:	4619      	mov	r1, r3
  10842e:	4663      	mov	r3, r12
  108430:	e000      	b.n	108434 <__aeabi_cdcmpeq>
  108432:	bf00      	nop

00108434 <__aeabi_cdcmpeq>:
  108434:	b501      	push	{r0, lr}
  108436:	f7ff ffb7 	bl	1083a8 <__cmpdf2>
  10843a:	2800      	cmp	r0, #0
  10843c:	bf48      	it	mi
  10843e:	f110 0f00 	cmnmi.w	r0, #0
  108442:	bd01      	pop	{r0, pc}

00108444 <__aeabi_dcmpeq>:
  108444:	f84d ed08 	str.w	lr, [sp, #-8]!
  108448:	f7ff fff4 	bl	108434 <__aeabi_cdcmpeq>
  10844c:	bf0c      	ite	eq
  10844e:	2001      	moveq	r0, #1
  108450:	2000      	movne	r0, #0
  108452:	f85d fb08 	ldr.w	pc, [sp], #8
  108456:	bf00      	nop

00108458 <__aeabi_dcmplt>:
  108458:	f84d ed08 	str.w	lr, [sp, #-8]!
  10845c:	f7ff ffea 	bl	108434 <__aeabi_cdcmpeq>
  108460:	bf34      	ite	cc
  108462:	2001      	movcc	r0, #1
  108464:	2000      	movcs	r0, #0
  108466:	f85d fb08 	ldr.w	pc, [sp], #8
  10846a:	bf00      	nop

0010846c <__aeabi_dcmple>:
  10846c:	f84d ed08 	str.w	lr, [sp, #-8]!
  108470:	f7ff ffe0 	bl	108434 <__aeabi_cdcmpeq>
  108474:	bf94      	ite	ls
  108476:	2001      	movls	r0, #1
  108478:	2000      	movhi	r0, #0
  10847a:	f85d fb08 	ldr.w	pc, [sp], #8
  10847e:	bf00      	nop

00108480 <__aeabi_dcmpge>:
  108480:	f84d ed08 	str.w	lr, [sp, #-8]!
  108484:	f7ff ffce 	bl	108424 <__aeabi_cdrcmple>
  108488:	bf94      	ite	ls
  10848a:	2001      	movls	r0, #1
  10848c:	2000      	movhi	r0, #0
  10848e:	f85d fb08 	ldr.w	pc, [sp], #8
  108492:	bf00      	nop

00108494 <__aeabi_dcmpgt>:
  108494:	f84d ed08 	str.w	lr, [sp, #-8]!
  108498:	f7ff ffc4 	bl	108424 <__aeabi_cdrcmple>
  10849c:	bf34      	ite	cc
  10849e:	2001      	movcc	r0, #1
  1084a0:	2000      	movcs	r0, #0
  1084a2:	f85d fb08 	ldr.w	pc, [sp], #8
  1084a6:	bf00      	nop

001084a8 <__aeabi_fmul>:
  1084a8:	f04f 0cff 	mov.w	r12, #255	; 0xff
  1084ac:	ea1c 52d0 	ands.w	r2, r12, r0, lsr #23
  1084b0:	bf1e      	ittt	ne
  1084b2:	ea1c 53d1 	andsne.w	r3, r12, r1, lsr #23
  1084b6:	ea92 0f0c 	teqne	r2, r12
  1084ba:	ea93 0f0c 	teqne	r3, r12
  1084be:	d06f      	beq.n	1085a0 <__aeabi_fmul+0xf8>
  1084c0:	441a      	add	r2, r3
  1084c2:	ea80 0c01 	eor.w	r12, r0, r1
  1084c6:	0240      	lsls	r0, r0, #9
  1084c8:	bf18      	it	ne
  1084ca:	ea5f 2141 	movsne.w	r1, r1, lsl #9
  1084ce:	d01e      	beq.n	10850e <__aeabi_fmul+0x66>
  1084d0:	f04f 6300 	mov.w	r3, #134217728	; 0x8000000
  1084d4:	ea43 1050 	orr.w	r0, r3, r0, lsr #5
  1084d8:	ea43 1151 	orr.w	r1, r3, r1, lsr #5
  1084dc:	fba0 3101 	umull	r3, r1, r0, r1
  1084e0:	f00c 4000 	and.w	r0, r12, #2147483648	; 0x80000000
  1084e4:	f5b1 0f00 	cmp.w	r1, #8388608	; 0x800000
  1084e8:	bf3e      	ittt	cc
  1084ea:	0049      	lslcc	r1, r1, #1
  1084ec:	ea41 71d3 	orrcc.w	r1, r1, r3, lsr #31
  1084f0:	005b      	lslcc	r3, r3, #1
  1084f2:	ea40 0001 	orr.w	r0, r0, r1
  1084f6:	f162 027f 	sbc.w	r2, r2, #127	; 0x7f
  1084fa:	2afd      	cmp	r2, #253	; 0xfd
  1084fc:	d81d      	bhi.n	10853a <__aeabi_fmul+0x92>
  1084fe:	f1b3 4f00 	cmp.w	r3, #2147483648	; 0x80000000
  108502:	eb40 50c2 	adc.w	r0, r0, r2, lsl #23
  108506:	bf08      	it	eq
  108508:	f020 0001 	biceq.w	r0, r0, #1
  10850c:	4770      	bx	lr
  10850e:	f090 0f00 	teq	r0, #0
  108512:	f00c 4c00 	and.w	r12, r12, #2147483648	; 0x80000000
  108516:	bf08      	it	eq
  108518:	0249      	lsleq	r1, r1, #9
  10851a:	ea4c 2050 	orr.w	r0, r12, r0, lsr #9
  10851e:	ea40 2051 	orr.w	r0, r0, r1, lsr #9
  108522:	3a7f      	subs	r2, #127	; 0x7f
  108524:	bfc2      	ittt	gt
  108526:	f1d2 03ff 	rsbsgt	r3, r2, #255	; 0xff
  10852a:	ea40 50c2 	orrgt.w	r0, r0, r2, lsl #23
  10852e:	4770      	bxgt	lr
  108530:	f440 0000 	orr.w	r0, r0, #8388608	; 0x800000
  108534:	f04f 0300 	mov.w	r3, #0
  108538:	3a01      	subs	r2, #1
  10853a:	dc5d      	bgt.n	1085f8 <__aeabi_fmul+0x150>
  10853c:	f112 0f19 	cmn.w	r2, #25
  108540:	bfdc      	itt	le
  108542:	f000 4000 	andle.w	r0, r0, #2147483648	; 0x80000000
  108546:	4770      	bxle	lr
  108548:	f1c2 0200 	rsb	r2, r2, #0
  10854c:	0041      	lsls	r1, r0, #1
  10854e:	fa21 f102 	lsr.w	r1, r1, r2
  108552:	f1c2 0220 	rsb	r2, r2, #32
  108556:	fa00 fc02 	lsl.w	r12, r0, r2
  10855a:	ea5f 0031 	movs.w	r0, r1, rrx
  10855e:	f140 0000 	adc.w	r0, r0, #0
  108562:	ea53 034c 	orrs.w	r3, r3, r12, lsl #1
  108566:	bf08      	it	eq
  108568:	ea20 70dc 	biceq.w	r0, r0, r12, lsr #31
  10856c:	4770      	bx	lr
  10856e:	f092 0f00 	teq	r2, #0
  108572:	f000 4c00 	and.w	r12, r0, #2147483648	; 0x80000000
  108576:	bf02      	ittt	eq
  108578:	0040      	lsleq	r0, r0, #1
  10857a:	f410 0f00 	tsteq.w	r0, #8388608	; 0x800000
  10857e:	3a01      	subeq	r2, #1
  108580:	d0f9      	beq.n	108576 <__aeabi_fmul+0xce>
  108582:	ea40 000c 	orr.w	r0, r0, r12
  108586:	f093 0f00 	teq	r3, #0
  10858a:	f001 4c00 	and.w	r12, r1, #2147483648	; 0x80000000
  10858e:	bf02      	ittt	eq
  108590:	0049      	lsleq	r1, r1, #1
  108592:	f411 0f00 	tsteq.w	r1, #8388608	; 0x800000
  108596:	3b01      	subeq	r3, #1
  108598:	d0f9      	beq.n	10858e <__aeabi_fmul+0xe6>
  10859a:	ea41 010c 	orr.w	r1, r1, r12
  10859e:	e78f      	b.n	1084c0 <__aeabi_fmul+0x18>
  1085a0:	ea0c 53d1 	and.w	r3, r12, r1, lsr #23
  1085a4:	ea92 0f0c 	teq	r2, r12
  1085a8:	bf18      	it	ne
  1085aa:	ea93 0f0c 	teqne	r3, r12
  1085ae:	d00a      	beq.n	1085c6 <__aeabi_fmul+0x11e>
  1085b0:	f030 4c00 	bics.w	r12, r0, #2147483648	; 0x80000000
  1085b4:	bf18      	it	ne
  1085b6:	f031 4c00 	bicsne.w	r12, r1, #2147483648	; 0x80000000
  1085ba:	d1d8      	bne.n	10856e <__aeabi_fmul+0xc6>
  1085bc:	ea80 0001 	eor.w	r0, r0, r1
  1085c0:	f000 4000 	and.w	r0, r0, #2147483648	; 0x80000000
  1085c4:	4770      	bx	lr
  1085c6:	f090 0f00 	teq	r0, #0
  1085ca:	bf17      	itett	ne
  1085cc:	f090 4f00 	teqne	r0, #2147483648	; 0x80000000
  1085d0:	4608      	moveq	r0, r1
  1085d2:	f091 0f00 	teqne	r1, #0
  1085d6:	f091 4f00 	teqne	r1, #2147483648	; 0x80000000
  1085da:	d014      	beq.n	108606 <__aeabi_fmul+0x15e>
  1085dc:	ea92 0f0c 	teq	r2, r12
  1085e0:	d101      	bne.n	1085e6 <__aeabi_fmul+0x13e>
  1085e2:	0242      	lsls	r2, r0, #9
  1085e4:	d10f      	bne.n	108606 <__aeabi_fmul+0x15e>
  1085e6:	ea93 0f0c 	teq	r3, r12
  1085ea:	d103      	bne.n	1085f4 <__aeabi_fmul+0x14c>
  1085ec:	024b      	lsls	r3, r1, #9
  1085ee:	bf18      	it	ne
  1085f0:	4608      	movne	r0, r1
  1085f2:	d108      	bne.n	108606 <__aeabi_fmul+0x15e>
  1085f4:	ea80 0001 	eor.w	r0, r0, r1
  1085f8:	f000 4000 	and.w	r0, r0, #2147483648	; 0x80000000
  1085fc:	f040 40fe 	orr.w	r0, r0, #2130706432	; 0x7f000000
  108600:	f440 0000 	orr.w	r0, r0, #8388608	; 0x800000
  108604:	4770      	bx	lr
  108606:	f040 40fe 	orr.w	r0, r0, #2130706432	; 0x7f000000
  10860a:	f440 0040 	orr.w	r0, r0, #12582912	; 0xc00000
  10860e:	4770      	bx	lr

00108610 <__aeabi_fdiv>:
  108610:	f04f 0cff 	mov.w	r12, #255	; 0xff
  108614:	ea1c 52d0 	ands.w	r2, r12, r0, lsr #23
  108618:	bf1e      	ittt	ne
  10861a:	ea1c 53d1 	andsne.w	r3, r12, r1, lsr #23
  10861e:	ea92 0f0c 	teqne	r2, r12
  108622:	ea93 0f0c 	teqne	r3, r12
  108626:	d069      	beq.n	1086fc <__aeabi_fdiv+0xec>
  108628:	eba2 0203 	sub.w	r2, r2, r3
  10862c:	ea80 0c01 	eor.w	r12, r0, r1
  108630:	0249      	lsls	r1, r1, #9
  108632:	ea4f 2040 	mov.w	r0, r0, lsl #9
  108636:	d037      	beq.n	1086a8 <__aeabi_fdiv+0x98>
  108638:	f04f 5380 	mov.w	r3, #268435456	; 0x10000000
  10863c:	ea43 1111 	orr.w	r1, r3, r1, lsr #4
  108640:	ea43 1310 	orr.w	r3, r3, r0, lsr #4
  108644:	f00c 4000 	and.w	r0, r12, #2147483648	; 0x80000000
  108648:	428b      	cmp	r3, r1
  10864a:	bf38      	it	cc
  10864c:	005b      	lslcc	r3, r3, #1
  10864e:	f142 027d 	adc.w	r2, r2, #125	; 0x7d
  108652:	f44f 0c00 	mov.w	r12, #8388608	; 0x800000
  108656:	428b      	cmp	r3, r1
  108658:	bf24      	itt	cs
  10865a:	1a5b      	subcs	r3, r3, r1
  10865c:	ea40 000c 	orrcs.w	r0, r0, r12
  108660:	ebb3 0f51 	cmp.w	r3, r1, lsr #1
  108664:	bf24      	itt	cs
  108666:	eba3 0351 	subcs.w	r3, r3, r1, lsr #1
  10866a:	ea40 005c 	orrcs.w	r0, r0, r12, lsr #1
  10866e:	ebb3 0f91 	cmp.w	r3, r1, lsr #2
  108672:	bf24      	itt	cs
  108674:	eba3 0391 	subcs.w	r3, r3, r1, lsr #2
  108678:	ea40 009c 	orrcs.w	r0, r0, r12, lsr #2
  10867c:	ebb3 0fd1 	cmp.w	r3, r1, lsr #3
  108680:	bf24      	itt	cs
  108682:	eba3 03d1 	subcs.w	r3, r3, r1, lsr #3
  108686:	ea40 00dc 	orrcs.w	r0, r0, r12, lsr #3
  10868a:	011b      	lsls	r3, r3, #4
  10868c:	bf18      	it	ne
  10868e:	ea5f 1c1c 	movsne.w	r12, r12, lsr #4
  108692:	d1e0      	bne.n	108656 <__aeabi_fdiv+0x46>
  108694:	2afd      	cmp	r2, #253	; 0xfd
  108696:	f63f af50 	bhi.w	10853a <__aeabi_fmul+0x92>
  10869a:	428b      	cmp	r3, r1
  10869c:	eb40 50c2 	adc.w	r0, r0, r2, lsl #23
  1086a0:	bf08      	it	eq
  1086a2:	f020 0001 	biceq.w	r0, r0, #1
  1086a6:	4770      	bx	lr
  1086a8:	f00c 4c00 	and.w	r12, r12, #2147483648	; 0x80000000
  1086ac:	ea4c 2050 	orr.w	r0, r12, r0, lsr #9
  1086b0:	327f      	adds	r2, #127	; 0x7f
  1086b2:	bfc2      	ittt	gt
  1086b4:	f1d2 03ff 	rsbsgt	r3, r2, #255	; 0xff
  1086b8:	ea40 50c2 	orrgt.w	r0, r0, r2, lsl #23
  1086bc:	4770      	bxgt	lr
  1086be:	f440 0000 	orr.w	r0, r0, #8388608	; 0x800000
  1086c2:	f04f 0300 	mov.w	r3, #0
  1086c6:	3a01      	subs	r2, #1
  1086c8:	e737      	b.n	10853a <__aeabi_fmul+0x92>
  1086ca:	f092 0f00 	teq	r2, #0
  1086ce:	f000 4c00 	and.w	r12, r0, #2147483648	; 0x80000000
  1086d2:	bf02      	ittt	eq
  1086d4:	0040      	lsleq	r0, r0, #1
  1086d6:	f410 0f00 	tsteq.w	r0, #8388608	; 0x800000
  1086da:	3a01      	subeq	r2, #1
  1086dc:	d0f9      	beq.n	1086d2 <__aeabi_fdiv+0xc2>
  1086de:	ea40 000c 	orr.w	r0, r0, r12
  1086e2:	f093 0f00 	teq	r3, #0
  1086e6:	f001 4c00 	and.w	r12, r1, #2147483648	; 0x80000000
  1086ea:	bf02      	ittt	eq
  1086ec:	0049      	lsleq	r1, r1, #1
  1086ee:	f411 0f00 	tsteq.w	r1, #8388608	; 0x800000
  1086f2:	3b01      	subeq	r3, #1
  1086f4:	d0f9      	beq.n	1086ea <__aeabi_fdiv+0xda>
  1086f6:	ea41 010c 	orr.w	r1, r1, r12
  1086fa:	e795      	b.n	108628 <__aeabi_fdiv+0x18>
  1086fc:	ea0c 53d1 	and.w	r3, r12, r1, lsr #23
  108700:	ea92 0f0c 	teq	r2, r12
  108704:	d108      	bne.n	108718 <__aeabi_fdiv+0x108>
  108706:	0242      	lsls	r2, r0, #9
  108708:	f47f af7d 	bne.w	108606 <__aeabi_fmul+0x15e>
  10870c:	ea93 0f0c 	teq	r3, r12
  108710:	f47f af70 	bne.w	1085f4 <__aeabi_fmul+0x14c>
  108714:	4608      	mov	r0, r1
  108716:	e776      	b.n	108606 <__aeabi_fmul+0x15e>
  108718:	ea93 0f0c 	teq	r3, r12
  10871c:	d104      	bne.n	108728 <__aeabi_fdiv+0x118>
  10871e:	024b      	lsls	r3, r1, #9
  108720:	f43f af4c 	beq.w	1085bc <__aeabi_fmul+0x114>
  108724:	4608      	mov	r0, r1
  108726:	e76e      	b.n	108606 <__aeabi_fmul+0x15e>
  108728:	f030 4c00 	bics.w	r12, r0, #2147483648	; 0x80000000
  10872c:	bf18      	it	ne
  10872e:	f031 4c00 	bicsne.w	r12, r1, #2147483648	; 0x80000000
  108732:	d1ca      	bne.n	1086ca <__aeabi_fdiv+0xba>
  108734:	f030 4200 	bics.w	r2, r0, #2147483648	; 0x80000000
  108738:	f47f af5c 	bne.w	1085f4 <__aeabi_fmul+0x14c>
  10873c:	f031 4300 	bics.w	r3, r1, #2147483648	; 0x80000000
  108740:	f47f af3c 	bne.w	1085bc <__aeabi_fmul+0x114>
  108744:	e75f      	b.n	108606 <__aeabi_fmul+0x15e>
  108746:	bf00      	nop

00108748 <__aeabi_f2iz>:
  108748:	ea4f 0240 	mov.w	r2, r0, lsl #1
  10874c:	f1b2 4ffe 	cmp.w	r2, #2130706432	; 0x7f000000
  108750:	d30f      	bcc.n	108772 <__aeabi_f2iz+0x2a>
  108752:	f04f 039e 	mov.w	r3, #158	; 0x9e
  108756:	ebb3 6212 	subs.w	r2, r3, r2, lsr #24
  10875a:	d90d      	bls.n	108778 <__aeabi_f2iz+0x30>
  10875c:	ea4f 2300 	mov.w	r3, r0, lsl #8
  108760:	f043 4300 	orr.w	r3, r3, #2147483648	; 0x80000000
  108764:	f010 4f00 	tst.w	r0, #2147483648	; 0x80000000
  108768:	fa23 f002 	lsr.w	r0, r3, r2
  10876c:	bf18      	it	ne
  10876e:	4240      	negne	r0, r0
  108770:	4770      	bx	lr
  108772:	f04f 0000 	mov.w	r0, #0
  108776:	4770      	bx	lr
  108778:	f112 0f61 	cmn.w	r2, #97	; 0x61
  10877c:	d101      	bne.n	108782 <__aeabi_f2iz+0x3a>
  10877e:	0242      	lsls	r2, r0, #9
  108780:	d105      	bne.n	10878e <__aeabi_f2iz+0x46>
  108782:	f010 4000 	ands.w	r0, r0, #2147483648	; 0x80000000
  108786:	bf08      	it	eq
  108788:	f06f 4000 	mvneq.w	r0, #2147483648	; 0x80000000
  10878c:	4770      	bx	lr
  10878e:	f04f 0000 	mov.w	r0, #0
  108792:	4770      	bx	lr

00108794 <atexit>:
  108794:	2300      	movs	r3, #0
  108796:	4601      	mov	r1, r0
  108798:	461a      	mov	r2, r3
  10879a:	4618      	mov	r0, r3
  10879c:	f002 bf5c 	b.w	10b658 <__register_exitproc>

001087a0 <__cxa_atexit>:
  1087a0:	b510      	push	{r4, lr}
  1087a2:	4c05      	ldr	r4, [pc, #20]	; (1087b8 <__cxa_atexit+0x18>)
  1087a4:	4613      	mov	r3, r2
  1087a6:	b12c      	cbz	r4, 1087b4 <__cxa_atexit+0x14>
  1087a8:	460a      	mov	r2, r1
  1087aa:	4601      	mov	r1, r0
  1087ac:	2002      	movs	r0, #2
  1087ae:	f002 ff53 	bl	10b658 <__register_exitproc>
  1087b2:	bd10      	pop	{r4, pc}
  1087b4:	4620      	mov	r0, r4
  1087b6:	bd10      	pop	{r4, pc}
  1087b8:	0010b659 	.word	0x0010b659

001087bc <__errno>:
  1087bc:	4b01      	ldr	r3, [pc, #4]	; (1087c4 <__errno+0x8>)
  1087be:	6818      	ldr	r0, [r3, #0]
  1087c0:	4770      	bx	lr
  1087c2:	bf00      	nop
  1087c4:	3fff4104 	.word	0x3fff4104

001087c8 <exit>:
  1087c8:	b508      	push	{r3, lr}
  1087ca:	4b07      	ldr	r3, [pc, #28]	; (1087e8 <exit+0x20>)
  1087cc:	4604      	mov	r4, r0
  1087ce:	b113      	cbz	r3, 1087d6 <exit+0xe>
  1087d0:	2100      	movs	r1, #0
  1087d2:	f002 ff9d 	bl	10b710 <__call_exitprocs>
  1087d6:	4b05      	ldr	r3, [pc, #20]	; (1087ec <exit+0x24>)
  1087d8:	6818      	ldr	r0, [r3, #0]
  1087da:	6a83      	ldr	r3, [r0, #40]	; 0x28
  1087dc:	b103      	cbz	r3, 1087e0 <exit+0x18>
  1087de:	4798      	blx	r3
  1087e0:	4620      	mov	r0, r4
  1087e2:	f7fe ff89 	bl	1076f8 <_exit>
  1087e6:	bf00      	nop
  1087e8:	0010b711 	.word	0x0010b711
  1087ec:	0010e8f8 	.word	0x0010e8f8

001087f0 <_fclose_r>:
  1087f0:	b570      	push	{r4, r5, r6, lr}
  1087f2:	4605      	mov	r5, r0
  1087f4:	460c      	mov	r4, r1
  1087f6:	b909      	cbnz	r1, 1087fc <_fclose_r+0xc>
  1087f8:	2000      	movs	r0, #0
  1087fa:	bd70      	pop	{r4, r5, r6, pc}
  1087fc:	b118      	cbz	r0, 108806 <_fclose_r+0x16>
  1087fe:	6983      	ldr	r3, [r0, #24]
  108800:	b90b      	cbnz	r3, 108806 <_fclose_r+0x16>
  108802:	f000 f985 	bl	108b10 <__sinit>
  108806:	4b20      	ldr	r3, [pc, #128]	; (108888 <_fclose_r+0x98>)
  108808:	429c      	cmp	r4, r3
  10880a:	d101      	bne.n	108810 <_fclose_r+0x20>
  10880c:	686c      	ldr	r4, [r5, #4]
  10880e:	e008      	b.n	108822 <_fclose_r+0x32>
  108810:	4b1e      	ldr	r3, [pc, #120]	; (10888c <_fclose_r+0x9c>)
  108812:	429c      	cmp	r4, r3
  108814:	d101      	bne.n	10881a <_fclose_r+0x2a>
  108816:	68ac      	ldr	r4, [r5, #8]
  108818:	e003      	b.n	108822 <_fclose_r+0x32>
  10881a:	4b1d      	ldr	r3, [pc, #116]	; (108890 <_fclose_r+0xa0>)
  10881c:	429c      	cmp	r4, r3
  10881e:	bf08      	it	eq
  108820:	68ec      	ldreq	r4, [r5, #12]
  108822:	f9b4 300c 	ldrsh.w	r3, [r4, #12]
  108826:	2b00      	cmp	r3, #0
  108828:	d0e6      	beq.n	1087f8 <_fclose_r+0x8>
  10882a:	4621      	mov	r1, r4
  10882c:	4628      	mov	r0, r5
  10882e:	f000 f839 	bl	1088a4 <__sflush_r>
  108832:	6b23      	ldr	r3, [r4, #48]	; 0x30
  108834:	4606      	mov	r6, r0
  108836:	b133      	cbz	r3, 108846 <_fclose_r+0x56>
  108838:	6a21      	ldr	r1, [r4, #32]
  10883a:	4628      	mov	r0, r5
  10883c:	4798      	blx	r3
  10883e:	2800      	cmp	r0, #0
  108840:	bfb8      	it	lt
  108842:	f04f 36ff 	movlt.w	r6, #4294967295
  108846:	89a3      	ldrh	r3, [r4, #12]
  108848:	061b      	lsls	r3, r3, #24
  10884a:	d503      	bpl.n	108854 <_fclose_r+0x64>
  10884c:	6921      	ldr	r1, [r4, #16]
  10884e:	4628      	mov	r0, r5
  108850:	f000 fbde 	bl	109010 <_free_r>
  108854:	6b61      	ldr	r1, [r4, #52]	; 0x34
  108856:	b141      	cbz	r1, 10886a <_fclose_r+0x7a>
  108858:	f104 0344 	add.w	r3, r4, #68	; 0x44
  10885c:	4299      	cmp	r1, r3
  10885e:	d002      	beq.n	108866 <_fclose_r+0x76>
  108860:	4628      	mov	r0, r5
  108862:	f000 fbd5 	bl	109010 <_free_r>
  108866:	2300      	movs	r3, #0
  108868:	6363      	str	r3, [r4, #52]	; 0x34
  10886a:	6ca1      	ldr	r1, [r4, #72]	; 0x48
  10886c:	b121      	cbz	r1, 108878 <_fclose_r+0x88>
  10886e:	4628      	mov	r0, r5
  108870:	f000 fbce 	bl	109010 <_free_r>
  108874:	2300      	movs	r3, #0
  108876:	64a3      	str	r3, [r4, #72]	; 0x48
  108878:	f000 f9b6 	bl	108be8 <__sfp_lock_acquire>
  10887c:	2300      	movs	r3, #0
  10887e:	81a3      	strh	r3, [r4, #12]
  108880:	f000 f9b3 	bl	108bea <__sfp_lock_release>
  108884:	4630      	mov	r0, r6
  108886:	bd70      	pop	{r4, r5, r6, pc}
  108888:	0010e894 	.word	0x0010e894
  10888c:	0010e8b4 	.word	0x0010e8b4
  108890:	0010e8d4 	.word	0x0010e8d4

00108894 <fclose>:
  108894:	4b02      	ldr	r3, [pc, #8]	; (1088a0 <fclose+0xc>)
  108896:	4601      	mov	r1, r0
  108898:	6818      	ldr	r0, [r3, #0]
  10889a:	f7ff bfa9 	b.w	1087f0 <_fclose_r>
  10889e:	bf00      	nop
  1088a0:	3fff4104 	.word	0x3fff4104

001088a4 <__sflush_r>:
  1088a4:	898a      	ldrh	r2, [r1, #12]
  1088a6:	e92d 41f0 	stmdb	sp!, {r4, r5, r6, r7, r8, lr}
  1088aa:	4605      	mov	r5, r0
  1088ac:	0710      	lsls	r0, r2, #28
  1088ae:	460c      	mov	r4, r1
  1088b0:	d459      	bmi.n	108966 <__sflush_r+0xc2>
  1088b2:	684b      	ldr	r3, [r1, #4]
  1088b4:	2b00      	cmp	r3, #0
  1088b6:	dc02      	bgt.n	1088be <__sflush_r+0x1a>
  1088b8:	6c0b      	ldr	r3, [r1, #64]	; 0x40
  1088ba:	2b00      	cmp	r3, #0
  1088bc:	dd17      	ble.n	1088ee <__sflush_r+0x4a>
  1088be:	6ae6      	ldr	r6, [r4, #44]	; 0x2c
  1088c0:	b1ae      	cbz	r6, 1088ee <__sflush_r+0x4a>
  1088c2:	f402 5280 	and.w	r2, r2, #4096	; 0x1000
  1088c6:	2300      	movs	r3, #0
  1088c8:	b292      	uxth	r2, r2
  1088ca:	682f      	ldr	r7, [r5, #0]
  1088cc:	602b      	str	r3, [r5, #0]
  1088ce:	b10a      	cbz	r2, 1088d4 <__sflush_r+0x30>
  1088d0:	6d60      	ldr	r0, [r4, #84]	; 0x54
  1088d2:	e015      	b.n	108900 <__sflush_r+0x5c>
  1088d4:	6a21      	ldr	r1, [r4, #32]
  1088d6:	2301      	movs	r3, #1
  1088d8:	4628      	mov	r0, r5
  1088da:	47b0      	blx	r6
  1088dc:	1c41      	adds	r1, r0, #1
  1088de:	d10f      	bne.n	108900 <__sflush_r+0x5c>
  1088e0:	682b      	ldr	r3, [r5, #0]
  1088e2:	b16b      	cbz	r3, 108900 <__sflush_r+0x5c>
  1088e4:	2b1d      	cmp	r3, #29
  1088e6:	d001      	beq.n	1088ec <__sflush_r+0x48>
  1088e8:	2b16      	cmp	r3, #22
  1088ea:	d103      	bne.n	1088f4 <__sflush_r+0x50>
  1088ec:	602f      	str	r7, [r5, #0]
  1088ee:	2000      	movs	r0, #0
  1088f0:	e8bd 81f0 	ldmia.w	sp!, {r4, r5, r6, r7, r8, pc}
  1088f4:	89a3      	ldrh	r3, [r4, #12]
  1088f6:	f043 0340 	orr.w	r3, r3, #64	; 0x40
  1088fa:	81a3      	strh	r3, [r4, #12]
  1088fc:	e8bd 81f0 	ldmia.w	sp!, {r4, r5, r6, r7, r8, pc}
  108900:	89a3      	ldrh	r3, [r4, #12]
  108902:	075a      	lsls	r2, r3, #29
  108904:	d505      	bpl.n	108912 <__sflush_r+0x6e>
  108906:	6863      	ldr	r3, [r4, #4]
  108908:	1ac0      	subs	r0, r0, r3
  10890a:	6b63      	ldr	r3, [r4, #52]	; 0x34
  10890c:	b10b      	cbz	r3, 108912 <__sflush_r+0x6e>
  10890e:	6c23      	ldr	r3, [r4, #64]	; 0x40
  108910:	1ac0      	subs	r0, r0, r3
  108912:	2300      	movs	r3, #0
  108914:	4602      	mov	r2, r0
  108916:	6ae6      	ldr	r6, [r4, #44]	; 0x2c
  108918:	6a21      	ldr	r1, [r4, #32]
  10891a:	4628      	mov	r0, r5
  10891c:	47b0      	blx	r6
  10891e:	1c43      	adds	r3, r0, #1
  108920:	89a3      	ldrh	r3, [r4, #12]
  108922:	d106      	bne.n	108932 <__sflush_r+0x8e>
  108924:	6829      	ldr	r1, [r5, #0]
  108926:	291d      	cmp	r1, #29
  108928:	d839      	bhi.n	10899e <__sflush_r+0xfa>
  10892a:	4a20      	ldr	r2, [pc, #128]	; (1089ac <__sflush_r+0x108>)
  10892c:	40ca      	lsrs	r2, r1
  10892e:	07d6      	lsls	r6, r2, #31
  108930:	d535      	bpl.n	10899e <__sflush_r+0xfa>
  108932:	2200      	movs	r2, #0
  108934:	6062      	str	r2, [r4, #4]
  108936:	6922      	ldr	r2, [r4, #16]
  108938:	04d9      	lsls	r1, r3, #19
  10893a:	6022      	str	r2, [r4, #0]
  10893c:	d504      	bpl.n	108948 <__sflush_r+0xa4>
  10893e:	1c42      	adds	r2, r0, #1
  108940:	d101      	bne.n	108946 <__sflush_r+0xa2>
  108942:	682b      	ldr	r3, [r5, #0]
  108944:	b903      	cbnz	r3, 108948 <__sflush_r+0xa4>
  108946:	6560      	str	r0, [r4, #84]	; 0x54
  108948:	6b61      	ldr	r1, [r4, #52]	; 0x34
  10894a:	602f      	str	r7, [r5, #0]
  10894c:	2900      	cmp	r1, #0
  10894e:	d0ce      	beq.n	1088ee <__sflush_r+0x4a>
  108950:	f104 0344 	add.w	r3, r4, #68	; 0x44
  108954:	4299      	cmp	r1, r3
  108956:	d002      	beq.n	10895e <__sflush_r+0xba>
  108958:	4628      	mov	r0, r5
  10895a:	f000 fb59 	bl	109010 <_free_r>
  10895e:	2000      	movs	r0, #0
  108960:	6360      	str	r0, [r4, #52]	; 0x34
  108962:	e8bd 81f0 	ldmia.w	sp!, {r4, r5, r6, r7, r8, pc}
  108966:	690f      	ldr	r7, [r1, #16]
  108968:	2f00      	cmp	r7, #0
  10896a:	d0c0      	beq.n	1088ee <__sflush_r+0x4a>
  10896c:	0793      	lsls	r3, r2, #30
  10896e:	680e      	ldr	r6, [r1, #0]
  108970:	bf0c      	ite	eq
  108972:	694b      	ldreq	r3, [r1, #20]
  108974:	2300      	movne	r3, #0
  108976:	ebc7 0806 	rsb	r8, r7, r6
  10897a:	600f      	str	r7, [r1, #0]
  10897c:	608b      	str	r3, [r1, #8]
  10897e:	e002      	b.n	108986 <__sflush_r+0xe2>
  108980:	4407      	add	r7, r0
  108982:	ebc0 0808 	rsb	r8, r0, r8
  108986:	f1b8 0f00 	cmp.w	r8, #0
  10898a:	ddb0      	ble.n	1088ee <__sflush_r+0x4a>
  10898c:	4643      	mov	r3, r8
  10898e:	463a      	mov	r2, r7
  108990:	6a21      	ldr	r1, [r4, #32]
  108992:	4628      	mov	r0, r5
  108994:	6aa6      	ldr	r6, [r4, #40]	; 0x28
  108996:	47b0      	blx	r6
  108998:	2800      	cmp	r0, #0
  10899a:	dcf1      	bgt.n	108980 <__sflush_r+0xdc>
  10899c:	89a3      	ldrh	r3, [r4, #12]
  10899e:	f043 0340 	orr.w	r3, r3, #64	; 0x40
  1089a2:	81a3      	strh	r3, [r4, #12]
  1089a4:	f04f 30ff 	mov.w	r0, #4294967295
  1089a8:	e8bd 81f0 	ldmia.w	sp!, {r4, r5, r6, r7, r8, pc}
  1089ac:	20400001 	.word	0x20400001

001089b0 <_fflush_r>:
  1089b0:	b538      	push	{r3, r4, r5, lr}
  1089b2:	690b      	ldr	r3, [r1, #16]
  1089b4:	4605      	mov	r5, r0
  1089b6:	460c      	mov	r4, r1
  1089b8:	b1db      	cbz	r3, 1089f2 <_fflush_r+0x42>
  1089ba:	b118      	cbz	r0, 1089c4 <_fflush_r+0x14>
  1089bc:	6983      	ldr	r3, [r0, #24]
  1089be:	b90b      	cbnz	r3, 1089c4 <_fflush_r+0x14>
  1089c0:	f000 f8a6 	bl	108b10 <__sinit>
  1089c4:	4b0c      	ldr	r3, [pc, #48]	; (1089f8 <_fflush_r+0x48>)
  1089c6:	429c      	cmp	r4, r3
  1089c8:	d101      	bne.n	1089ce <_fflush_r+0x1e>
  1089ca:	686c      	ldr	r4, [r5, #4]
  1089cc:	e008      	b.n	1089e0 <_fflush_r+0x30>
  1089ce:	4b0b      	ldr	r3, [pc, #44]	; (1089fc <_fflush_r+0x4c>)
  1089d0:	429c      	cmp	r4, r3
  1089d2:	d101      	bne.n	1089d8 <_fflush_r+0x28>
  1089d4:	68ac      	ldr	r4, [r5, #8]
  1089d6:	e003      	b.n	1089e0 <_fflush_r+0x30>
  1089d8:	4b09      	ldr	r3, [pc, #36]	; (108a00 <_fflush_r+0x50>)
  1089da:	429c      	cmp	r4, r3
  1089dc:	bf08      	it	eq
  1089de:	68ec      	ldreq	r4, [r5, #12]
  1089e0:	f9b4 300c 	ldrsh.w	r3, [r4, #12]
  1089e4:	b12b      	cbz	r3, 1089f2 <_fflush_r+0x42>
  1089e6:	4621      	mov	r1, r4
  1089e8:	4628      	mov	r0, r5
  1089ea:	e8bd 4038 	ldmia.w	sp!, {r3, r4, r5, lr}
  1089ee:	f7ff bf59 	b.w	1088a4 <__sflush_r>
  1089f2:	2000      	movs	r0, #0
  1089f4:	bd38      	pop	{r3, r4, r5, pc}
  1089f6:	bf00      	nop
  1089f8:	0010e894 	.word	0x0010e894
  1089fc:	0010e8b4 	.word	0x0010e8b4
  108a00:	0010e8d4 	.word	0x0010e8d4

00108a04 <fflush>:
  108a04:	4601      	mov	r1, r0
  108a06:	b920      	cbnz	r0, 108a12 <fflush+0xe>
  108a08:	4b04      	ldr	r3, [pc, #16]	; (108a1c <fflush+0x18>)
  108a0a:	4905      	ldr	r1, [pc, #20]	; (108a20 <fflush+0x1c>)
  108a0c:	6818      	ldr	r0, [r3, #0]
  108a0e:	f000 ba1f 	b.w	108e50 <_fwalk_reent>
  108a12:	4b04      	ldr	r3, [pc, #16]	; (108a24 <fflush+0x20>)
  108a14:	6818      	ldr	r0, [r3, #0]
  108a16:	f7ff bfcb 	b.w	1089b0 <_fflush_r>
  108a1a:	bf00      	nop
  108a1c:	0010e8f8 	.word	0x0010e8f8
  108a20:	001089b1 	.word	0x001089b1
  108a24:	3fff4104 	.word	0x3fff4104

00108a28 <_fgetc_r>:
  108a28:	b538      	push	{r3, r4, r5, lr}
  108a2a:	460c      	mov	r4, r1
  108a2c:	4605      	mov	r5, r0
  108a2e:	b118      	cbz	r0, 108a38 <_fgetc_r+0x10>
  108a30:	6983      	ldr	r3, [r0, #24]
  108a32:	b90b      	cbnz	r3, 108a38 <_fgetc_r+0x10>
  108a34:	f000 f86c 	bl	108b10 <__sinit>
  108a38:	4b0e      	ldr	r3, [pc, #56]	; (108a74 <_fgetc_r+0x4c>)
  108a3a:	429c      	cmp	r4, r3
  108a3c:	d101      	bne.n	108a42 <_fgetc_r+0x1a>
  108a3e:	686c      	ldr	r4, [r5, #4]
  108a40:	e008      	b.n	108a54 <_fgetc_r+0x2c>
  108a42:	4b0d      	ldr	r3, [pc, #52]	; (108a78 <_fgetc_r+0x50>)
  108a44:	429c      	cmp	r4, r3
  108a46:	d101      	bne.n	108a4c <_fgetc_r+0x24>
  108a48:	68ac      	ldr	r4, [r5, #8]
  108a4a:	e003      	b.n	108a54 <_fgetc_r+0x2c>
  108a4c:	4b0b      	ldr	r3, [pc, #44]	; (108a7c <_fgetc_r+0x54>)
  108a4e:	429c      	cmp	r4, r3
  108a50:	bf08      	it	eq
  108a52:	68ec      	ldreq	r4, [r5, #12]
  108a54:	6863      	ldr	r3, [r4, #4]
  108a56:	3b01      	subs	r3, #1
  108a58:	2b00      	cmp	r3, #0
  108a5a:	6063      	str	r3, [r4, #4]
  108a5c:	da05      	bge.n	108a6a <_fgetc_r+0x42>
  108a5e:	4621      	mov	r1, r4
  108a60:	4628      	mov	r0, r5
  108a62:	e8bd 4038 	ldmia.w	sp!, {r3, r4, r5, lr}
  108a66:	f001 bbe1 	b.w	10a22c <__srget_r>
  108a6a:	6823      	ldr	r3, [r4, #0]
  108a6c:	1c5a      	adds	r2, r3, #1
  108a6e:	6022      	str	r2, [r4, #0]
  108a70:	7818      	ldrb	r0, [r3, #0]
  108a72:	bd38      	pop	{r3, r4, r5, pc}
  108a74:	0010e894 	.word	0x0010e894
  108a78:	0010e8b4 	.word	0x0010e8b4
  108a7c:	0010e8d4 	.word	0x0010e8d4

00108a80 <fgetc>:
  108a80:	4b02      	ldr	r3, [pc, #8]	; (108a8c <fgetc+0xc>)
  108a82:	4601      	mov	r1, r0
  108a84:	6818      	ldr	r0, [r3, #0]
  108a86:	f7ff bfcf 	b.w	108a28 <_fgetc_r>
  108a8a:	bf00      	nop
  108a8c:	3fff4104 	.word	0x3fff4104

00108a90 <_cleanup_r>:
  108a90:	4901      	ldr	r1, [pc, #4]	; (108a98 <_cleanup_r+0x8>)
  108a92:	f000 b9dd 	b.w	108e50 <_fwalk_reent>
  108a96:	bf00      	nop
  108a98:	001089b1 	.word	0x001089b1

00108a9c <std.isra.0>:
  108a9c:	b510      	push	{r4, lr}
  108a9e:	4604      	mov	r4, r0
  108aa0:	2300      	movs	r3, #0
  108aa2:	6003      	str	r3, [r0, #0]
  108aa4:	6043      	str	r3, [r0, #4]
  108aa6:	6083      	str	r3, [r0, #8]
  108aa8:	8181      	strh	r1, [r0, #12]
  108aaa:	6643      	str	r3, [r0, #100]	; 0x64
  108aac:	81c2      	strh	r2, [r0, #14]
  108aae:	6103      	str	r3, [r0, #16]
  108ab0:	6143      	str	r3, [r0, #20]
  108ab2:	6183      	str	r3, [r0, #24]
  108ab4:	4619      	mov	r1, r3
  108ab6:	2208      	movs	r2, #8
  108ab8:	305c      	adds	r0, #92	; 0x5c
  108aba:	f000 faa1 	bl	109000 <memset>
  108abe:	4b05      	ldr	r3, [pc, #20]	; (108ad4 <std.isra.0+0x38>)
  108ac0:	6224      	str	r4, [r4, #32]
  108ac2:	6263      	str	r3, [r4, #36]	; 0x24
  108ac4:	4b04      	ldr	r3, [pc, #16]	; (108ad8 <std.isra.0+0x3c>)
  108ac6:	62a3      	str	r3, [r4, #40]	; 0x28
  108ac8:	4b04      	ldr	r3, [pc, #16]	; (108adc <std.isra.0+0x40>)
  108aca:	62e3      	str	r3, [r4, #44]	; 0x2c
  108acc:	4b04      	ldr	r3, [pc, #16]	; (108ae0 <std.isra.0+0x44>)
  108ace:	6323      	str	r3, [r4, #48]	; 0x30
  108ad0:	bd10      	pop	{r4, pc}
  108ad2:	bf00      	nop
  108ad4:	0010a519 	.word	0x0010a519
  108ad8:	0010a53f 	.word	0x0010a53f
  108adc:	0010a577 	.word	0x0010a577
  108ae0:	0010a59b 	.word	0x0010a59b

00108ae4 <__sfmoreglue>:
  108ae4:	b570      	push	{r4, r5, r6, lr}
  108ae6:	2368      	movs	r3, #104	; 0x68
  108ae8:	1e4d      	subs	r5, r1, #1
  108aea:	435d      	muls	r5, r3
  108aec:	460e      	mov	r6, r1
  108aee:	f105 0174 	add.w	r1, r5, #116	; 0x74
  108af2:	f000 fad1 	bl	109098 <_malloc_r>
  108af6:	4604      	mov	r4, r0
  108af8:	b140      	cbz	r0, 108b0c <__sfmoreglue+0x28>
  108afa:	2100      	movs	r1, #0
  108afc:	e880 0042 	stmia.w	r0, {r1, r6}
  108b00:	300c      	adds	r0, #12
  108b02:	60a0      	str	r0, [r4, #8]
  108b04:	f105 0268 	add.w	r2, r5, #104	; 0x68
  108b08:	f000 fa7a 	bl	109000 <memset>
  108b0c:	4620      	mov	r0, r4
  108b0e:	bd70      	pop	{r4, r5, r6, pc}

00108b10 <__sinit>:
  108b10:	6983      	ldr	r3, [r0, #24]
  108b12:	b510      	push	{r4, lr}
  108b14:	4604      	mov	r4, r0
  108b16:	bb33      	cbnz	r3, 108b66 <__sinit+0x56>
  108b18:	6483      	str	r3, [r0, #72]	; 0x48
  108b1a:	64c3      	str	r3, [r0, #76]	; 0x4c
  108b1c:	6503      	str	r3, [r0, #80]	; 0x50
  108b1e:	4b12      	ldr	r3, [pc, #72]	; (108b68 <__sinit+0x58>)
  108b20:	4a12      	ldr	r2, [pc, #72]	; (108b6c <__sinit+0x5c>)
  108b22:	681b      	ldr	r3, [r3, #0]
  108b24:	6282      	str	r2, [r0, #40]	; 0x28
  108b26:	4298      	cmp	r0, r3
  108b28:	bf04      	itt	eq
  108b2a:	2301      	moveq	r3, #1
  108b2c:	6183      	streq	r3, [r0, #24]
  108b2e:	f000 f81f 	bl	108b70 <__sfp>
  108b32:	6060      	str	r0, [r4, #4]
  108b34:	4620      	mov	r0, r4
  108b36:	f000 f81b 	bl	108b70 <__sfp>
  108b3a:	60a0      	str	r0, [r4, #8]
  108b3c:	4620      	mov	r0, r4
  108b3e:	f000 f817 	bl	108b70 <__sfp>
  108b42:	2200      	movs	r2, #0
  108b44:	60e0      	str	r0, [r4, #12]
  108b46:	2104      	movs	r1, #4
  108b48:	6860      	ldr	r0, [r4, #4]
  108b4a:	f7ff ffa7 	bl	108a9c <std.isra.0>
  108b4e:	2201      	movs	r2, #1
  108b50:	2109      	movs	r1, #9
  108b52:	68a0      	ldr	r0, [r4, #8]
  108b54:	f7ff ffa2 	bl	108a9c <std.isra.0>
  108b58:	2202      	movs	r2, #2
  108b5a:	2112      	movs	r1, #18
  108b5c:	68e0      	ldr	r0, [r4, #12]
  108b5e:	f7ff ff9d 	bl	108a9c <std.isra.0>
  108b62:	2301      	movs	r3, #1
  108b64:	61a3      	str	r3, [r4, #24]
  108b66:	bd10      	pop	{r4, pc}
  108b68:	0010e8f8 	.word	0x0010e8f8
  108b6c:	00108a91 	.word	0x00108a91

00108b70 <__sfp>:
  108b70:	b5f8      	push	{r3, r4, r5, r6, r7, lr}
  108b72:	4b1c      	ldr	r3, [pc, #112]	; (108be4 <__sfp+0x74>)
  108b74:	4607      	mov	r7, r0
  108b76:	681e      	ldr	r6, [r3, #0]
  108b78:	69b3      	ldr	r3, [r6, #24]
  108b7a:	b913      	cbnz	r3, 108b82 <__sfp+0x12>
  108b7c:	4630      	mov	r0, r6
  108b7e:	f7ff ffc7 	bl	108b10 <__sinit>
  108b82:	3648      	adds	r6, #72	; 0x48
  108b84:	68b4      	ldr	r4, [r6, #8]
  108b86:	6873      	ldr	r3, [r6, #4]
  108b88:	3b01      	subs	r3, #1
  108b8a:	d404      	bmi.n	108b96 <__sfp+0x26>
  108b8c:	f9b4 500c 	ldrsh.w	r5, [r4, #12]
  108b90:	b17d      	cbz	r5, 108bb2 <__sfp+0x42>
  108b92:	3468      	adds	r4, #104	; 0x68
  108b94:	e7f8      	b.n	108b88 <__sfp+0x18>
  108b96:	6833      	ldr	r3, [r6, #0]
  108b98:	b10b      	cbz	r3, 108b9e <__sfp+0x2e>
  108b9a:	6836      	ldr	r6, [r6, #0]
  108b9c:	e7f2      	b.n	108b84 <__sfp+0x14>
  108b9e:	2104      	movs	r1, #4
  108ba0:	4638      	mov	r0, r7
  108ba2:	f7ff ff9f 	bl	108ae4 <__sfmoreglue>
  108ba6:	6030      	str	r0, [r6, #0]
  108ba8:	2800      	cmp	r0, #0
  108baa:	d1f6      	bne.n	108b9a <__sfp+0x2a>
  108bac:	230c      	movs	r3, #12
  108bae:	603b      	str	r3, [r7, #0]
  108bb0:	bdf8      	pop	{r3, r4, r5, r6, r7, pc}
  108bb2:	f64f 73ff 	movw	r3, #65535	; 0xffff
  108bb6:	81e3      	strh	r3, [r4, #14]
  108bb8:	2301      	movs	r3, #1
  108bba:	81a3      	strh	r3, [r4, #12]
  108bbc:	6665      	str	r5, [r4, #100]	; 0x64
  108bbe:	6025      	str	r5, [r4, #0]
  108bc0:	60a5      	str	r5, [r4, #8]
  108bc2:	6065      	str	r5, [r4, #4]
  108bc4:	6125      	str	r5, [r4, #16]
  108bc6:	6165      	str	r5, [r4, #20]
  108bc8:	61a5      	str	r5, [r4, #24]
  108bca:	2208      	movs	r2, #8
  108bcc:	4629      	mov	r1, r5
  108bce:	f104 005c 	add.w	r0, r4, #92	; 0x5c
  108bd2:	f000 fa15 	bl	109000 <memset>
  108bd6:	6365      	str	r5, [r4, #52]	; 0x34
  108bd8:	63a5      	str	r5, [r4, #56]	; 0x38
  108bda:	64a5      	str	r5, [r4, #72]	; 0x48
  108bdc:	64e5      	str	r5, [r4, #76]	; 0x4c
  108bde:	4620      	mov	r0, r4
  108be0:	bdf8      	pop	{r3, r4, r5, r6, r7, pc}
  108be2:	bf00      	nop
  108be4:	0010e8f8 	.word	0x0010e8f8

00108be8 <__sfp_lock_acquire>:
  108be8:	4770      	bx	lr

00108bea <__sfp_lock_release>:
  108bea:	4770      	bx	lr

00108bec <__libc_fini_array>:
  108bec:	b538      	push	{r3, r4, r5, lr}
  108bee:	4b07      	ldr	r3, [pc, #28]	; (108c0c <__libc_fini_array+0x20>)
  108bf0:	4c07      	ldr	r4, [pc, #28]	; (108c10 <__libc_fini_array+0x24>)
  108bf2:	461d      	mov	r5, r3
  108bf4:	1ae4      	subs	r4, r4, r3
  108bf6:	10a4      	asrs	r4, r4, #2
  108bf8:	b124      	cbz	r4, 108c04 <__libc_fini_array+0x18>
  108bfa:	3c01      	subs	r4, #1
  108bfc:	f855 3024 	ldr.w	r3, [r5, r4, lsl #2]
  108c00:	4798      	blx	r3
  108c02:	e7f9      	b.n	108bf8 <__libc_fini_array+0xc>
  108c04:	e8bd 4038 	ldmia.w	sp!, {r3, r4, r5, lr}
  108c08:	f005 b98c 	b.w	10df24 <_fini>
  108c0c:	3fff4158 	.word	0x3fff4158
  108c10:	3fff415c 	.word	0x3fff415c

00108c14 <_fopen_r>:
  108c14:	b5f7      	push	{r0, r1, r2, r4, r5, r6, r7, lr}
  108c16:	460f      	mov	r7, r1
  108c18:	4611      	mov	r1, r2
  108c1a:	aa01      	add	r2, sp, #4
  108c1c:	4605      	mov	r5, r0
  108c1e:	f003 fc17 	bl	10c450 <__sflags>
  108c22:	4606      	mov	r6, r0
  108c24:	b908      	cbnz	r0, 108c2a <_fopen_r+0x16>
  108c26:	2000      	movs	r0, #0
  108c28:	e029      	b.n	108c7e <_fopen_r+0x6a>
  108c2a:	4628      	mov	r0, r5
  108c2c:	f7ff ffa0 	bl	108b70 <__sfp>
  108c30:	4604      	mov	r4, r0
  108c32:	2800      	cmp	r0, #0
  108c34:	d0f7      	beq.n	108c26 <_fopen_r+0x12>
  108c36:	f44f 73db 	mov.w	r3, #438	; 0x1b6
  108c3a:	9a01      	ldr	r2, [sp, #4]
  108c3c:	4639      	mov	r1, r7
  108c3e:	4628      	mov	r0, r5
  108c40:	f001 fa16 	bl	10a070 <_open_r>
  108c44:	2800      	cmp	r0, #0
  108c46:	da06      	bge.n	108c56 <_fopen_r+0x42>
  108c48:	2500      	movs	r5, #0
  108c4a:	f7ff ffcd 	bl	108be8 <__sfp_lock_acquire>
  108c4e:	81a5      	strh	r5, [r4, #12]
  108c50:	f7ff ffcb 	bl	108bea <__sfp_lock_release>
  108c54:	e7e7      	b.n	108c26 <_fopen_r+0x12>
  108c56:	4b0b      	ldr	r3, [pc, #44]	; (108c84 <_fopen_r+0x70>)
  108c58:	81e0      	strh	r0, [r4, #14]
  108c5a:	6263      	str	r3, [r4, #36]	; 0x24
  108c5c:	4b0a      	ldr	r3, [pc, #40]	; (108c88 <_fopen_r+0x74>)
  108c5e:	81a6      	strh	r6, [r4, #12]
  108c60:	62a3      	str	r3, [r4, #40]	; 0x28
  108c62:	4b0a      	ldr	r3, [pc, #40]	; (108c8c <_fopen_r+0x78>)
  108c64:	6224      	str	r4, [r4, #32]
  108c66:	62e3      	str	r3, [r4, #44]	; 0x2c
  108c68:	4b09      	ldr	r3, [pc, #36]	; (108c90 <_fopen_r+0x7c>)
  108c6a:	6323      	str	r3, [r4, #48]	; 0x30
  108c6c:	05f3      	lsls	r3, r6, #23
  108c6e:	d505      	bpl.n	108c7c <_fopen_r+0x68>
  108c70:	2302      	movs	r3, #2
  108c72:	2200      	movs	r2, #0
  108c74:	4621      	mov	r1, r4
  108c76:	4628      	mov	r0, r5
  108c78:	f000 f840 	bl	108cfc <_fseek_r>
  108c7c:	4620      	mov	r0, r4
  108c7e:	b003      	add	sp, #12
  108c80:	bdf0      	pop	{r4, r5, r6, r7, pc}
  108c82:	bf00      	nop
  108c84:	0010a519 	.word	0x0010a519
  108c88:	0010a53f 	.word	0x0010a53f
  108c8c:	0010a577 	.word	0x0010a577
  108c90:	0010a59b 	.word	0x0010a59b

00108c94 <fopen>:
  108c94:	4b02      	ldr	r3, [pc, #8]	; (108ca0 <fopen+0xc>)
  108c96:	460a      	mov	r2, r1
  108c98:	4601      	mov	r1, r0
  108c9a:	6818      	ldr	r0, [r3, #0]
  108c9c:	f7ff bfba 	b.w	108c14 <_fopen_r>
  108ca0:	3fff4104 	.word	0x3fff4104

00108ca4 <_fputc_r>:
  108ca4:	b570      	push	{r4, r5, r6, lr}
  108ca6:	460e      	mov	r6, r1
  108ca8:	4614      	mov	r4, r2
  108caa:	4605      	mov	r5, r0
  108cac:	b118      	cbz	r0, 108cb6 <_fputc_r+0x12>
  108cae:	6983      	ldr	r3, [r0, #24]
  108cb0:	b90b      	cbnz	r3, 108cb6 <_fputc_r+0x12>
  108cb2:	f7ff ff2d 	bl	108b10 <__sinit>
  108cb6:	4b0a      	ldr	r3, [pc, #40]	; (108ce0 <_fputc_r+0x3c>)
  108cb8:	429c      	cmp	r4, r3
  108cba:	d101      	bne.n	108cc0 <_fputc_r+0x1c>
  108cbc:	686c      	ldr	r4, [r5, #4]
  108cbe:	e008      	b.n	108cd2 <_fputc_r+0x2e>
  108cc0:	4b08      	ldr	r3, [pc, #32]	; (108ce4 <_fputc_r+0x40>)
  108cc2:	429c      	cmp	r4, r3
  108cc4:	d101      	bne.n	108cca <_fputc_r+0x26>
  108cc6:	68ac      	ldr	r4, [r5, #8]
  108cc8:	e003      	b.n	108cd2 <_fputc_r+0x2e>
  108cca:	4b07      	ldr	r3, [pc, #28]	; (108ce8 <_fputc_r+0x44>)
  108ccc:	429c      	cmp	r4, r3
  108cce:	bf08      	it	eq
  108cd0:	68ec      	ldreq	r4, [r5, #12]
  108cd2:	4622      	mov	r2, r4
  108cd4:	4631      	mov	r1, r6
  108cd6:	4628      	mov	r0, r5
  108cd8:	e8bd 4070 	ldmia.w	sp!, {r4, r5, r6, lr}
  108cdc:	f001 b9da 	b.w	10a094 <_putc_r>
  108ce0:	0010e894 	.word	0x0010e894
  108ce4:	0010e8b4 	.word	0x0010e8b4
  108ce8:	0010e8d4 	.word	0x0010e8d4

00108cec <fputc>:
  108cec:	4b02      	ldr	r3, [pc, #8]	; (108cf8 <fputc+0xc>)
  108cee:	460a      	mov	r2, r1
  108cf0:	4601      	mov	r1, r0
  108cf2:	6818      	ldr	r0, [r3, #0]
  108cf4:	f7ff bfd6 	b.w	108ca4 <_fputc_r>
  108cf8:	3fff4104 	.word	0x3fff4104

00108cfc <_fseek_r>:
  108cfc:	f000 b800 	b.w	108d00 <_fseeko_r>

00108d00 <_fseeko_r>:
  108d00:	e92d 43f8 	stmdb	sp!, {r3, r4, r5, r6, r7, r8, r9, lr}
  108d04:	460c      	mov	r4, r1
  108d06:	4690      	mov	r8, r2
  108d08:	461e      	mov	r6, r3
  108d0a:	4605      	mov	r5, r0
  108d0c:	b118      	cbz	r0, 108d16 <_fseeko_r+0x16>
  108d0e:	6983      	ldr	r3, [r0, #24]
  108d10:	b90b      	cbnz	r3, 108d16 <_fseeko_r+0x16>
  108d12:	f7ff fefd 	bl	108b10 <__sinit>
  108d16:	4b3d      	ldr	r3, [pc, #244]	; (108e0c <_fseeko_r+0x10c>)
  108d18:	429c      	cmp	r4, r3
  108d1a:	d101      	bne.n	108d20 <_fseeko_r+0x20>
  108d1c:	686c      	ldr	r4, [r5, #4]
  108d1e:	e008      	b.n	108d32 <_fseeko_r+0x32>
  108d20:	4b3b      	ldr	r3, [pc, #236]	; (108e10 <_fseeko_r+0x110>)
  108d22:	429c      	cmp	r4, r3
  108d24:	d101      	bne.n	108d2a <_fseeko_r+0x2a>
  108d26:	68ac      	ldr	r4, [r5, #8]
  108d28:	e003      	b.n	108d32 <_fseeko_r+0x32>
  108d2a:	4b3a      	ldr	r3, [pc, #232]	; (108e14 <_fseeko_r+0x114>)
  108d2c:	429c      	cmp	r4, r3
  108d2e:	bf08      	it	eq
  108d30:	68ec      	ldreq	r4, [r5, #12]
  108d32:	89a3      	ldrh	r3, [r4, #12]
  108d34:	f403 7384 	and.w	r3, r3, #264	; 0x108
  108d38:	f5b3 7f84 	cmp.w	r3, #264	; 0x108
  108d3c:	d103      	bne.n	108d46 <_fseeko_r+0x46>
  108d3e:	4621      	mov	r1, r4
  108d40:	4628      	mov	r0, r5
  108d42:	f7ff fe35 	bl	1089b0 <_fflush_r>
  108d46:	6ae7      	ldr	r7, [r4, #44]	; 0x2c
  108d48:	b90f      	cbnz	r7, 108d4e <_fseeko_r+0x4e>
  108d4a:	231d      	movs	r3, #29
  108d4c:	e02b      	b.n	108da6 <_fseeko_r+0xa6>
  108d4e:	2e01      	cmp	r6, #1
  108d50:	d004      	beq.n	108d5c <_fseeko_r+0x5c>
  108d52:	2e02      	cmp	r6, #2
  108d54:	d02b      	beq.n	108dae <_fseeko_r+0xae>
  108d56:	b356      	cbz	r6, 108dae <_fseeko_r+0xae>
  108d58:	2316      	movs	r3, #22
  108d5a:	e024      	b.n	108da6 <_fseeko_r+0xa6>
  108d5c:	4621      	mov	r1, r4
  108d5e:	4628      	mov	r0, r5
  108d60:	f7ff fe26 	bl	1089b0 <_fflush_r>
  108d64:	89a2      	ldrh	r2, [r4, #12]
  108d66:	f402 5280 	and.w	r2, r2, #4096	; 0x1000
  108d6a:	b292      	uxth	r2, r2
  108d6c:	b10a      	cbz	r2, 108d72 <_fseeko_r+0x72>
  108d6e:	6d60      	ldr	r0, [r4, #84]	; 0x54
  108d70:	e005      	b.n	108d7e <_fseeko_r+0x7e>
  108d72:	6a21      	ldr	r1, [r4, #32]
  108d74:	4633      	mov	r3, r6
  108d76:	4628      	mov	r0, r5
  108d78:	47b8      	blx	r7
  108d7a:	1c41      	adds	r1, r0, #1
  108d7c:	d014      	beq.n	108da8 <_fseeko_r+0xa8>
  108d7e:	89a3      	ldrh	r3, [r4, #12]
  108d80:	075a      	lsls	r2, r3, #29
  108d82:	d506      	bpl.n	108d92 <_fseeko_r+0x92>
  108d84:	6863      	ldr	r3, [r4, #4]
  108d86:	1ac0      	subs	r0, r0, r3
  108d88:	6b63      	ldr	r3, [r4, #52]	; 0x34
  108d8a:	b14b      	cbz	r3, 108da0 <_fseeko_r+0xa0>
  108d8c:	6c23      	ldr	r3, [r4, #64]	; 0x40
  108d8e:	1ac0      	subs	r0, r0, r3
  108d90:	e006      	b.n	108da0 <_fseeko_r+0xa0>
  108d92:	071b      	lsls	r3, r3, #28
  108d94:	d504      	bpl.n	108da0 <_fseeko_r+0xa0>
  108d96:	6823      	ldr	r3, [r4, #0]
  108d98:	b113      	cbz	r3, 108da0 <_fseeko_r+0xa0>
  108d9a:	6922      	ldr	r2, [r4, #16]
  108d9c:	1a9b      	subs	r3, r3, r2
  108d9e:	4418      	add	r0, r3
  108da0:	4480      	add	r8, r0
  108da2:	2600      	movs	r6, #0
  108da4:	e003      	b.n	108dae <_fseeko_r+0xae>
  108da6:	602b      	str	r3, [r5, #0]
  108da8:	f04f 39ff 	mov.w	r9, #4294967295
  108dac:	e02b      	b.n	108e06 <_fseeko_r+0x106>
  108dae:	6923      	ldr	r3, [r4, #16]
  108db0:	b91b      	cbnz	r3, 108dba <_fseeko_r+0xba>
  108db2:	4621      	mov	r1, r4
  108db4:	4628      	mov	r0, r5
  108db6:	f000 f893 	bl	108ee0 <__smakebuf_r>
  108dba:	4621      	mov	r1, r4
  108dbc:	4628      	mov	r0, r5
  108dbe:	f7ff fdf7 	bl	1089b0 <_fflush_r>
  108dc2:	4681      	mov	r9, r0
  108dc4:	2800      	cmp	r0, #0
  108dc6:	d1ef      	bne.n	108da8 <_fseeko_r+0xa8>
  108dc8:	4633      	mov	r3, r6
  108dca:	4642      	mov	r2, r8
  108dcc:	6a21      	ldr	r1, [r4, #32]
  108dce:	4628      	mov	r0, r5
  108dd0:	47b8      	blx	r7
  108dd2:	3001      	adds	r0, #1
  108dd4:	d0e8      	beq.n	108da8 <_fseeko_r+0xa8>
  108dd6:	6b61      	ldr	r1, [r4, #52]	; 0x34
  108dd8:	b141      	cbz	r1, 108dec <_fseeko_r+0xec>
  108dda:	f104 0344 	add.w	r3, r4, #68	; 0x44
  108dde:	4299      	cmp	r1, r3
  108de0:	d002      	beq.n	108de8 <_fseeko_r+0xe8>
  108de2:	4628      	mov	r0, r5
  108de4:	f000 f914 	bl	109010 <_free_r>
  108de8:	2300      	movs	r3, #0
  108dea:	6363      	str	r3, [r4, #52]	; 0x34
  108dec:	6923      	ldr	r3, [r4, #16]
  108dee:	2100      	movs	r1, #0
  108df0:	6023      	str	r3, [r4, #0]
  108df2:	89a3      	ldrh	r3, [r4, #12]
  108df4:	6061      	str	r1, [r4, #4]
  108df6:	f423 6302 	bic.w	r3, r3, #2080	; 0x820
  108dfa:	81a3      	strh	r3, [r4, #12]
  108dfc:	2208      	movs	r2, #8
  108dfe:	f104 005c 	add.w	r0, r4, #92	; 0x5c
  108e02:	f000 f8fd 	bl	109000 <memset>
  108e06:	4648      	mov	r0, r9
  108e08:	e8bd 83f8 	ldmia.w	sp!, {r3, r4, r5, r6, r7, r8, r9, pc}
  108e0c:	0010e894 	.word	0x0010e894
  108e10:	0010e8b4 	.word	0x0010e8b4
  108e14:	0010e8d4 	.word	0x0010e8d4

00108e18 <_fwalk>:
  108e18:	e92d 41f0 	stmdb	sp!, {r4, r5, r6, r7, r8, lr}
  108e1c:	4688      	mov	r8, r1
  108e1e:	f100 0448 	add.w	r4, r0, #72	; 0x48
  108e22:	2600      	movs	r6, #0
  108e24:	b18c      	cbz	r4, 108e4a <_fwalk+0x32>
  108e26:	68a5      	ldr	r5, [r4, #8]
  108e28:	6867      	ldr	r7, [r4, #4]
  108e2a:	3f01      	subs	r7, #1
  108e2c:	d40b      	bmi.n	108e46 <_fwalk+0x2e>
  108e2e:	89ab      	ldrh	r3, [r5, #12]
  108e30:	2b01      	cmp	r3, #1
  108e32:	d906      	bls.n	108e42 <_fwalk+0x2a>
  108e34:	f9b5 300e 	ldrsh.w	r3, [r5, #14]
  108e38:	3301      	adds	r3, #1
  108e3a:	d002      	beq.n	108e42 <_fwalk+0x2a>
  108e3c:	4628      	mov	r0, r5
  108e3e:	47c0      	blx	r8
  108e40:	4306      	orrs	r6, r0
  108e42:	3568      	adds	r5, #104	; 0x68
  108e44:	e7f1      	b.n	108e2a <_fwalk+0x12>
  108e46:	6824      	ldr	r4, [r4, #0]
  108e48:	e7ec      	b.n	108e24 <_fwalk+0xc>
  108e4a:	4630      	mov	r0, r6
  108e4c:	e8bd 81f0 	ldmia.w	sp!, {r4, r5, r6, r7, r8, pc}

00108e50 <_fwalk_reent>:
  108e50:	e92d 43f8 	stmdb	sp!, {r3, r4, r5, r6, r7, r8, r9, lr}
  108e54:	4680      	mov	r8, r0
  108e56:	4689      	mov	r9, r1
  108e58:	f100 0448 	add.w	r4, r0, #72	; 0x48
  108e5c:	2600      	movs	r6, #0
  108e5e:	b194      	cbz	r4, 108e86 <_fwalk_reent+0x36>
  108e60:	68a5      	ldr	r5, [r4, #8]
  108e62:	6867      	ldr	r7, [r4, #4]
  108e64:	3f01      	subs	r7, #1
  108e66:	d40c      	bmi.n	108e82 <_fwalk_reent+0x32>
  108e68:	89ab      	ldrh	r3, [r5, #12]
  108e6a:	2b01      	cmp	r3, #1
  108e6c:	d907      	bls.n	108e7e <_fwalk_reent+0x2e>
  108e6e:	f9b5 300e 	ldrsh.w	r3, [r5, #14]
  108e72:	3301      	adds	r3, #1
  108e74:	d003      	beq.n	108e7e <_fwalk_reent+0x2e>
  108e76:	4629      	mov	r1, r5
  108e78:	4640      	mov	r0, r8
  108e7a:	47c8      	blx	r9
  108e7c:	4306      	orrs	r6, r0
  108e7e:	3568      	adds	r5, #104	; 0x68
  108e80:	e7f0      	b.n	108e64 <_fwalk_reent+0x14>
  108e82:	6824      	ldr	r4, [r4, #0]
  108e84:	e7eb      	b.n	108e5e <_fwalk_reent+0xe>
  108e86:	4630      	mov	r0, r6
  108e88:	e8bd 83f8 	ldmia.w	sp!, {r3, r4, r5, r6, r7, r8, r9, pc}

00108e8c <__libc_init_array>:
  108e8c:	4b0e      	ldr	r3, [pc, #56]	; (108ec8 <__libc_init_array+0x3c>)
  108e8e:	b570      	push	{r4, r5, r6, lr}
  108e90:	461e      	mov	r6, r3
  108e92:	4c0e      	ldr	r4, [pc, #56]	; (108ecc <__libc_init_array+0x40>)
  108e94:	2500      	movs	r5, #0
  108e96:	1ae4      	subs	r4, r4, r3
  108e98:	10a4      	asrs	r4, r4, #2
  108e9a:	42a5      	cmp	r5, r4
  108e9c:	d004      	beq.n	108ea8 <__libc_init_array+0x1c>
  108e9e:	f856 3025 	ldr.w	r3, [r6, r5, lsl #2]
  108ea2:	4798      	blx	r3
  108ea4:	3501      	adds	r5, #1
  108ea6:	e7f8      	b.n	108e9a <__libc_init_array+0xe>
  108ea8:	f005 f836 	bl	10df18 <_init>
  108eac:	4b08      	ldr	r3, [pc, #32]	; (108ed0 <__libc_init_array+0x44>)
  108eae:	4c09      	ldr	r4, [pc, #36]	; (108ed4 <__libc_init_array+0x48>)
  108eb0:	461e      	mov	r6, r3
  108eb2:	1ae4      	subs	r4, r4, r3
  108eb4:	10a4      	asrs	r4, r4, #2
  108eb6:	2500      	movs	r5, #0
  108eb8:	42a5      	cmp	r5, r4
  108eba:	d004      	beq.n	108ec6 <__libc_init_array+0x3a>
  108ebc:	f856 3025 	ldr.w	r3, [r6, r5, lsl #2]
  108ec0:	4798      	blx	r3
  108ec2:	3501      	adds	r5, #1
  108ec4:	e7f8      	b.n	108eb8 <__libc_init_array+0x2c>
  108ec6:	bd70      	pop	{r4, r5, r6, pc}
  108ec8:	3fff4140 	.word	0x3fff4140
  108ecc:	3fff4140 	.word	0x3fff4140
  108ed0:	3fff4140 	.word	0x3fff4140
  108ed4:	3fff4158 	.word	0x3fff4158

00108ed8 <_localeconv_r>:
  108ed8:	4800      	ldr	r0, [pc, #0]	; (108edc <_localeconv_r+0x4>)
  108eda:	4770      	bx	lr
  108edc:	3fff4108 	.word	0x3fff4108

00108ee0 <__smakebuf_r>:
  108ee0:	b5f0      	push	{r4, r5, r6, r7, lr}
  108ee2:	898b      	ldrh	r3, [r1, #12]
  108ee4:	b091      	sub	sp, #68	; 0x44
  108ee6:	079d      	lsls	r5, r3, #30
  108ee8:	4606      	mov	r6, r0
  108eea:	460c      	mov	r4, r1
  108eec:	d425      	bmi.n	108f3a <__smakebuf_r+0x5a>
  108eee:	f9b1 100e 	ldrsh.w	r1, [r1, #14]
  108ef2:	2900      	cmp	r1, #0
  108ef4:	da08      	bge.n	108f08 <__smakebuf_r+0x28>
  108ef6:	89a3      	ldrh	r3, [r4, #12]
  108ef8:	2500      	movs	r5, #0
  108efa:	f013 0f80 	tst.w	r3, #128	; 0x80
  108efe:	bf14      	ite	ne
  108f00:	2740      	movne	r7, #64	; 0x40
  108f02:	f44f 6780 	moveq.w	r7, #1024	; 0x400
  108f06:	e00d      	b.n	108f24 <__smakebuf_r+0x44>
  108f08:	aa01      	add	r2, sp, #4
  108f0a:	f003 fad9 	bl	10c4c0 <_fstat_r>
  108f0e:	2800      	cmp	r0, #0
  108f10:	dbf1      	blt.n	108ef6 <__smakebuf_r+0x16>
  108f12:	9d02      	ldr	r5, [sp, #8]
  108f14:	f44f 6780 	mov.w	r7, #1024	; 0x400
  108f18:	f405 4570 	and.w	r5, r5, #61440	; 0xf000
  108f1c:	f5a5 5100 	sub.w	r1, r5, #8192	; 0x2000
  108f20:	424d      	negs	r5, r1
  108f22:	414d      	adcs	r5, r1
  108f24:	4639      	mov	r1, r7
  108f26:	4630      	mov	r0, r6
  108f28:	f000 f8b6 	bl	109098 <_malloc_r>
  108f2c:	b960      	cbnz	r0, 108f48 <__smakebuf_r+0x68>
  108f2e:	89a3      	ldrh	r3, [r4, #12]
  108f30:	059a      	lsls	r2, r3, #22
  108f32:	d41d      	bmi.n	108f70 <__smakebuf_r+0x90>
  108f34:	f043 0302 	orr.w	r3, r3, #2
  108f38:	81a3      	strh	r3, [r4, #12]
  108f3a:	f104 0347 	add.w	r3, r4, #71	; 0x47
  108f3e:	6023      	str	r3, [r4, #0]
  108f40:	6123      	str	r3, [r4, #16]
  108f42:	2301      	movs	r3, #1
  108f44:	6163      	str	r3, [r4, #20]
  108f46:	e013      	b.n	108f70 <__smakebuf_r+0x90>
  108f48:	4b0a      	ldr	r3, [pc, #40]	; (108f74 <__smakebuf_r+0x94>)
  108f4a:	62b3      	str	r3, [r6, #40]	; 0x28
  108f4c:	89a3      	ldrh	r3, [r4, #12]
  108f4e:	6020      	str	r0, [r4, #0]
  108f50:	f043 0380 	orr.w	r3, r3, #128	; 0x80
  108f54:	81a3      	strh	r3, [r4, #12]
  108f56:	6120      	str	r0, [r4, #16]
  108f58:	6167      	str	r7, [r4, #20]
  108f5a:	b14d      	cbz	r5, 108f70 <__smakebuf_r+0x90>
  108f5c:	f9b4 100e 	ldrsh.w	r1, [r4, #14]
  108f60:	4630      	mov	r0, r6
  108f62:	f003 fddd 	bl	10cb20 <_isatty_r>
  108f66:	b118      	cbz	r0, 108f70 <__smakebuf_r+0x90>
  108f68:	89a3      	ldrh	r3, [r4, #12]
  108f6a:	f043 0301 	orr.w	r3, r3, #1
  108f6e:	81a3      	strh	r3, [r4, #12]
  108f70:	b011      	add	sp, #68	; 0x44
  108f72:	bdf0      	pop	{r4, r5, r6, r7, pc}
  108f74:	00108a91 	.word	0x00108a91

00108f78 <malloc>:
  108f78:	4b02      	ldr	r3, [pc, #8]	; (108f84 <malloc+0xc>)
  108f7a:	4601      	mov	r1, r0
  108f7c:	6818      	ldr	r0, [r3, #0]
  108f7e:	f000 b88b 	b.w	109098 <_malloc_r>
  108f82:	bf00      	nop
  108f84:	3fff4104 	.word	0x3fff4104

00108f88 <free>:
  108f88:	4b02      	ldr	r3, [pc, #8]	; (108f94 <free+0xc>)
  108f8a:	4601      	mov	r1, r0
  108f8c:	6818      	ldr	r0, [r3, #0]
  108f8e:	f000 b83f 	b.w	109010 <_free_r>
  108f92:	bf00      	nop
  108f94:	3fff4104 	.word	0x3fff4104

00108f98 <memchr>:
  108f98:	b510      	push	{r4, lr}
  108f9a:	b2c9      	uxtb	r1, r1
  108f9c:	4402      	add	r2, r0
  108f9e:	4290      	cmp	r0, r2
  108fa0:	4603      	mov	r3, r0
  108fa2:	d005      	beq.n	108fb0 <memchr+0x18>
  108fa4:	781c      	ldrb	r4, [r3, #0]
  108fa6:	3001      	adds	r0, #1
  108fa8:	428c      	cmp	r4, r1
  108faa:	d1f8      	bne.n	108f9e <memchr+0x6>
  108fac:	4618      	mov	r0, r3
  108fae:	bd10      	pop	{r4, pc}
  108fb0:	2000      	movs	r0, #0
  108fb2:	bd10      	pop	{r4, pc}

00108fb4 <memcpy>:
  108fb4:	b510      	push	{r4, lr}
  108fb6:	1e43      	subs	r3, r0, #1
  108fb8:	440a      	add	r2, r1
  108fba:	4291      	cmp	r1, r2
  108fbc:	d004      	beq.n	108fc8 <memcpy+0x14>
  108fbe:	f811 4b01 	ldrb.w	r4, [r1], #1
  108fc2:	f803 4f01 	strb.w	r4, [r3, #1]!
  108fc6:	e7f8      	b.n	108fba <memcpy+0x6>
  108fc8:	bd10      	pop	{r4, pc}

00108fca <memmove>:
  108fca:	4288      	cmp	r0, r1
  108fcc:	b510      	push	{r4, lr}
  108fce:	eb01 0302 	add.w	r3, r1, r2
  108fd2:	d801      	bhi.n	108fd8 <memmove+0xe>
  108fd4:	1e42      	subs	r2, r0, #1
  108fd6:	e00b      	b.n	108ff0 <memmove+0x26>
  108fd8:	4298      	cmp	r0, r3
  108fda:	d2fb      	bcs.n	108fd4 <memmove+0xa>
  108fdc:	1881      	adds	r1, r0, r2
  108fde:	1ad2      	subs	r2, r2, r3
  108fe0:	42d3      	cmn	r3, r2
  108fe2:	d004      	beq.n	108fee <memmove+0x24>
  108fe4:	f813 4d01 	ldrb.w	r4, [r3, #-1]!
  108fe8:	f801 4d01 	strb.w	r4, [r1, #-1]!
  108fec:	e7f8      	b.n	108fe0 <memmove+0x16>
  108fee:	bd10      	pop	{r4, pc}
  108ff0:	4299      	cmp	r1, r3
  108ff2:	d004      	beq.n	108ffe <memmove+0x34>
  108ff4:	f811 4b01 	ldrb.w	r4, [r1], #1
  108ff8:	f802 4f01 	strb.w	r4, [r2, #1]!
  108ffc:	e7f8      	b.n	108ff0 <memmove+0x26>
  108ffe:	bd10      	pop	{r4, pc}

00109000 <memset>:
  109000:	4603      	mov	r3, r0
  109002:	4402      	add	r2, r0
  109004:	4293      	cmp	r3, r2
  109006:	d002      	beq.n	10900e <memset+0xe>
  109008:	f803 1b01 	strb.w	r1, [r3], #1
  10900c:	e7fa      	b.n	109004 <memset+0x4>
  10900e:	4770      	bx	lr

00109010 <_free_r>:
  109010:	b530      	push	{r4, r5, lr}
  109012:	2900      	cmp	r1, #0
  109014:	d03c      	beq.n	109090 <_free_r+0x80>
  109016:	f851 2c04 	ldr.w	r2, [r1, #-4]
  10901a:	1f0b      	subs	r3, r1, #4
  10901c:	491d      	ldr	r1, [pc, #116]	; (109094 <_free_r+0x84>)
  10901e:	2a00      	cmp	r2, #0
  109020:	bfb8      	it	lt
  109022:	189b      	addlt	r3, r3, r2
  109024:	680a      	ldr	r2, [r1, #0]
  109026:	460c      	mov	r4, r1
  109028:	b912      	cbnz	r2, 109030 <_free_r+0x20>
  10902a:	605a      	str	r2, [r3, #4]
  10902c:	600b      	str	r3, [r1, #0]
  10902e:	bd30      	pop	{r4, r5, pc}
  109030:	429a      	cmp	r2, r3
  109032:	d90d      	bls.n	109050 <_free_r+0x40>
  109034:	6819      	ldr	r1, [r3, #0]
  109036:	1858      	adds	r0, r3, r1
  109038:	4282      	cmp	r2, r0
  10903a:	bf01      	itttt	eq
  10903c:	6810      	ldreq	r0, [r2, #0]
  10903e:	6852      	ldreq	r2, [r2, #4]
  109040:	1809      	addeq	r1, r1, r0
  109042:	6019      	streq	r1, [r3, #0]
  109044:	605a      	str	r2, [r3, #4]
  109046:	6023      	str	r3, [r4, #0]
  109048:	bd30      	pop	{r4, r5, pc}
  10904a:	4299      	cmp	r1, r3
  10904c:	d803      	bhi.n	109056 <_free_r+0x46>
  10904e:	460a      	mov	r2, r1
  109050:	6851      	ldr	r1, [r2, #4]
  109052:	2900      	cmp	r1, #0
  109054:	d1f9      	bne.n	10904a <_free_r+0x3a>
  109056:	6814      	ldr	r4, [r2, #0]
  109058:	1915      	adds	r5, r2, r4
  10905a:	429d      	cmp	r5, r3
  10905c:	d10a      	bne.n	109074 <_free_r+0x64>
  10905e:	681b      	ldr	r3, [r3, #0]
  109060:	4423      	add	r3, r4
  109062:	18d0      	adds	r0, r2, r3
  109064:	4281      	cmp	r1, r0
  109066:	6013      	str	r3, [r2, #0]
  109068:	d112      	bne.n	109090 <_free_r+0x80>
  10906a:	6808      	ldr	r0, [r1, #0]
  10906c:	4403      	add	r3, r0
  10906e:	6013      	str	r3, [r2, #0]
  109070:	684b      	ldr	r3, [r1, #4]
  109072:	e00c      	b.n	10908e <_free_r+0x7e>
  109074:	d902      	bls.n	10907c <_free_r+0x6c>
  109076:	230c      	movs	r3, #12
  109078:	6003      	str	r3, [r0, #0]
  10907a:	bd30      	pop	{r4, r5, pc}
  10907c:	6818      	ldr	r0, [r3, #0]
  10907e:	181c      	adds	r4, r3, r0
  109080:	42a1      	cmp	r1, r4
  109082:	bf01      	itttt	eq
  109084:	680c      	ldreq	r4, [r1, #0]
  109086:	6849      	ldreq	r1, [r1, #4]
  109088:	1900      	addeq	r0, r0, r4
  10908a:	6018      	streq	r0, [r3, #0]
  10908c:	6059      	str	r1, [r3, #4]
  10908e:	6053      	str	r3, [r2, #4]
  109090:	bd30      	pop	{r4, r5, pc}
  109092:	bf00      	nop
  109094:	3fff47b0 	.word	0x3fff47b0

00109098 <_malloc_r>:
  109098:	b570      	push	{r4, r5, r6, lr}
  10909a:	1ccd      	adds	r5, r1, #3
  10909c:	f025 0503 	bic.w	r5, r5, #3
  1090a0:	3508      	adds	r5, #8
  1090a2:	2d0c      	cmp	r5, #12
  1090a4:	bf38      	it	cc
  1090a6:	250c      	movcc	r5, #12
  1090a8:	2d00      	cmp	r5, #0
  1090aa:	4606      	mov	r6, r0
  1090ac:	da03      	bge.n	1090b6 <_malloc_r+0x1e>
  1090ae:	230c      	movs	r3, #12
  1090b0:	6033      	str	r3, [r6, #0]
  1090b2:	2000      	movs	r0, #0
  1090b4:	bd70      	pop	{r4, r5, r6, pc}
  1090b6:	42a9      	cmp	r1, r5
  1090b8:	d8f9      	bhi.n	1090ae <_malloc_r+0x16>
  1090ba:	4b1f      	ldr	r3, [pc, #124]	; (109138 <_malloc_r+0xa0>)
  1090bc:	681c      	ldr	r4, [r3, #0]
  1090be:	461a      	mov	r2, r3
  1090c0:	4621      	mov	r1, r4
  1090c2:	b1a1      	cbz	r1, 1090ee <_malloc_r+0x56>
  1090c4:	680b      	ldr	r3, [r1, #0]
  1090c6:	1b5b      	subs	r3, r3, r5
  1090c8:	d40e      	bmi.n	1090e8 <_malloc_r+0x50>
  1090ca:	2b0b      	cmp	r3, #11
  1090cc:	d903      	bls.n	1090d6 <_malloc_r+0x3e>
  1090ce:	600b      	str	r3, [r1, #0]
  1090d0:	18cc      	adds	r4, r1, r3
  1090d2:	50cd      	str	r5, [r1, r3]
  1090d4:	e01e      	b.n	109114 <_malloc_r+0x7c>
  1090d6:	428c      	cmp	r4, r1
  1090d8:	bf0b      	itete	eq
  1090da:	6863      	ldreq	r3, [r4, #4]
  1090dc:	684b      	ldrne	r3, [r1, #4]
  1090de:	6013      	streq	r3, [r2, #0]
  1090e0:	6063      	strne	r3, [r4, #4]
  1090e2:	bf18      	it	ne
  1090e4:	460c      	movne	r4, r1
  1090e6:	e015      	b.n	109114 <_malloc_r+0x7c>
  1090e8:	460c      	mov	r4, r1
  1090ea:	6849      	ldr	r1, [r1, #4]
  1090ec:	e7e9      	b.n	1090c2 <_malloc_r+0x2a>
  1090ee:	4c13      	ldr	r4, [pc, #76]	; (10913c <_malloc_r+0xa4>)
  1090f0:	6823      	ldr	r3, [r4, #0]
  1090f2:	b91b      	cbnz	r3, 1090fc <_malloc_r+0x64>
  1090f4:	4630      	mov	r0, r6
  1090f6:	f001 f8ed 	bl	10a2d4 <_sbrk_r>
  1090fa:	6020      	str	r0, [r4, #0]
  1090fc:	4629      	mov	r1, r5
  1090fe:	4630      	mov	r0, r6
  109100:	f001 f8e8 	bl	10a2d4 <_sbrk_r>
  109104:	1c43      	adds	r3, r0, #1
  109106:	d0d2      	beq.n	1090ae <_malloc_r+0x16>
  109108:	1cc4      	adds	r4, r0, #3
  10910a:	f024 0403 	bic.w	r4, r4, #3
  10910e:	42a0      	cmp	r0, r4
  109110:	d10a      	bne.n	109128 <_malloc_r+0x90>
  109112:	6025      	str	r5, [r4, #0]
  109114:	f104 000b 	add.w	r0, r4, #11
  109118:	1d23      	adds	r3, r4, #4
  10911a:	f020 0007 	bic.w	r0, r0, #7
  10911e:	1ac3      	subs	r3, r0, r3
  109120:	d009      	beq.n	109136 <_malloc_r+0x9e>
  109122:	425a      	negs	r2, r3
  109124:	50e2      	str	r2, [r4, r3]
  109126:	bd70      	pop	{r4, r5, r6, pc}
  109128:	1a21      	subs	r1, r4, r0
  10912a:	4630      	mov	r0, r6
  10912c:	f001 f8d2 	bl	10a2d4 <_sbrk_r>
  109130:	3001      	adds	r0, #1
  109132:	d1ee      	bne.n	109112 <_malloc_r+0x7a>
  109134:	e7bb      	b.n	1090ae <_malloc_r+0x16>
  109136:	bd70      	pop	{r4, r5, r6, pc}
  109138:	3fff47b0 	.word	0x3fff47b0
  10913c:	3fff47ac 	.word	0x3fff47ac

00109140 <__cvt>:
  109140:	e92d 47f0 	stmdb	sp!, {r4, r5, r6, r7, r8, r9, r10, lr}
  109144:	b088      	sub	sp, #32
  109146:	9f14      	ldr	r7, [sp, #80]	; 0x50
  109148:	2b00      	cmp	r3, #0
  10914a:	461e      	mov	r6, r3
  10914c:	9912      	ldr	r1, [sp, #72]	; 0x48
  10914e:	bfb8      	it	lt
  109150:	f103 4300 	addlt.w	r3, r3, #2147483648	; 0x80000000
  109154:	f027 0720 	bic.w	r7, r7, #32
  109158:	bfb6      	itet	lt
  10915a:	461e      	movlt	r6, r3
  10915c:	2300      	movge	r3, #0
  10915e:	232d      	movlt	r3, #45	; 0x2d
  109160:	2f46      	cmp	r7, #70	; 0x46
  109162:	4614      	mov	r4, r2
  109164:	9d10      	ldr	r5, [sp, #64]	; 0x40
  109166:	f8dd a04c 	ldr.w	r10, [sp, #76]	; 0x4c
  10916a:	700b      	strb	r3, [r1, #0]
  10916c:	d003      	beq.n	109176 <__cvt+0x36>
  10916e:	2f45      	cmp	r7, #69	; 0x45
  109170:	d103      	bne.n	10917a <__cvt+0x3a>
  109172:	3501      	adds	r5, #1
  109174:	e001      	b.n	10917a <__cvt+0x3a>
  109176:	2303      	movs	r3, #3
  109178:	e000      	b.n	10917c <__cvt+0x3c>
  10917a:	2302      	movs	r3, #2
  10917c:	aa07      	add	r2, sp, #28
  10917e:	9204      	str	r2, [sp, #16]
  109180:	aa06      	add	r2, sp, #24
  109182:	9203      	str	r2, [sp, #12]
  109184:	e88d 0428 	stmia.w	sp, {r3, r5, r10}
  109188:	4622      	mov	r2, r4
  10918a:	4633      	mov	r3, r6
  10918c:	f002 fbc8 	bl	10b920 <_dtoa_r>
  109190:	2f47      	cmp	r7, #71	; 0x47
  109192:	4680      	mov	r8, r0
  109194:	d102      	bne.n	10919c <__cvt+0x5c>
  109196:	9b11      	ldr	r3, [sp, #68]	; 0x44
  109198:	07db      	lsls	r3, r3, #31
  10919a:	d528      	bpl.n	1091ee <__cvt+0xae>
  10919c:	2f46      	cmp	r7, #70	; 0x46
  10919e:	eb08 0905 	add.w	r9, r8, r5
  1091a2:	d111      	bne.n	1091c8 <__cvt+0x88>
  1091a4:	f898 3000 	ldrb.w	r3, [r8]
  1091a8:	2b30      	cmp	r3, #48	; 0x30
  1091aa:	d10a      	bne.n	1091c2 <__cvt+0x82>
  1091ac:	2200      	movs	r2, #0
  1091ae:	2300      	movs	r3, #0
  1091b0:	4620      	mov	r0, r4
  1091b2:	4631      	mov	r1, r6
  1091b4:	f7ff f946 	bl	108444 <__aeabi_dcmpeq>
  1091b8:	b918      	cbnz	r0, 1091c2 <__cvt+0x82>
  1091ba:	f1c5 0501 	rsb	r5, r5, #1
  1091be:	f8ca 5000 	str.w	r5, [r10]
  1091c2:	f8da 3000 	ldr.w	r3, [r10]
  1091c6:	4499      	add	r9, r3
  1091c8:	2200      	movs	r2, #0
  1091ca:	2300      	movs	r3, #0
  1091cc:	4620      	mov	r0, r4
  1091ce:	4631      	mov	r1, r6
  1091d0:	f7ff f938 	bl	108444 <__aeabi_dcmpeq>
  1091d4:	b908      	cbnz	r0, 1091da <__cvt+0x9a>
  1091d6:	2230      	movs	r2, #48	; 0x30
  1091d8:	e002      	b.n	1091e0 <__cvt+0xa0>
  1091da:	f8cd 901c 	str.w	r9, [sp, #28]
  1091de:	e006      	b.n	1091ee <__cvt+0xae>
  1091e0:	9b07      	ldr	r3, [sp, #28]
  1091e2:	4599      	cmp	r9, r3
  1091e4:	d903      	bls.n	1091ee <__cvt+0xae>
  1091e6:	1c59      	adds	r1, r3, #1
  1091e8:	9107      	str	r1, [sp, #28]
  1091ea:	701a      	strb	r2, [r3, #0]
  1091ec:	e7f8      	b.n	1091e0 <__cvt+0xa0>
  1091ee:	4640      	mov	r0, r8
  1091f0:	9b07      	ldr	r3, [sp, #28]
  1091f2:	9a15      	ldr	r2, [sp, #84]	; 0x54
  1091f4:	ebc8 0303 	rsb	r3, r8, r3
  1091f8:	6013      	str	r3, [r2, #0]
  1091fa:	b008      	add	sp, #32
  1091fc:	e8bd 87f0 	ldmia.w	sp!, {r4, r5, r6, r7, r8, r9, r10, pc}

00109200 <__exponent>:
  109200:	4603      	mov	r3, r0
  109202:	b573      	push	{r0, r1, r4, r5, r6, lr}
  109204:	2900      	cmp	r1, #0
  109206:	bfb8      	it	lt
  109208:	4249      	neglt	r1, r1
  10920a:	f803 2b02 	strb.w	r2, [r3], #2
  10920e:	bfb4      	ite	lt
  109210:	222d      	movlt	r2, #45	; 0x2d
  109212:	222b      	movge	r2, #43	; 0x2b
  109214:	2909      	cmp	r1, #9
  109216:	7042      	strb	r2, [r0, #1]
  109218:	dd1a      	ble.n	109250 <__exponent+0x50>
  10921a:	f10d 0207 	add.w	r2, sp, #7
  10921e:	4616      	mov	r6, r2
  109220:	250a      	movs	r5, #10
  109222:	fb91 f4f5 	sdiv	r4, r1, r5
  109226:	fb05 1114 	mls	r1, r5, r4, r1
  10922a:	2c09      	cmp	r4, #9
  10922c:	f101 0130 	add.w	r1, r1, #48	; 0x30
  109230:	f802 1d01 	strb.w	r1, [r2, #-1]!
  109234:	4621      	mov	r1, r4
  109236:	dcf4      	bgt.n	109222 <__exponent+0x22>
  109238:	3130      	adds	r1, #48	; 0x30
  10923a:	1e54      	subs	r4, r2, #1
  10923c:	f802 1c01 	strb.w	r1, [r2, #-1]
  109240:	42b4      	cmp	r4, r6
  109242:	461a      	mov	r2, r3
  109244:	d20a      	bcs.n	10925c <__exponent+0x5c>
  109246:	f814 2b01 	ldrb.w	r2, [r4], #1
  10924a:	f803 2b01 	strb.w	r2, [r3], #1
  10924e:	e7f7      	b.n	109240 <__exponent+0x40>
  109250:	461a      	mov	r2, r3
  109252:	2430      	movs	r4, #48	; 0x30
  109254:	4421      	add	r1, r4
  109256:	f802 4b02 	strb.w	r4, [r2], #2
  10925a:	7059      	strb	r1, [r3, #1]
  10925c:	1a10      	subs	r0, r2, r0
  10925e:	b002      	add	sp, #8
  109260:	bd70      	pop	{r4, r5, r6, pc}
	...

00109264 <_printf_float>:
  109264:	e92d 4ff0 	stmdb	sp!, {r4, r5, r6, r7, r8, r9, r10, r11, lr}
  109268:	b08f      	sub	sp, #60	; 0x3c
  10926a:	460c      	mov	r4, r1
  10926c:	4616      	mov	r6, r2
  10926e:	461f      	mov	r7, r3
  109270:	f8dd 8060 	ldr.w	r8, [sp, #96]	; 0x60
  109274:	4605      	mov	r5, r0
  109276:	f7ff fe2f 	bl	108ed8 <_localeconv_r>
  10927a:	f8d0 b000 	ldr.w	r11, [r0]
  10927e:	4658      	mov	r0, r11
  109280:	f001 f999 	bl	10a5b6 <strlen>
  109284:	2300      	movs	r3, #0
  109286:	930c      	str	r3, [sp, #48]	; 0x30
  109288:	f8d8 3000 	ldr.w	r3, [r8]
  10928c:	9008      	str	r0, [sp, #32]
  10928e:	3307      	adds	r3, #7
  109290:	f023 0307 	bic.w	r3, r3, #7
  109294:	f103 0208 	add.w	r2, r3, #8
  109298:	f894 9018 	ldrb.w	r9, [r4, #24]
  10929c:	f8c8 2000 	str.w	r2, [r8]
  1092a0:	e9d3 2300 	ldrd	r2, r3, [r3]
  1092a4:	e9c4 2312 	strd	r2, r3, [r4, #72]	; 0x48
  1092a8:	e9d4 0112 	ldrd	r0, r1, [r4, #72]	; 0x48
  1092ac:	f000 ffea 	bl	10a284 <__fpclassifyd>
  1092b0:	2801      	cmp	r0, #1
  1092b2:	d119      	bne.n	1092e8 <_printf_float+0x84>
  1092b4:	e9d4 0112 	ldrd	r0, r1, [r4, #72]	; 0x48
  1092b8:	2200      	movs	r2, #0
  1092ba:	2300      	movs	r3, #0
  1092bc:	f7ff f8cc 	bl	108458 <__aeabi_dcmplt>
  1092c0:	b110      	cbz	r0, 1092c8 <_printf_float+0x64>
  1092c2:	232d      	movs	r3, #45	; 0x2d
  1092c4:	f884 3043 	strb.w	r3, [r4, #67]	; 0x43
  1092c8:	4b9a      	ldr	r3, [pc, #616]	; (109534 <_printf_float+0x2d0>)
  1092ca:	4a9b      	ldr	r2, [pc, #620]	; (109538 <_printf_float+0x2d4>)
  1092cc:	f1b9 0f47 	cmp.w	r9, #71	; 0x47
  1092d0:	bf8c      	ite	hi
  1092d2:	4690      	movhi	r8, r2
  1092d4:	4698      	movls	r8, r3
  1092d6:	2303      	movs	r3, #3
  1092d8:	6123      	str	r3, [r4, #16]
  1092da:	6823      	ldr	r3, [r4, #0]
  1092dc:	f023 0304 	bic.w	r3, r3, #4
  1092e0:	6023      	str	r3, [r4, #0]
  1092e2:	f04f 0a00 	mov.w	r10, #0
  1092e6:	e093      	b.n	109410 <_printf_float+0x1ac>
  1092e8:	e9d4 0112 	ldrd	r0, r1, [r4, #72]	; 0x48
  1092ec:	f000 ffca 	bl	10a284 <__fpclassifyd>
  1092f0:	6823      	ldr	r3, [r4, #0]
  1092f2:	b948      	cbnz	r0, 109308 <_printf_float+0xa4>
  1092f4:	4a91      	ldr	r2, [pc, #580]	; (10953c <_printf_float+0x2d8>)
  1092f6:	4992      	ldr	r1, [pc, #584]	; (109540 <_printf_float+0x2dc>)
  1092f8:	f1b9 0f47 	cmp.w	r9, #71	; 0x47
  1092fc:	bf8c      	ite	hi
  1092fe:	4688      	movhi	r8, r1
  109300:	4690      	movls	r8, r2
  109302:	2203      	movs	r2, #3
  109304:	6122      	str	r2, [r4, #16]
  109306:	e7e9      	b.n	1092dc <_printf_float+0x78>
  109308:	f8d4 e004 	ldr.w	lr, [r4, #4]
  10930c:	e9d4 0112 	ldrd	r0, r1, [r4, #72]	; 0x48
  109310:	f1be 3fff 	cmp.w	lr, #4294967295
  109314:	d101      	bne.n	10931a <_printf_float+0xb6>
  109316:	2206      	movs	r2, #6
  109318:	e00a      	b.n	109330 <_printf_float+0xcc>
  10931a:	f1b9 0f67 	cmp.w	r9, #103	; 0x67
  10931e:	d002      	beq.n	109326 <_printf_float+0xc2>
  109320:	f1b9 0f47 	cmp.w	r9, #71	; 0x47
  109324:	d105      	bne.n	109332 <_printf_float+0xce>
  109326:	f1be 0f00 	cmp.w	lr, #0
  10932a:	f040 81b6 	bne.w	10969a <_printf_float+0x436>
  10932e:	2201      	movs	r2, #1
  109330:	6062      	str	r2, [r4, #4]
  109332:	2200      	movs	r2, #0
  109334:	f443 6380 	orr.w	r3, r3, #1024	; 0x400
  109338:	9206      	str	r2, [sp, #24]
  10933a:	aa0c      	add	r2, sp, #48	; 0x30
  10933c:	6023      	str	r3, [r4, #0]
  10933e:	9205      	str	r2, [sp, #20]
  109340:	9301      	str	r3, [sp, #4]
  109342:	aa0b      	add	r2, sp, #44	; 0x2c
  109344:	6863      	ldr	r3, [r4, #4]
  109346:	9203      	str	r2, [sp, #12]
  109348:	f10d 022b 	add.w	r2, sp, #43	; 0x2b
  10934c:	9202      	str	r2, [sp, #8]
  10934e:	9300      	str	r3, [sp, #0]
  109350:	4602      	mov	r2, r0
  109352:	460b      	mov	r3, r1
  109354:	f8cd 9010 	str.w	r9, [sp, #16]
  109358:	4628      	mov	r0, r5
  10935a:	f7ff fef1 	bl	109140 <__cvt>
  10935e:	f009 03df 	and.w	r3, r9, #223	; 0xdf
  109362:	2b47      	cmp	r3, #71	; 0x47
  109364:	4680      	mov	r8, r0
  109366:	d109      	bne.n	10937c <_printf_float+0x118>
  109368:	9b0b      	ldr	r3, [sp, #44]	; 0x2c
  10936a:	1cd8      	adds	r0, r3, #3
  10936c:	db02      	blt.n	109374 <_printf_float+0x110>
  10936e:	6862      	ldr	r2, [r4, #4]
  109370:	4293      	cmp	r3, r2
  109372:	dd30      	ble.n	1093d6 <_printf_float+0x172>
  109374:	f1a9 0902 	sub.w	r9, r9, #2
  109378:	fa5f f989 	uxtb.w	r9, r9
  10937c:	f1b9 0f65 	cmp.w	r9, #101	; 0x65
  109380:	990b      	ldr	r1, [sp, #44]	; 0x2c
  109382:	d812      	bhi.n	1093aa <_printf_float+0x146>
  109384:	3901      	subs	r1, #1
  109386:	464a      	mov	r2, r9
  109388:	f104 0050 	add.w	r0, r4, #80	; 0x50
  10938c:	910b      	str	r1, [sp, #44]	; 0x2c
  10938e:	f7ff ff37 	bl	109200 <__exponent>
  109392:	9a0c      	ldr	r2, [sp, #48]	; 0x30
  109394:	4682      	mov	r10, r0
  109396:	1883      	adds	r3, r0, r2
  109398:	2a01      	cmp	r2, #1
  10939a:	6123      	str	r3, [r4, #16]
  10939c:	dc02      	bgt.n	1093a4 <_printf_float+0x140>
  10939e:	6822      	ldr	r2, [r4, #0]
  1093a0:	07d1      	lsls	r1, r2, #31
  1093a2:	d52f      	bpl.n	109404 <_printf_float+0x1a0>
  1093a4:	3301      	adds	r3, #1
  1093a6:	6123      	str	r3, [r4, #16]
  1093a8:	e02c      	b.n	109404 <_printf_float+0x1a0>
  1093aa:	f1b9 0f66 	cmp.w	r9, #102	; 0x66
  1093ae:	d114      	bne.n	1093da <_printf_float+0x176>
  1093b0:	2900      	cmp	r1, #0
  1093b2:	6863      	ldr	r3, [r4, #4]
  1093b4:	dd07      	ble.n	1093c6 <_printf_float+0x162>
  1093b6:	6121      	str	r1, [r4, #16]
  1093b8:	b913      	cbnz	r3, 1093c0 <_printf_float+0x15c>
  1093ba:	6822      	ldr	r2, [r4, #0]
  1093bc:	07d2      	lsls	r2, r2, #31
  1093be:	d51d      	bpl.n	1093fc <_printf_float+0x198>
  1093c0:	3301      	adds	r3, #1
  1093c2:	440b      	add	r3, r1
  1093c4:	e019      	b.n	1093fa <_printf_float+0x196>
  1093c6:	b913      	cbnz	r3, 1093ce <_printf_float+0x16a>
  1093c8:	6822      	ldr	r2, [r4, #0]
  1093ca:	07d0      	lsls	r0, r2, #31
  1093cc:	d501      	bpl.n	1093d2 <_printf_float+0x16e>
  1093ce:	3302      	adds	r3, #2
  1093d0:	e013      	b.n	1093fa <_printf_float+0x196>
  1093d2:	2301      	movs	r3, #1
  1093d4:	e011      	b.n	1093fa <_printf_float+0x196>
  1093d6:	f04f 0967 	mov.w	r9, #103	; 0x67
  1093da:	9b0b      	ldr	r3, [sp, #44]	; 0x2c
  1093dc:	9a0c      	ldr	r2, [sp, #48]	; 0x30
  1093de:	4293      	cmp	r3, r2
  1093e0:	db05      	blt.n	1093ee <_printf_float+0x18a>
  1093e2:	6822      	ldr	r2, [r4, #0]
  1093e4:	6123      	str	r3, [r4, #16]
  1093e6:	07d1      	lsls	r1, r2, #31
  1093e8:	d508      	bpl.n	1093fc <_printf_float+0x198>
  1093ea:	3301      	adds	r3, #1
  1093ec:	e005      	b.n	1093fa <_printf_float+0x196>
  1093ee:	2b00      	cmp	r3, #0
  1093f0:	bfd4      	ite	le
  1093f2:	f1c3 0302 	rsble	r3, r3, #2
  1093f6:	2301      	movgt	r3, #1
  1093f8:	4413      	add	r3, r2
  1093fa:	6123      	str	r3, [r4, #16]
  1093fc:	9b0b      	ldr	r3, [sp, #44]	; 0x2c
  1093fe:	f04f 0a00 	mov.w	r10, #0
  109402:	65a3      	str	r3, [r4, #88]	; 0x58
  109404:	f89d 302b 	ldrb.w	r3, [sp, #43]	; 0x2b
  109408:	b113      	cbz	r3, 109410 <_printf_float+0x1ac>
  10940a:	232d      	movs	r3, #45	; 0x2d
  10940c:	f884 3043 	strb.w	r3, [r4, #67]	; 0x43
  109410:	9700      	str	r7, [sp, #0]
  109412:	4633      	mov	r3, r6
  109414:	aa0d      	add	r2, sp, #52	; 0x34
  109416:	4621      	mov	r1, r4
  109418:	4628      	mov	r0, r5
  10941a:	f000 f959 	bl	1096d0 <_printf_common>
  10941e:	3001      	adds	r0, #1
  109420:	d102      	bne.n	109428 <_printf_float+0x1c4>
  109422:	f04f 30ff 	mov.w	r0, #4294967295
  109426:	e150      	b.n	1096ca <_printf_float+0x466>
  109428:	6823      	ldr	r3, [r4, #0]
  10942a:	055a      	lsls	r2, r3, #21
  10942c:	d401      	bmi.n	109432 <_printf_float+0x1ce>
  10942e:	6923      	ldr	r3, [r4, #16]
  109430:	e065      	b.n	1094fe <_printf_float+0x29a>
  109432:	f1b9 0f65 	cmp.w	r9, #101	; 0x65
  109436:	f240 80d5 	bls.w	1095e4 <_printf_float+0x380>
  10943a:	e9d4 0112 	ldrd	r0, r1, [r4, #72]	; 0x48
  10943e:	2200      	movs	r2, #0
  109440:	2300      	movs	r3, #0
  109442:	f7fe ffff 	bl	108444 <__aeabi_dcmpeq>
  109446:	b378      	cbz	r0, 1094a8 <_printf_float+0x244>
  109448:	2301      	movs	r3, #1
  10944a:	4a3e      	ldr	r2, [pc, #248]	; (109544 <_printf_float+0x2e0>)
  10944c:	4631      	mov	r1, r6
  10944e:	4628      	mov	r0, r5
  109450:	47b8      	blx	r7
  109452:	3001      	adds	r0, #1
  109454:	d0e5      	beq.n	109422 <_printf_float+0x1be>
  109456:	9b0c      	ldr	r3, [sp, #48]	; 0x30
  109458:	9a0b      	ldr	r2, [sp, #44]	; 0x2c
  10945a:	429a      	cmp	r2, r3
  10945c:	db0b      	blt.n	109476 <_printf_float+0x212>
  10945e:	6823      	ldr	r3, [r4, #0]
  109460:	07d8      	lsls	r0, r3, #31
  109462:	d408      	bmi.n	109476 <_printf_float+0x212>
  109464:	6823      	ldr	r3, [r4, #0]
  109466:	079b      	lsls	r3, r3, #30
  109468:	f140 8111 	bpl.w	10968e <_printf_float+0x42a>
  10946c:	f04f 0800 	mov.w	r8, #0
  109470:	f104 0919 	add.w	r9, r4, #25
  109474:	e106      	b.n	109684 <_printf_float+0x420>
  109476:	9b08      	ldr	r3, [sp, #32]
  109478:	465a      	mov	r2, r11
  10947a:	4631      	mov	r1, r6
  10947c:	4628      	mov	r0, r5
  10947e:	47b8      	blx	r7
  109480:	3001      	adds	r0, #1
  109482:	d0ce      	beq.n	109422 <_printf_float+0x1be>
  109484:	f04f 0800 	mov.w	r8, #0
  109488:	f104 091a 	add.w	r9, r4, #26
  10948c:	9b0c      	ldr	r3, [sp, #48]	; 0x30
  10948e:	3b01      	subs	r3, #1
  109490:	4598      	cmp	r8, r3
  109492:	dae7      	bge.n	109464 <_printf_float+0x200>
  109494:	2301      	movs	r3, #1
  109496:	464a      	mov	r2, r9
  109498:	4631      	mov	r1, r6
  10949a:	4628      	mov	r0, r5
  10949c:	47b8      	blx	r7
  10949e:	3001      	adds	r0, #1
  1094a0:	d0bf      	beq.n	109422 <_printf_float+0x1be>
  1094a2:	f108 0801 	add.w	r8, r8, #1
  1094a6:	e7f1      	b.n	10948c <_printf_float+0x228>
  1094a8:	9b0b      	ldr	r3, [sp, #44]	; 0x2c
  1094aa:	2b00      	cmp	r3, #0
  1094ac:	dc29      	bgt.n	109502 <_printf_float+0x29e>
  1094ae:	2301      	movs	r3, #1
  1094b0:	4a24      	ldr	r2, [pc, #144]	; (109544 <_printf_float+0x2e0>)
  1094b2:	4631      	mov	r1, r6
  1094b4:	4628      	mov	r0, r5
  1094b6:	47b8      	blx	r7
  1094b8:	3001      	adds	r0, #1
  1094ba:	d0b2      	beq.n	109422 <_printf_float+0x1be>
  1094bc:	9b0b      	ldr	r3, [sp, #44]	; 0x2c
  1094be:	b923      	cbnz	r3, 1094ca <_printf_float+0x266>
  1094c0:	9b0c      	ldr	r3, [sp, #48]	; 0x30
  1094c2:	b913      	cbnz	r3, 1094ca <_printf_float+0x266>
  1094c4:	6823      	ldr	r3, [r4, #0]
  1094c6:	07d9      	lsls	r1, r3, #31
  1094c8:	d5cc      	bpl.n	109464 <_printf_float+0x200>
  1094ca:	9b08      	ldr	r3, [sp, #32]
  1094cc:	465a      	mov	r2, r11
  1094ce:	4631      	mov	r1, r6
  1094d0:	4628      	mov	r0, r5
  1094d2:	47b8      	blx	r7
  1094d4:	3001      	adds	r0, #1
  1094d6:	d0a4      	beq.n	109422 <_printf_float+0x1be>
  1094d8:	f04f 0900 	mov.w	r9, #0
  1094dc:	f104 0a1a 	add.w	r10, r4, #26
  1094e0:	9b0b      	ldr	r3, [sp, #44]	; 0x2c
  1094e2:	425b      	negs	r3, r3
  1094e4:	4599      	cmp	r9, r3
  1094e6:	da09      	bge.n	1094fc <_printf_float+0x298>
  1094e8:	2301      	movs	r3, #1
  1094ea:	4652      	mov	r2, r10
  1094ec:	4631      	mov	r1, r6
  1094ee:	4628      	mov	r0, r5
  1094f0:	47b8      	blx	r7
  1094f2:	3001      	adds	r0, #1
  1094f4:	d095      	beq.n	109422 <_printf_float+0x1be>
  1094f6:	f109 0901 	add.w	r9, r9, #1
  1094fa:	e7f1      	b.n	1094e0 <_printf_float+0x27c>
  1094fc:	9b0c      	ldr	r3, [sp, #48]	; 0x30
  1094fe:	4642      	mov	r2, r8
  109500:	e0a7      	b.n	109652 <_printf_float+0x3ee>
  109502:	9a0c      	ldr	r2, [sp, #48]	; 0x30
  109504:	6da3      	ldr	r3, [r4, #88]	; 0x58
  109506:	429a      	cmp	r2, r3
  109508:	bfa8      	it	ge
  10950a:	461a      	movge	r2, r3
  10950c:	2a00      	cmp	r2, #0
  10950e:	4691      	mov	r9, r2
  109510:	dc07      	bgt.n	109522 <_printf_float+0x2be>
  109512:	f104 031a 	add.w	r3, r4, #26
  109516:	f04f 0a00 	mov.w	r10, #0
  10951a:	ea29 79e9 	bic.w	r9, r9, r9, asr #31
  10951e:	9309      	str	r3, [sp, #36]	; 0x24
  109520:	e01c      	b.n	10955c <_printf_float+0x2f8>
  109522:	4613      	mov	r3, r2
  109524:	4631      	mov	r1, r6
  109526:	4642      	mov	r2, r8
  109528:	4628      	mov	r0, r5
  10952a:	47b8      	blx	r7
  10952c:	3001      	adds	r0, #1
  10952e:	d1f0      	bne.n	109512 <_printf_float+0x2ae>
  109530:	e777      	b.n	109422 <_printf_float+0x1be>
  109532:	bf00      	nop
  109534:	0010e904 	.word	0x0010e904
  109538:	0010e908 	.word	0x0010e908
  10953c:	0010e90c 	.word	0x0010e90c
  109540:	0010e910 	.word	0x0010e910
  109544:	0010e95e 	.word	0x0010e95e
  109548:	2301      	movs	r3, #1
  10954a:	9a09      	ldr	r2, [sp, #36]	; 0x24
  10954c:	4631      	mov	r1, r6
  10954e:	4628      	mov	r0, r5
  109550:	47b8      	blx	r7
  109552:	3001      	adds	r0, #1
  109554:	f43f af65 	beq.w	109422 <_printf_float+0x1be>
  109558:	f10a 0a01 	add.w	r10, r10, #1
  10955c:	6da3      	ldr	r3, [r4, #88]	; 0x58
  10955e:	ebc9 0203 	rsb	r2, r9, r3
  109562:	4592      	cmp	r10, r2
  109564:	dbf0      	blt.n	109548 <_printf_float+0x2e4>
  109566:	eb08 0903 	add.w	r9, r8, r3
  10956a:	9a0b      	ldr	r2, [sp, #44]	; 0x2c
  10956c:	9b0c      	ldr	r3, [sp, #48]	; 0x30
  10956e:	429a      	cmp	r2, r3
  109570:	db0f      	blt.n	109592 <_printf_float+0x32e>
  109572:	6823      	ldr	r3, [r4, #0]
  109574:	07da      	lsls	r2, r3, #31
  109576:	d40c      	bmi.n	109592 <_printf_float+0x32e>
  109578:	9b0c      	ldr	r3, [sp, #48]	; 0x30
  10957a:	9a0b      	ldr	r2, [sp, #44]	; 0x2c
  10957c:	4498      	add	r8, r3
  10957e:	ebc9 0808 	rsb	r8, r9, r8
  109582:	1a9b      	subs	r3, r3, r2
  109584:	4598      	cmp	r8, r3
  109586:	bfa8      	it	ge
  109588:	4698      	movge	r8, r3
  10958a:	f1b8 0f00 	cmp.w	r8, #0
  10958e:	dc08      	bgt.n	1095a2 <_printf_float+0x33e>
  109590:	e00f      	b.n	1095b2 <_printf_float+0x34e>
  109592:	9b08      	ldr	r3, [sp, #32]
  109594:	465a      	mov	r2, r11
  109596:	4631      	mov	r1, r6
  109598:	4628      	mov	r0, r5
  10959a:	47b8      	blx	r7
  10959c:	3001      	adds	r0, #1
  10959e:	d1eb      	bne.n	109578 <_printf_float+0x314>
  1095a0:	e73f      	b.n	109422 <_printf_float+0x1be>
  1095a2:	4643      	mov	r3, r8
  1095a4:	464a      	mov	r2, r9
  1095a6:	4631      	mov	r1, r6
  1095a8:	4628      	mov	r0, r5
  1095aa:	47b8      	blx	r7
  1095ac:	3001      	adds	r0, #1
  1095ae:	f43f af38 	beq.w	109422 <_printf_float+0x1be>
  1095b2:	f04f 0900 	mov.w	r9, #0
  1095b6:	ea28 78e8 	bic.w	r8, r8, r8, asr #31
  1095ba:	f104 0a1a 	add.w	r10, r4, #26
  1095be:	e009      	b.n	1095d4 <_printf_float+0x370>
  1095c0:	2301      	movs	r3, #1
  1095c2:	4652      	mov	r2, r10
  1095c4:	4631      	mov	r1, r6
  1095c6:	4628      	mov	r0, r5
  1095c8:	47b8      	blx	r7
  1095ca:	3001      	adds	r0, #1
  1095cc:	f43f af29 	beq.w	109422 <_printf_float+0x1be>
  1095d0:	f109 0901 	add.w	r9, r9, #1
  1095d4:	9a0b      	ldr	r2, [sp, #44]	; 0x2c
  1095d6:	9b0c      	ldr	r3, [sp, #48]	; 0x30
  1095d8:	1a9b      	subs	r3, r3, r2
  1095da:	ebc8 0303 	rsb	r3, r8, r3
  1095de:	4599      	cmp	r9, r3
  1095e0:	dbee      	blt.n	1095c0 <_printf_float+0x35c>
  1095e2:	e73f      	b.n	109464 <_printf_float+0x200>
  1095e4:	9a0c      	ldr	r2, [sp, #48]	; 0x30
  1095e6:	2a01      	cmp	r2, #1
  1095e8:	dc01      	bgt.n	1095ee <_printf_float+0x38a>
  1095ea:	07db      	lsls	r3, r3, #31
  1095ec:	d538      	bpl.n	109660 <_printf_float+0x3fc>
  1095ee:	2301      	movs	r3, #1
  1095f0:	4642      	mov	r2, r8
  1095f2:	4631      	mov	r1, r6
  1095f4:	4628      	mov	r0, r5
  1095f6:	47b8      	blx	r7
  1095f8:	3001      	adds	r0, #1
  1095fa:	f43f af12 	beq.w	109422 <_printf_float+0x1be>
  1095fe:	9b08      	ldr	r3, [sp, #32]
  109600:	465a      	mov	r2, r11
  109602:	4631      	mov	r1, r6
  109604:	4628      	mov	r0, r5
  109606:	47b8      	blx	r7
  109608:	3001      	adds	r0, #1
  10960a:	f43f af0a 	beq.w	109422 <_printf_float+0x1be>
  10960e:	e9d4 0112 	ldrd	r0, r1, [r4, #72]	; 0x48
  109612:	2200      	movs	r2, #0
  109614:	2300      	movs	r3, #0
  109616:	f7fe ff15 	bl	108444 <__aeabi_dcmpeq>
  10961a:	b120      	cbz	r0, 109626 <_printf_float+0x3c2>
  10961c:	f04f 0800 	mov.w	r8, #0
  109620:	f104 091a 	add.w	r9, r4, #26
  109624:	e00e      	b.n	109644 <_printf_float+0x3e0>
  109626:	9b0c      	ldr	r3, [sp, #48]	; 0x30
  109628:	f108 0201 	add.w	r2, r8, #1
  10962c:	3b01      	subs	r3, #1
  10962e:	e019      	b.n	109664 <_printf_float+0x400>
  109630:	2301      	movs	r3, #1
  109632:	464a      	mov	r2, r9
  109634:	4631      	mov	r1, r6
  109636:	4628      	mov	r0, r5
  109638:	47b8      	blx	r7
  10963a:	3001      	adds	r0, #1
  10963c:	f43f aef1 	beq.w	109422 <_printf_float+0x1be>
  109640:	f108 0801 	add.w	r8, r8, #1
  109644:	9b0c      	ldr	r3, [sp, #48]	; 0x30
  109646:	3b01      	subs	r3, #1
  109648:	4598      	cmp	r8, r3
  10964a:	dbf1      	blt.n	109630 <_printf_float+0x3cc>
  10964c:	4653      	mov	r3, r10
  10964e:	f104 0250 	add.w	r2, r4, #80	; 0x50
  109652:	4631      	mov	r1, r6
  109654:	4628      	mov	r0, r5
  109656:	47b8      	blx	r7
  109658:	3001      	adds	r0, #1
  10965a:	f47f af03 	bne.w	109464 <_printf_float+0x200>
  10965e:	e6e0      	b.n	109422 <_printf_float+0x1be>
  109660:	4642      	mov	r2, r8
  109662:	2301      	movs	r3, #1
  109664:	4631      	mov	r1, r6
  109666:	4628      	mov	r0, r5
  109668:	47b8      	blx	r7
  10966a:	3001      	adds	r0, #1
  10966c:	d1ee      	bne.n	10964c <_printf_float+0x3e8>
  10966e:	e6d8      	b.n	109422 <_printf_float+0x1be>
  109670:	2301      	movs	r3, #1
  109672:	464a      	mov	r2, r9
  109674:	4631      	mov	r1, r6
  109676:	4628      	mov	r0, r5
  109678:	47b8      	blx	r7
  10967a:	3001      	adds	r0, #1
  10967c:	f43f aed1 	beq.w	109422 <_printf_float+0x1be>
  109680:	f108 0801 	add.w	r8, r8, #1
  109684:	68e3      	ldr	r3, [r4, #12]
  109686:	9a0d      	ldr	r2, [sp, #52]	; 0x34
  109688:	1a9b      	subs	r3, r3, r2
  10968a:	4598      	cmp	r8, r3
  10968c:	dbf0      	blt.n	109670 <_printf_float+0x40c>
  10968e:	68e0      	ldr	r0, [r4, #12]
  109690:	9b0d      	ldr	r3, [sp, #52]	; 0x34
  109692:	4298      	cmp	r0, r3
  109694:	bfb8      	it	lt
  109696:	4618      	movlt	r0, r3
  109698:	e017      	b.n	1096ca <_printf_float+0x466>
  10969a:	2200      	movs	r2, #0
  10969c:	9206      	str	r2, [sp, #24]
  10969e:	aa0c      	add	r2, sp, #48	; 0x30
  1096a0:	9205      	str	r2, [sp, #20]
  1096a2:	aa0b      	add	r2, sp, #44	; 0x2c
  1096a4:	f443 6380 	orr.w	r3, r3, #1024	; 0x400
  1096a8:	9203      	str	r2, [sp, #12]
  1096aa:	f10d 022b 	add.w	r2, sp, #43	; 0x2b
  1096ae:	6023      	str	r3, [r4, #0]
  1096b0:	9202      	str	r2, [sp, #8]
  1096b2:	9301      	str	r3, [sp, #4]
  1096b4:	4602      	mov	r2, r0
  1096b6:	f8cd 9010 	str.w	r9, [sp, #16]
  1096ba:	f8cd e000 	str.w	lr, [sp]
  1096be:	460b      	mov	r3, r1
  1096c0:	4628      	mov	r0, r5
  1096c2:	f7ff fd3d 	bl	109140 <__cvt>
  1096c6:	4680      	mov	r8, r0
  1096c8:	e64e      	b.n	109368 <_printf_float+0x104>
  1096ca:	b00f      	add	sp, #60	; 0x3c
  1096cc:	e8bd 8ff0 	ldmia.w	sp!, {r4, r5, r6, r7, r8, r9, r10, r11, pc}

001096d0 <_printf_common>:
  1096d0:	e92d 47f0 	stmdb	sp!, {r4, r5, r6, r7, r8, r9, r10, lr}
  1096d4:	4691      	mov	r9, r2
  1096d6:	461f      	mov	r7, r3
  1096d8:	690a      	ldr	r2, [r1, #16]
  1096da:	688b      	ldr	r3, [r1, #8]
  1096dc:	4606      	mov	r6, r0
  1096de:	4293      	cmp	r3, r2
  1096e0:	bfb8      	it	lt
  1096e2:	4613      	movlt	r3, r2
  1096e4:	f8c9 3000 	str.w	r3, [r9]
  1096e8:	f891 2043 	ldrb.w	r2, [r1, #67]	; 0x43
  1096ec:	460c      	mov	r4, r1
  1096ee:	f8dd 8020 	ldr.w	r8, [sp, #32]
  1096f2:	b112      	cbz	r2, 1096fa <_printf_common+0x2a>
  1096f4:	3301      	adds	r3, #1
  1096f6:	f8c9 3000 	str.w	r3, [r9]
  1096fa:	6823      	ldr	r3, [r4, #0]
  1096fc:	0699      	lsls	r1, r3, #26
  1096fe:	bf42      	ittt	mi
  109700:	f8d9 3000 	ldrmi.w	r3, [r9]
  109704:	3302      	addmi	r3, #2
  109706:	f8c9 3000 	strmi.w	r3, [r9]
  10970a:	6825      	ldr	r5, [r4, #0]
  10970c:	f015 0506 	ands.w	r5, r5, #6
  109710:	d110      	bne.n	109734 <_printf_common+0x64>
  109712:	f104 0a19 	add.w	r10, r4, #25
  109716:	e007      	b.n	109728 <_printf_common+0x58>
  109718:	2301      	movs	r3, #1
  10971a:	4652      	mov	r2, r10
  10971c:	4639      	mov	r1, r7
  10971e:	4630      	mov	r0, r6
  109720:	47c0      	blx	r8
  109722:	3001      	adds	r0, #1
  109724:	d01a      	beq.n	10975c <_printf_common+0x8c>
  109726:	3501      	adds	r5, #1
  109728:	68e3      	ldr	r3, [r4, #12]
  10972a:	f8d9 2000 	ldr.w	r2, [r9]
  10972e:	1a9b      	subs	r3, r3, r2
  109730:	429d      	cmp	r5, r3
  109732:	dbf1      	blt.n	109718 <_printf_common+0x48>
  109734:	f894 3043 	ldrb.w	r3, [r4, #67]	; 0x43
  109738:	6822      	ldr	r2, [r4, #0]
  10973a:	3300      	adds	r3, #0
  10973c:	bf18      	it	ne
  10973e:	2301      	movne	r3, #1
  109740:	0692      	lsls	r2, r2, #26
  109742:	d50f      	bpl.n	109764 <_printf_common+0x94>
  109744:	18e1      	adds	r1, r4, r3
  109746:	2030      	movs	r0, #48	; 0x30
  109748:	f881 0043 	strb.w	r0, [r1, #67]	; 0x43
  10974c:	1c5a      	adds	r2, r3, #1
  10974e:	f894 1045 	ldrb.w	r1, [r4, #69]	; 0x45
  109752:	4422      	add	r2, r4
  109754:	3302      	adds	r3, #2
  109756:	f882 1043 	strb.w	r1, [r2, #67]	; 0x43
  10975a:	e003      	b.n	109764 <_printf_common+0x94>
  10975c:	f04f 30ff 	mov.w	r0, #4294967295
  109760:	e8bd 87f0 	ldmia.w	sp!, {r4, r5, r6, r7, r8, r9, r10, pc}
  109764:	f104 0243 	add.w	r2, r4, #67	; 0x43
  109768:	4639      	mov	r1, r7
  10976a:	4630      	mov	r0, r6
  10976c:	47c0      	blx	r8
  10976e:	3001      	adds	r0, #1
  109770:	d0f4      	beq.n	10975c <_printf_common+0x8c>
  109772:	6822      	ldr	r2, [r4, #0]
  109774:	f8d9 5000 	ldr.w	r5, [r9]
  109778:	68e3      	ldr	r3, [r4, #12]
  10977a:	f002 0206 	and.w	r2, r2, #6
  10977e:	2a04      	cmp	r2, #4
  109780:	bf08      	it	eq
  109782:	1b5d      	subeq	r5, r3, r5
  109784:	6922      	ldr	r2, [r4, #16]
  109786:	68a3      	ldr	r3, [r4, #8]
  109788:	bf0c      	ite	eq
  10978a:	ea25 75e5 	biceq.w	r5, r5, r5, asr #31
  10978e:	2500      	movne	r5, #0
  109790:	4293      	cmp	r3, r2
  109792:	bfc4      	itt	gt
  109794:	1a9b      	subgt	r3, r3, r2
  109796:	18ed      	addgt	r5, r5, r3
  109798:	f04f 0900 	mov.w	r9, #0
  10979c:	341a      	adds	r4, #26
  10979e:	454d      	cmp	r5, r9
  1097a0:	d009      	beq.n	1097b6 <_printf_common+0xe6>
  1097a2:	2301      	movs	r3, #1
  1097a4:	4622      	mov	r2, r4
  1097a6:	4639      	mov	r1, r7
  1097a8:	4630      	mov	r0, r6
  1097aa:	47c0      	blx	r8
  1097ac:	3001      	adds	r0, #1
  1097ae:	d0d5      	beq.n	10975c <_printf_common+0x8c>
  1097b0:	f109 0901 	add.w	r9, r9, #1
  1097b4:	e7f3      	b.n	10979e <_printf_common+0xce>
  1097b6:	2000      	movs	r0, #0
  1097b8:	e8bd 87f0 	ldmia.w	sp!, {r4, r5, r6, r7, r8, r9, r10, pc}

001097bc <_printf_i>:
  1097bc:	e92d 43f0 	stmdb	sp!, {r4, r5, r6, r7, r8, r9, lr}
  1097c0:	4617      	mov	r7, r2
  1097c2:	7e0a      	ldrb	r2, [r1, #24]
  1097c4:	b085      	sub	sp, #20
  1097c6:	2a6e      	cmp	r2, #110	; 0x6e
  1097c8:	4698      	mov	r8, r3
  1097ca:	4606      	mov	r6, r0
  1097cc:	460c      	mov	r4, r1
  1097ce:	9b0c      	ldr	r3, [sp, #48]	; 0x30
  1097d0:	f101 0e43 	add.w	lr, r1, #67	; 0x43
  1097d4:	f000 80ae 	beq.w	109934 <_printf_i+0x178>
  1097d8:	d811      	bhi.n	1097fe <_printf_i+0x42>
  1097da:	2a63      	cmp	r2, #99	; 0x63
  1097dc:	d022      	beq.n	109824 <_printf_i+0x68>
  1097de:	d809      	bhi.n	1097f4 <_printf_i+0x38>
  1097e0:	2a00      	cmp	r2, #0
  1097e2:	f000 80bb 	beq.w	10995c <_printf_i+0x1a0>
  1097e6:	2a58      	cmp	r2, #88	; 0x58
  1097e8:	f040 80ca 	bne.w	109980 <_printf_i+0x1c4>
  1097ec:	f881 2045 	strb.w	r2, [r1, #69]	; 0x45
  1097f0:	4983      	ldr	r1, [pc, #524]	; (109a00 <_printf_i+0x244>)
  1097f2:	e055      	b.n	1098a0 <_printf_i+0xe4>
  1097f4:	2a64      	cmp	r2, #100	; 0x64
  1097f6:	d01e      	beq.n	109836 <_printf_i+0x7a>
  1097f8:	2a69      	cmp	r2, #105	; 0x69
  1097fa:	d01c      	beq.n	109836 <_printf_i+0x7a>
  1097fc:	e0c0      	b.n	109980 <_printf_i+0x1c4>
  1097fe:	2a73      	cmp	r2, #115	; 0x73
  109800:	f000 80b0 	beq.w	109964 <_printf_i+0x1a8>
  109804:	d809      	bhi.n	10981a <_printf_i+0x5e>
  109806:	2a6f      	cmp	r2, #111	; 0x6f
  109808:	d02e      	beq.n	109868 <_printf_i+0xac>
  10980a:	2a70      	cmp	r2, #112	; 0x70
  10980c:	f040 80b8 	bne.w	109980 <_printf_i+0x1c4>
  109810:	680a      	ldr	r2, [r1, #0]
  109812:	f042 0220 	orr.w	r2, r2, #32
  109816:	600a      	str	r2, [r1, #0]
  109818:	e03e      	b.n	109898 <_printf_i+0xdc>
  10981a:	2a75      	cmp	r2, #117	; 0x75
  10981c:	d024      	beq.n	109868 <_printf_i+0xac>
  10981e:	2a78      	cmp	r2, #120	; 0x78
  109820:	d03a      	beq.n	109898 <_printf_i+0xdc>
  109822:	e0ad      	b.n	109980 <_printf_i+0x1c4>
  109824:	681a      	ldr	r2, [r3, #0]
  109826:	f101 0542 	add.w	r5, r1, #66	; 0x42
  10982a:	1d11      	adds	r1, r2, #4
  10982c:	6019      	str	r1, [r3, #0]
  10982e:	6813      	ldr	r3, [r2, #0]
  109830:	f884 3042 	strb.w	r3, [r4, #66]	; 0x42
  109834:	e0a8      	b.n	109988 <_printf_i+0x1cc>
  109836:	6821      	ldr	r1, [r4, #0]
  109838:	681a      	ldr	r2, [r3, #0]
  10983a:	f011 0f80 	tst.w	r1, #128	; 0x80
  10983e:	d002      	beq.n	109846 <_printf_i+0x8a>
  109840:	1d11      	adds	r1, r2, #4
  109842:	6019      	str	r1, [r3, #0]
  109844:	e008      	b.n	109858 <_printf_i+0x9c>
  109846:	f011 0f40 	tst.w	r1, #64	; 0x40
  10984a:	f102 0104 	add.w	r1, r2, #4
  10984e:	6019      	str	r1, [r3, #0]
  109850:	d002      	beq.n	109858 <_printf_i+0x9c>
  109852:	f9b2 3000 	ldrsh.w	r3, [r2]
  109856:	e000      	b.n	10985a <_printf_i+0x9e>
  109858:	6813      	ldr	r3, [r2, #0]
  10985a:	2b00      	cmp	r3, #0
  10985c:	da3c      	bge.n	1098d8 <_printf_i+0x11c>
  10985e:	222d      	movs	r2, #45	; 0x2d
  109860:	425b      	negs	r3, r3
  109862:	f884 2043 	strb.w	r2, [r4, #67]	; 0x43
  109866:	e037      	b.n	1098d8 <_printf_i+0x11c>
  109868:	6821      	ldr	r1, [r4, #0]
  10986a:	681a      	ldr	r2, [r3, #0]
  10986c:	f011 0f80 	tst.w	r1, #128	; 0x80
  109870:	d002      	beq.n	109878 <_printf_i+0xbc>
  109872:	1d11      	adds	r1, r2, #4
  109874:	6019      	str	r1, [r3, #0]
  109876:	e007      	b.n	109888 <_printf_i+0xcc>
  109878:	f011 0f40 	tst.w	r1, #64	; 0x40
  10987c:	f102 0104 	add.w	r1, r2, #4
  109880:	6019      	str	r1, [r3, #0]
  109882:	d001      	beq.n	109888 <_printf_i+0xcc>
  109884:	8813      	ldrh	r3, [r2, #0]
  109886:	e000      	b.n	10988a <_printf_i+0xce>
  109888:	6813      	ldr	r3, [r2, #0]
  10988a:	7e22      	ldrb	r2, [r4, #24]
  10988c:	495c      	ldr	r1, [pc, #368]	; (109a00 <_printf_i+0x244>)
  10988e:	2a6f      	cmp	r2, #111	; 0x6f
  109890:	bf14      	ite	ne
  109892:	220a      	movne	r2, #10
  109894:	2208      	moveq	r2, #8
  109896:	e01b      	b.n	1098d0 <_printf_i+0x114>
  109898:	2278      	movs	r2, #120	; 0x78
  10989a:	495a      	ldr	r1, [pc, #360]	; (109a04 <_printf_i+0x248>)
  10989c:	f884 2045 	strb.w	r2, [r4, #69]	; 0x45
  1098a0:	6822      	ldr	r2, [r4, #0]
  1098a2:	6818      	ldr	r0, [r3, #0]
  1098a4:	f012 0f80 	tst.w	r2, #128	; 0x80
  1098a8:	f100 0504 	add.w	r5, r0, #4
  1098ac:	601d      	str	r5, [r3, #0]
  1098ae:	d103      	bne.n	1098b8 <_printf_i+0xfc>
  1098b0:	0655      	lsls	r5, r2, #25
  1098b2:	d501      	bpl.n	1098b8 <_printf_i+0xfc>
  1098b4:	8803      	ldrh	r3, [r0, #0]
  1098b6:	e000      	b.n	1098ba <_printf_i+0xfe>
  1098b8:	6803      	ldr	r3, [r0, #0]
  1098ba:	07d0      	lsls	r0, r2, #31
  1098bc:	bf44      	itt	mi
  1098be:	f042 0220 	orrmi.w	r2, r2, #32
  1098c2:	6022      	strmi	r2, [r4, #0]
  1098c4:	b91b      	cbnz	r3, 1098ce <_printf_i+0x112>
  1098c6:	6822      	ldr	r2, [r4, #0]
  1098c8:	f022 0220 	bic.w	r2, r2, #32
  1098cc:	6022      	str	r2, [r4, #0]
  1098ce:	2210      	movs	r2, #16
  1098d0:	2000      	movs	r0, #0
  1098d2:	f884 0043 	strb.w	r0, [r4, #67]	; 0x43
  1098d6:	e001      	b.n	1098dc <_printf_i+0x120>
  1098d8:	4949      	ldr	r1, [pc, #292]	; (109a00 <_printf_i+0x244>)
  1098da:	220a      	movs	r2, #10
  1098dc:	6865      	ldr	r5, [r4, #4]
  1098de:	2d00      	cmp	r5, #0
  1098e0:	60a5      	str	r5, [r4, #8]
  1098e2:	db08      	blt.n	1098f6 <_printf_i+0x13a>
  1098e4:	6820      	ldr	r0, [r4, #0]
  1098e6:	f020 0004 	bic.w	r0, r0, #4
  1098ea:	6020      	str	r0, [r4, #0]
  1098ec:	b92b      	cbnz	r3, 1098fa <_printf_i+0x13e>
  1098ee:	2d00      	cmp	r5, #0
  1098f0:	d17d      	bne.n	1099ee <_printf_i+0x232>
  1098f2:	4675      	mov	r5, lr
  1098f4:	e00c      	b.n	109910 <_printf_i+0x154>
  1098f6:	2b00      	cmp	r3, #0
  1098f8:	d079      	beq.n	1099ee <_printf_i+0x232>
  1098fa:	4675      	mov	r5, lr
  1098fc:	fbb3 f0f2 	udiv	r0, r3, r2
  109900:	fb02 3310 	mls	r3, r2, r0, r3
  109904:	5ccb      	ldrb	r3, [r1, r3]
  109906:	f805 3d01 	strb.w	r3, [r5, #-1]!
  10990a:	4603      	mov	r3, r0
  10990c:	2800      	cmp	r0, #0
  10990e:	d1f5      	bne.n	1098fc <_printf_i+0x140>
  109910:	2a08      	cmp	r2, #8
  109912:	d10b      	bne.n	10992c <_printf_i+0x170>
  109914:	6823      	ldr	r3, [r4, #0]
  109916:	07da      	lsls	r2, r3, #31
  109918:	d508      	bpl.n	10992c <_printf_i+0x170>
  10991a:	6923      	ldr	r3, [r4, #16]
  10991c:	6862      	ldr	r2, [r4, #4]
  10991e:	429a      	cmp	r2, r3
  109920:	bfde      	ittt	le
  109922:	2330      	movle	r3, #48	; 0x30
  109924:	f805 3c01 	strble.w	r3, [r5, #-1]
  109928:	f105 35ff 	addle.w	r5, r5, #4294967295
  10992c:	ebc5 030e 	rsb	r3, r5, lr
  109930:	6123      	str	r3, [r4, #16]
  109932:	e02e      	b.n	109992 <_printf_i+0x1d6>
  109934:	6808      	ldr	r0, [r1, #0]
  109936:	681a      	ldr	r2, [r3, #0]
  109938:	f010 0f80 	tst.w	r0, #128	; 0x80
  10993c:	6949      	ldr	r1, [r1, #20]
  10993e:	d003      	beq.n	109948 <_printf_i+0x18c>
  109940:	1d10      	adds	r0, r2, #4
  109942:	6018      	str	r0, [r3, #0]
  109944:	6813      	ldr	r3, [r2, #0]
  109946:	e008      	b.n	10995a <_printf_i+0x19e>
  109948:	f010 0f40 	tst.w	r0, #64	; 0x40
  10994c:	f102 0004 	add.w	r0, r2, #4
  109950:	6018      	str	r0, [r3, #0]
  109952:	6813      	ldr	r3, [r2, #0]
  109954:	d001      	beq.n	10995a <_printf_i+0x19e>
  109956:	8019      	strh	r1, [r3, #0]
  109958:	e000      	b.n	10995c <_printf_i+0x1a0>
  10995a:	6019      	str	r1, [r3, #0]
  10995c:	2300      	movs	r3, #0
  10995e:	6123      	str	r3, [r4, #16]
  109960:	4675      	mov	r5, lr
  109962:	e016      	b.n	109992 <_printf_i+0x1d6>
  109964:	681a      	ldr	r2, [r3, #0]
  109966:	1d11      	adds	r1, r2, #4
  109968:	6019      	str	r1, [r3, #0]
  10996a:	6815      	ldr	r5, [r2, #0]
  10996c:	2100      	movs	r1, #0
  10996e:	6862      	ldr	r2, [r4, #4]
  109970:	4628      	mov	r0, r5
  109972:	f7ff fb11 	bl	108f98 <memchr>
  109976:	b108      	cbz	r0, 10997c <_printf_i+0x1c0>
  109978:	1b40      	subs	r0, r0, r5
  10997a:	6060      	str	r0, [r4, #4]
  10997c:	6863      	ldr	r3, [r4, #4]
  10997e:	e004      	b.n	10998a <_printf_i+0x1ce>
  109980:	f104 0542 	add.w	r5, r4, #66	; 0x42
  109984:	f884 2042 	strb.w	r2, [r4, #66]	; 0x42
  109988:	2301      	movs	r3, #1
  10998a:	6123      	str	r3, [r4, #16]
  10998c:	2300      	movs	r3, #0
  10998e:	f884 3043 	strb.w	r3, [r4, #67]	; 0x43
  109992:	f8cd 8000 	str.w	r8, [sp]
  109996:	463b      	mov	r3, r7
  109998:	aa03      	add	r2, sp, #12
  10999a:	4621      	mov	r1, r4
  10999c:	4630      	mov	r0, r6
  10999e:	f7ff fe97 	bl	1096d0 <_printf_common>
  1099a2:	3001      	adds	r0, #1
  1099a4:	d102      	bne.n	1099ac <_printf_i+0x1f0>
  1099a6:	f04f 30ff 	mov.w	r0, #4294967295
  1099aa:	e026      	b.n	1099fa <_printf_i+0x23e>
  1099ac:	6923      	ldr	r3, [r4, #16]
  1099ae:	462a      	mov	r2, r5
  1099b0:	4639      	mov	r1, r7
  1099b2:	4630      	mov	r0, r6
  1099b4:	47c0      	blx	r8
  1099b6:	3001      	adds	r0, #1
  1099b8:	d0f5      	beq.n	1099a6 <_printf_i+0x1ea>
  1099ba:	6823      	ldr	r3, [r4, #0]
  1099bc:	079b      	lsls	r3, r3, #30
  1099be:	d510      	bpl.n	1099e2 <_printf_i+0x226>
  1099c0:	2500      	movs	r5, #0
  1099c2:	f104 0919 	add.w	r9, r4, #25
  1099c6:	e007      	b.n	1099d8 <_printf_i+0x21c>
  1099c8:	2301      	movs	r3, #1
  1099ca:	464a      	mov	r2, r9
  1099cc:	4639      	mov	r1, r7
  1099ce:	4630      	mov	r0, r6
  1099d0:	47c0      	blx	r8
  1099d2:	3001      	adds	r0, #1
  1099d4:	d0e7      	beq.n	1099a6 <_printf_i+0x1ea>
  1099d6:	3501      	adds	r5, #1
  1099d8:	68e3      	ldr	r3, [r4, #12]
  1099da:	9a03      	ldr	r2, [sp, #12]
  1099dc:	1a9b      	subs	r3, r3, r2
  1099de:	429d      	cmp	r5, r3
  1099e0:	dbf2      	blt.n	1099c8 <_printf_i+0x20c>
  1099e2:	68e0      	ldr	r0, [r4, #12]
  1099e4:	9b03      	ldr	r3, [sp, #12]
  1099e6:	4298      	cmp	r0, r3
  1099e8:	bfb8      	it	lt
  1099ea:	4618      	movlt	r0, r3
  1099ec:	e005      	b.n	1099fa <_printf_i+0x23e>
  1099ee:	780b      	ldrb	r3, [r1, #0]
  1099f0:	f104 0542 	add.w	r5, r4, #66	; 0x42
  1099f4:	f884 3042 	strb.w	r3, [r4, #66]	; 0x42
  1099f8:	e78a      	b.n	109910 <_printf_i+0x154>
  1099fa:	b005      	add	sp, #20
  1099fc:	e8bd 83f0 	ldmia.w	sp!, {r4, r5, r6, r7, r8, r9, pc}
  109a00:	0010e914 	.word	0x0010e914
  109a04:	0010e925 	.word	0x0010e925

00109a08 <_scanf_float>:
  109a08:	e92d 4ff0 	stmdb	sp!, {r4, r5, r6, r7, r8, r9, r10, r11, lr}
  109a0c:	469a      	mov	r10, r3
  109a0e:	688b      	ldr	r3, [r1, #8]
  109a10:	4616      	mov	r6, r2
  109a12:	1e5a      	subs	r2, r3, #1
  109a14:	f5b2 7fae 	cmp.w	r2, #348	; 0x15c
  109a18:	bf88      	it	hi
  109a1a:	f46f 72ae 	mvnhi.w	r2, #348	; 0x15c
  109a1e:	b087      	sub	sp, #28
  109a20:	bf82      	ittt	hi
  109a22:	189b      	addhi	r3, r3, r2
  109a24:	9301      	strhi	r3, [sp, #4]
  109a26:	f240 135d 	movwhi	r3, #349	; 0x15d
  109a2a:	4688      	mov	r8, r1
  109a2c:	bf96      	itet	ls
  109a2e:	2300      	movls	r3, #0
  109a30:	608b      	strhi	r3, [r1, #8]
  109a32:	9301      	strls	r3, [sp, #4]
  109a34:	680b      	ldr	r3, [r1, #0]
  109a36:	f04f 0b00 	mov.w	r11, #0
  109a3a:	f443 63f0 	orr.w	r3, r3, #1920	; 0x780
  109a3e:	f848 3b1c 	str.w	r3, [r8], #28
  109a42:	4607      	mov	r7, r0
  109a44:	460c      	mov	r4, r1
  109a46:	4645      	mov	r5, r8
  109a48:	465a      	mov	r2, r11
  109a4a:	46d9      	mov	r9, r11
  109a4c:	f8cd b010 	str.w	r11, [sp, #16]
  109a50:	f8cd b00c 	str.w	r11, [sp, #12]
  109a54:	f8cd b008 	str.w	r11, [sp, #8]
  109a58:	68a1      	ldr	r1, [r4, #8]
  109a5a:	2900      	cmp	r1, #0
  109a5c:	f000 80e5 	beq.w	109c2a <_scanf_float+0x222>
  109a60:	6833      	ldr	r3, [r6, #0]
  109a62:	781b      	ldrb	r3, [r3, #0]
  109a64:	2b49      	cmp	r3, #73	; 0x49
  109a66:	d070      	beq.n	109b4a <_scanf_float+0x142>
  109a68:	d816      	bhi.n	109a98 <_scanf_float+0x90>
  109a6a:	2b39      	cmp	r3, #57	; 0x39
  109a6c:	d80d      	bhi.n	109a8a <_scanf_float+0x82>
  109a6e:	2b31      	cmp	r3, #49	; 0x31
  109a70:	d240      	bcs.n	109af4 <_scanf_float+0xec>
  109a72:	2b2d      	cmp	r3, #45	; 0x2d
  109a74:	d046      	beq.n	109b04 <_scanf_float+0xfc>
  109a76:	d802      	bhi.n	109a7e <_scanf_float+0x76>
  109a78:	2b2b      	cmp	r3, #43	; 0x2b
  109a7a:	d043      	beq.n	109b04 <_scanf_float+0xfc>
  109a7c:	e0d5      	b.n	109c2a <_scanf_float+0x222>
  109a7e:	2b2e      	cmp	r3, #46	; 0x2e
  109a80:	f000 8092 	beq.w	109ba8 <_scanf_float+0x1a0>
  109a84:	2b30      	cmp	r3, #48	; 0x30
  109a86:	d023      	beq.n	109ad0 <_scanf_float+0xc8>
  109a88:	e0cf      	b.n	109c2a <_scanf_float+0x222>
  109a8a:	2b45      	cmp	r3, #69	; 0x45
  109a8c:	f000 8095 	beq.w	109bba <_scanf_float+0x1b2>
  109a90:	2b46      	cmp	r3, #70	; 0x46
  109a92:	d077      	beq.n	109b84 <_scanf_float+0x17c>
  109a94:	2b41      	cmp	r3, #65	; 0x41
  109a96:	e00c      	b.n	109ab2 <_scanf_float+0xaa>
  109a98:	2b65      	cmp	r3, #101	; 0x65
  109a9a:	f000 808e 	beq.w	109bba <_scanf_float+0x1b2>
  109a9e:	d80a      	bhi.n	109ab6 <_scanf_float+0xae>
  109aa0:	2b54      	cmp	r3, #84	; 0x54
  109aa2:	d075      	beq.n	109b90 <_scanf_float+0x188>
  109aa4:	d802      	bhi.n	109aac <_scanf_float+0xa4>
  109aa6:	2b4e      	cmp	r3, #78	; 0x4e
  109aa8:	d034      	beq.n	109b14 <_scanf_float+0x10c>
  109aaa:	e0be      	b.n	109c2a <_scanf_float+0x222>
  109aac:	2b59      	cmp	r3, #89	; 0x59
  109aae:	d075      	beq.n	109b9c <_scanf_float+0x194>
  109ab0:	2b61      	cmp	r3, #97	; 0x61
  109ab2:	d046      	beq.n	109b42 <_scanf_float+0x13a>
  109ab4:	e0b9      	b.n	109c2a <_scanf_float+0x222>
  109ab6:	2b6e      	cmp	r3, #110	; 0x6e
  109ab8:	d02c      	beq.n	109b14 <_scanf_float+0x10c>
  109aba:	d804      	bhi.n	109ac6 <_scanf_float+0xbe>
  109abc:	2b66      	cmp	r3, #102	; 0x66
  109abe:	d061      	beq.n	109b84 <_scanf_float+0x17c>
  109ac0:	2b69      	cmp	r3, #105	; 0x69
  109ac2:	d042      	beq.n	109b4a <_scanf_float+0x142>
  109ac4:	e0b1      	b.n	109c2a <_scanf_float+0x222>
  109ac6:	2b74      	cmp	r3, #116	; 0x74
  109ac8:	d062      	beq.n	109b90 <_scanf_float+0x188>
  109aca:	2b79      	cmp	r3, #121	; 0x79
  109acc:	d066      	beq.n	109b9c <_scanf_float+0x194>
  109ace:	e0ac      	b.n	109c2a <_scanf_float+0x222>
  109ad0:	6820      	ldr	r0, [r4, #0]
  109ad2:	f410 7f80 	tst.w	r0, #256	; 0x100
  109ad6:	d00d      	beq.n	109af4 <_scanf_float+0xec>
  109ad8:	9b01      	ldr	r3, [sp, #4]
  109ada:	f020 0080 	bic.w	r0, r0, #128	; 0x80
  109ade:	6020      	str	r0, [r4, #0]
  109ae0:	f109 0901 	add.w	r9, r9, #1
  109ae4:	2b00      	cmp	r3, #0
  109ae6:	f000 8087 	beq.w	109bf8 <_scanf_float+0x1f0>
  109aea:	3b01      	subs	r3, #1
  109aec:	3101      	adds	r1, #1
  109aee:	9301      	str	r3, [sp, #4]
  109af0:	60a1      	str	r1, [r4, #8]
  109af2:	e081      	b.n	109bf8 <_scanf_float+0x1f0>
  109af4:	eb12 0f0b 	cmn.w	r2, r11
  109af8:	f040 8097 	bne.w	109c2a <_scanf_float+0x222>
  109afc:	6821      	ldr	r1, [r4, #0]
  109afe:	f421 71c0 	bic.w	r1, r1, #384	; 0x180
  109b02:	e005      	b.n	109b10 <_scanf_float+0x108>
  109b04:	6821      	ldr	r1, [r4, #0]
  109b06:	0608      	lsls	r0, r1, #24
  109b08:	f140 808f 	bpl.w	109c2a <_scanf_float+0x222>
  109b0c:	f021 0180 	bic.w	r1, r1, #128	; 0x80
  109b10:	6021      	str	r1, [r4, #0]
  109b12:	e06f      	b.n	109bf4 <_scanf_float+0x1ec>
  109b14:	b96a      	cbnz	r2, 109b32 <_scanf_float+0x12a>
  109b16:	f1b9 0f00 	cmp.w	r9, #0
  109b1a:	d10c      	bne.n	109b36 <_scanf_float+0x12e>
  109b1c:	6821      	ldr	r1, [r4, #0]
  109b1e:	f401 60e0 	and.w	r0, r1, #1792	; 0x700
  109b22:	f5b0 6fe0 	cmp.w	r0, #1792	; 0x700
  109b26:	d106      	bne.n	109b36 <_scanf_float+0x12e>
  109b28:	f421 61f0 	bic.w	r1, r1, #1920	; 0x780
  109b2c:	6021      	str	r1, [r4, #0]
  109b2e:	2201      	movs	r2, #1
  109b30:	e060      	b.n	109bf4 <_scanf_float+0x1ec>
  109b32:	2a02      	cmp	r2, #2
  109b34:	d05d      	beq.n	109bf2 <_scanf_float+0x1ea>
  109b36:	f1bb 0f01 	cmp.w	r11, #1
  109b3a:	d01e      	beq.n	109b7a <_scanf_float+0x172>
  109b3c:	f1bb 0f04 	cmp.w	r11, #4
  109b40:	e01a      	b.n	109b78 <_scanf_float+0x170>
  109b42:	2a01      	cmp	r2, #1
  109b44:	d171      	bne.n	109c2a <_scanf_float+0x222>
  109b46:	2202      	movs	r2, #2
  109b48:	e054      	b.n	109bf4 <_scanf_float+0x1ec>
  109b4a:	f1bb 0f00 	cmp.w	r11, #0
  109b4e:	d10e      	bne.n	109b6e <_scanf_float+0x166>
  109b50:	f1b9 0f00 	cmp.w	r9, #0
  109b54:	d16c      	bne.n	109c30 <_scanf_float+0x228>
  109b56:	6821      	ldr	r1, [r4, #0]
  109b58:	f401 60e0 	and.w	r0, r1, #1792	; 0x700
  109b5c:	f5b0 6fe0 	cmp.w	r0, #1792	; 0x700
  109b60:	d16a      	bne.n	109c38 <_scanf_float+0x230>
  109b62:	f421 61f0 	bic.w	r1, r1, #1920	; 0x780
  109b66:	6021      	str	r1, [r4, #0]
  109b68:	f04f 0b01 	mov.w	r11, #1
  109b6c:	e042      	b.n	109bf4 <_scanf_float+0x1ec>
  109b6e:	f1bb 0f03 	cmp.w	r11, #3
  109b72:	d002      	beq.n	109b7a <_scanf_float+0x172>
  109b74:	f1bb 0f05 	cmp.w	r11, #5
  109b78:	d157      	bne.n	109c2a <_scanf_float+0x222>
  109b7a:	f10b 0b01 	add.w	r11, r11, #1
  109b7e:	fa5f fb8b 	uxtb.w	r11, r11
  109b82:	e037      	b.n	109bf4 <_scanf_float+0x1ec>
  109b84:	f1bb 0f02 	cmp.w	r11, #2
  109b88:	d14f      	bne.n	109c2a <_scanf_float+0x222>
  109b8a:	f04f 0b03 	mov.w	r11, #3
  109b8e:	e031      	b.n	109bf4 <_scanf_float+0x1ec>
  109b90:	f1bb 0f06 	cmp.w	r11, #6
  109b94:	d149      	bne.n	109c2a <_scanf_float+0x222>
  109b96:	f04f 0b07 	mov.w	r11, #7
  109b9a:	e02b      	b.n	109bf4 <_scanf_float+0x1ec>
  109b9c:	f1bb 0f07 	cmp.w	r11, #7
  109ba0:	d143      	bne.n	109c2a <_scanf_float+0x222>
  109ba2:	f04f 0b08 	mov.w	r11, #8
  109ba6:	e025      	b.n	109bf4 <_scanf_float+0x1ec>
  109ba8:	6821      	ldr	r1, [r4, #0]
  109baa:	0588      	lsls	r0, r1, #22
  109bac:	d53d      	bpl.n	109c2a <_scanf_float+0x222>
  109bae:	f421 7120 	bic.w	r1, r1, #640	; 0x280
  109bb2:	6021      	str	r1, [r4, #0]
  109bb4:	f8cd 9008 	str.w	r9, [sp, #8]
  109bb8:	e01c      	b.n	109bf4 <_scanf_float+0x1ec>
  109bba:	6821      	ldr	r1, [r4, #0]
  109bbc:	f401 60a0 	and.w	r0, r1, #1280	; 0x500
  109bc0:	f5b0 6f80 	cmp.w	r0, #1024	; 0x400
  109bc4:	d004      	beq.n	109bd0 <_scanf_float+0x1c8>
  109bc6:	0548      	lsls	r0, r1, #21
  109bc8:	d52f      	bpl.n	109c2a <_scanf_float+0x222>
  109bca:	f1b9 0f00 	cmp.w	r9, #0
  109bce:	d033      	beq.n	109c38 <_scanf_float+0x230>
  109bd0:	0588      	lsls	r0, r1, #22
  109bd2:	bf58      	it	pl
  109bd4:	9802      	ldrpl	r0, [sp, #8]
  109bd6:	f421 61f0 	bic.w	r1, r1, #1920	; 0x780
  109bda:	bf58      	it	pl
  109bdc:	ebc0 0009 	rsbpl	r0, r0, r9
  109be0:	f441 71c0 	orr.w	r1, r1, #384	; 0x180
  109be4:	bf5c      	itt	pl
  109be6:	9003      	strpl	r0, [sp, #12]
  109be8:	9504      	strpl	r5, [sp, #16]
  109bea:	6021      	str	r1, [r4, #0]
  109bec:	f04f 0900 	mov.w	r9, #0
  109bf0:	e000      	b.n	109bf4 <_scanf_float+0x1ec>
  109bf2:	2203      	movs	r2, #3
  109bf4:	702b      	strb	r3, [r5, #0]
  109bf6:	3501      	adds	r5, #1
  109bf8:	68a3      	ldr	r3, [r4, #8]
  109bfa:	3b01      	subs	r3, #1
  109bfc:	60a3      	str	r3, [r4, #8]
  109bfe:	6923      	ldr	r3, [r4, #16]
  109c00:	3301      	adds	r3, #1
  109c02:	6123      	str	r3, [r4, #16]
  109c04:	6873      	ldr	r3, [r6, #4]
  109c06:	3b01      	subs	r3, #1
  109c08:	2b00      	cmp	r3, #0
  109c0a:	6073      	str	r3, [r6, #4]
  109c0c:	dd03      	ble.n	109c16 <_scanf_float+0x20e>
  109c0e:	6833      	ldr	r3, [r6, #0]
  109c10:	3301      	adds	r3, #1
  109c12:	6033      	str	r3, [r6, #0]
  109c14:	e720      	b.n	109a58 <_scanf_float+0x50>
  109c16:	f8d4 3180 	ldr.w	r3, [r4, #384]	; 0x180
  109c1a:	4631      	mov	r1, r6
  109c1c:	4638      	mov	r0, r7
  109c1e:	9205      	str	r2, [sp, #20]
  109c20:	4798      	blx	r3
  109c22:	9a05      	ldr	r2, [sp, #20]
  109c24:	2800      	cmp	r0, #0
  109c26:	f43f af17 	beq.w	109a58 <_scanf_float+0x50>
  109c2a:	f1b9 0f00 	cmp.w	r9, #0
  109c2e:	d003      	beq.n	109c38 <_scanf_float+0x230>
  109c30:	6823      	ldr	r3, [r4, #0]
  109c32:	f423 7380 	bic.w	r3, r3, #256	; 0x100
  109c36:	6023      	str	r3, [r4, #0]
  109c38:	3a01      	subs	r2, #1
  109c3a:	2a01      	cmp	r2, #1
  109c3c:	d80e      	bhi.n	109c5c <_scanf_float+0x254>
  109c3e:	4545      	cmp	r5, r8
  109c40:	d90a      	bls.n	109c58 <_scanf_float+0x250>
  109c42:	f8d4 317c 	ldr.w	r3, [r4, #380]	; 0x17c
  109c46:	4632      	mov	r2, r6
  109c48:	f815 1d01 	ldrb.w	r1, [r5, #-1]!
  109c4c:	4638      	mov	r0, r7
  109c4e:	4798      	blx	r3
  109c50:	6923      	ldr	r3, [r4, #16]
  109c52:	3b01      	subs	r3, #1
  109c54:	6123      	str	r3, [r4, #16]
  109c56:	e7f2      	b.n	109c3e <_scanf_float+0x236>
  109c58:	2601      	movs	r6, #1
  109c5a:	e0aa      	b.n	109db2 <_scanf_float+0x3aa>
  109c5c:	f10b 33ff 	add.w	r3, r11, #4294967295
  109c60:	2b06      	cmp	r3, #6
  109c62:	d822      	bhi.n	109caa <_scanf_float+0x2a2>
  109c64:	f1bb 0f02 	cmp.w	r11, #2
  109c68:	d912      	bls.n	109c90 <_scanf_float+0x288>
  109c6a:	f1ab 0b03 	sub.w	r11, r11, #3
  109c6e:	fa5f fb8b 	uxtb.w	r11, r11
  109c72:	ebcb 0b05 	rsb	r11, r11, r5
  109c76:	455d      	cmp	r5, r11
  109c78:	d017      	beq.n	109caa <_scanf_float+0x2a2>
  109c7a:	f8d4 317c 	ldr.w	r3, [r4, #380]	; 0x17c
  109c7e:	4632      	mov	r2, r6
  109c80:	f815 1d01 	ldrb.w	r1, [r5, #-1]!
  109c84:	4638      	mov	r0, r7
  109c86:	4798      	blx	r3
  109c88:	6923      	ldr	r3, [r4, #16]
  109c8a:	3b01      	subs	r3, #1
  109c8c:	6123      	str	r3, [r4, #16]
  109c8e:	e7f2      	b.n	109c76 <_scanf_float+0x26e>
  109c90:	4545      	cmp	r5, r8
  109c92:	d9e1      	bls.n	109c58 <_scanf_float+0x250>
  109c94:	f8d4 317c 	ldr.w	r3, [r4, #380]	; 0x17c
  109c98:	4632      	mov	r2, r6
  109c9a:	f815 1d01 	ldrb.w	r1, [r5, #-1]!
  109c9e:	4638      	mov	r0, r7
  109ca0:	4798      	blx	r3
  109ca2:	6923      	ldr	r3, [r4, #16]
  109ca4:	3b01      	subs	r3, #1
  109ca6:	6123      	str	r3, [r4, #16]
  109ca8:	e7f2      	b.n	109c90 <_scanf_float+0x288>
  109caa:	6823      	ldr	r3, [r4, #0]
  109cac:	05da      	lsls	r2, r3, #23
  109cae:	d52c      	bpl.n	109d0a <_scanf_float+0x302>
  109cb0:	055b      	lsls	r3, r3, #21
  109cb2:	d50c      	bpl.n	109cce <_scanf_float+0x2c6>
  109cb4:	4545      	cmp	r5, r8
  109cb6:	d9cf      	bls.n	109c58 <_scanf_float+0x250>
  109cb8:	f8d4 317c 	ldr.w	r3, [r4, #380]	; 0x17c
  109cbc:	4632      	mov	r2, r6
  109cbe:	f815 1d01 	ldrb.w	r1, [r5, #-1]!
  109cc2:	4638      	mov	r0, r7
  109cc4:	4798      	blx	r3
  109cc6:	6923      	ldr	r3, [r4, #16]
  109cc8:	3b01      	subs	r3, #1
  109cca:	6123      	str	r3, [r4, #16]
  109ccc:	e7f2      	b.n	109cb4 <_scanf_float+0x2ac>
  109cce:	f815 1c01 	ldrb.w	r1, [r5, #-1]
  109cd2:	6923      	ldr	r3, [r4, #16]
  109cd4:	2965      	cmp	r1, #101	; 0x65
  109cd6:	f103 33ff 	add.w	r3, r3, #4294967295
  109cda:	f105 3bff 	add.w	r11, r5, #4294967295
  109cde:	6123      	str	r3, [r4, #16]
  109ce0:	d00d      	beq.n	109cfe <_scanf_float+0x2f6>
  109ce2:	2945      	cmp	r1, #69	; 0x45
  109ce4:	d00b      	beq.n	109cfe <_scanf_float+0x2f6>
  109ce6:	f8d4 317c 	ldr.w	r3, [r4, #380]	; 0x17c
  109cea:	4632      	mov	r2, r6
  109cec:	4638      	mov	r0, r7
  109cee:	4798      	blx	r3
  109cf0:	6923      	ldr	r3, [r4, #16]
  109cf2:	f815 1c02 	ldrb.w	r1, [r5, #-2]
  109cf6:	3b01      	subs	r3, #1
  109cf8:	f1a5 0b02 	sub.w	r11, r5, #2
  109cfc:	6123      	str	r3, [r4, #16]
  109cfe:	f8d4 317c 	ldr.w	r3, [r4, #380]	; 0x17c
  109d02:	4632      	mov	r2, r6
  109d04:	4638      	mov	r0, r7
  109d06:	4798      	blx	r3
  109d08:	465d      	mov	r5, r11
  109d0a:	6826      	ldr	r6, [r4, #0]
  109d0c:	f016 0610 	ands.w	r6, r6, #16
  109d10:	d14e      	bne.n	109db0 <_scanf_float+0x3a8>
  109d12:	702e      	strb	r6, [r5, #0]
  109d14:	6823      	ldr	r3, [r4, #0]
  109d16:	f403 63c0 	and.w	r3, r3, #1536	; 0x600
  109d1a:	f5b3 6f80 	cmp.w	r3, #1024	; 0x400
  109d1e:	d105      	bne.n	109d2c <_scanf_float+0x324>
  109d20:	9b02      	ldr	r3, [sp, #8]
  109d22:	ebc3 0309 	rsb	r3, r3, r9
  109d26:	425a      	negs	r2, r3
  109d28:	b963      	cbnz	r3, 109d44 <_scanf_float+0x33c>
  109d2a:	e015      	b.n	109d58 <_scanf_float+0x350>
  109d2c:	9b03      	ldr	r3, [sp, #12]
  109d2e:	b19b      	cbz	r3, 109d58 <_scanf_float+0x350>
  109d30:	9904      	ldr	r1, [sp, #16]
  109d32:	230a      	movs	r3, #10
  109d34:	4632      	mov	r2, r6
  109d36:	3101      	adds	r1, #1
  109d38:	4638      	mov	r0, r7
  109d3a:	f001 fa7d 	bl	10b238 <_strtol_r>
  109d3e:	9b03      	ldr	r3, [sp, #12]
  109d40:	9d04      	ldr	r5, [sp, #16]
  109d42:	1ac2      	subs	r2, r0, r3
  109d44:	f204 136f 	addw	r3, r4, #367	; 0x16f
  109d48:	429d      	cmp	r5, r3
  109d4a:	bf28      	it	cs
  109d4c:	f504 75b7 	addcs.w	r5, r4, #366	; 0x16e
  109d50:	491a      	ldr	r1, [pc, #104]	; (109dbc <_scanf_float+0x3b4>)
  109d52:	4628      	mov	r0, r5
  109d54:	f000 fb92 	bl	10a47c <siprintf>
  109d58:	2200      	movs	r2, #0
  109d5a:	4641      	mov	r1, r8
  109d5c:	4638      	mov	r0, r7
  109d5e:	f000 fc6b 	bl	10a638 <_strtod_r>
  109d62:	6822      	ldr	r2, [r4, #0]
  109d64:	4680      	mov	r8, r0
  109d66:	f012 0f02 	tst.w	r2, #2
  109d6a:	4689      	mov	r9, r1
  109d6c:	f8da 3000 	ldr.w	r3, [r10]
  109d70:	d003      	beq.n	109d7a <_scanf_float+0x372>
  109d72:	1d1a      	adds	r2, r3, #4
  109d74:	f8ca 2000 	str.w	r2, [r10]
  109d78:	e006      	b.n	109d88 <_scanf_float+0x380>
  109d7a:	f012 0f04 	tst.w	r2, #4
  109d7e:	f103 0204 	add.w	r2, r3, #4
  109d82:	f8ca 2000 	str.w	r2, [r10]
  109d86:	d003      	beq.n	109d90 <_scanf_float+0x388>
  109d88:	681b      	ldr	r3, [r3, #0]
  109d8a:	e9c3 8900 	strd	r8, r9, [r3]
  109d8e:	e00b      	b.n	109da8 <_scanf_float+0x3a0>
  109d90:	681d      	ldr	r5, [r3, #0]
  109d92:	f000 fa77 	bl	10a284 <__fpclassifyd>
  109d96:	b910      	cbnz	r0, 109d9e <_scanf_float+0x396>
  109d98:	f000 fb6c 	bl	10a474 <nanf>
  109d9c:	e003      	b.n	109da6 <_scanf_float+0x39e>
  109d9e:	4640      	mov	r0, r8
  109da0:	4649      	mov	r1, r9
  109da2:	f004 f869 	bl	10de78 <__aeabi_d2f>
  109da6:	6028      	str	r0, [r5, #0]
  109da8:	68e3      	ldr	r3, [r4, #12]
  109daa:	3301      	adds	r3, #1
  109dac:	60e3      	str	r3, [r4, #12]
  109dae:	e000      	b.n	109db2 <_scanf_float+0x3aa>
  109db0:	2600      	movs	r6, #0
  109db2:	4630      	mov	r0, r6
  109db4:	b007      	add	sp, #28
  109db6:	e8bd 8ff0 	ldmia.w	sp!, {r4, r5, r6, r7, r8, r9, r10, r11, pc}
  109dba:	bf00      	nop
  109dbc:	0010e936 	.word	0x0010e936

00109dc0 <_scanf_chars>:
  109dc0:	e92d 43f8 	stmdb	sp!, {r3, r4, r5, r6, r7, r8, r9, lr}
  109dc4:	4615      	mov	r5, r2
  109dc6:	688a      	ldr	r2, [r1, #8]
  109dc8:	4680      	mov	r8, r0
  109dca:	460c      	mov	r4, r1
  109dcc:	b932      	cbnz	r2, 109ddc <_scanf_chars+0x1c>
  109dce:	698a      	ldr	r2, [r1, #24]
  109dd0:	2a00      	cmp	r2, #0
  109dd2:	bf0c      	ite	eq
  109dd4:	2201      	moveq	r2, #1
  109dd6:	f04f 32ff 	movne.w	r2, #4294967295
  109dda:	608a      	str	r2, [r1, #8]
  109ddc:	6822      	ldr	r2, [r4, #0]
  109dde:	f8df 90a8 	ldr.w	r9, [pc, #168]	; 109e88 <_scanf_chars+0xc8>
  109de2:	06d1      	lsls	r1, r2, #27
  109de4:	bf58      	it	pl
  109de6:	681a      	ldrpl	r2, [r3, #0]
  109de8:	f04f 0600 	mov.w	r6, #0
  109dec:	bf5e      	ittt	pl
  109dee:	1d11      	addpl	r1, r2, #4
  109df0:	6019      	strpl	r1, [r3, #0]
  109df2:	6817      	ldrpl	r7, [r2, #0]
  109df4:	69a0      	ldr	r0, [r4, #24]
  109df6:	b9f8      	cbnz	r0, 109e38 <_scanf_chars+0x78>
  109df8:	6823      	ldr	r3, [r4, #0]
  109dfa:	3601      	adds	r6, #1
  109dfc:	06da      	lsls	r2, r3, #27
  109dfe:	bf5e      	ittt	pl
  109e00:	682b      	ldrpl	r3, [r5, #0]
  109e02:	781b      	ldrbpl	r3, [r3, #0]
  109e04:	703b      	strbpl	r3, [r7, #0]
  109e06:	682a      	ldr	r2, [r5, #0]
  109e08:	686b      	ldr	r3, [r5, #4]
  109e0a:	f102 0201 	add.w	r2, r2, #1
  109e0e:	602a      	str	r2, [r5, #0]
  109e10:	68a2      	ldr	r2, [r4, #8]
  109e12:	f103 33ff 	add.w	r3, r3, #4294967295
  109e16:	f102 32ff 	add.w	r2, r2, #4294967295
  109e1a:	606b      	str	r3, [r5, #4]
  109e1c:	bf58      	it	pl
  109e1e:	3701      	addpl	r7, #1
  109e20:	60a2      	str	r2, [r4, #8]
  109e22:	b1e2      	cbz	r2, 109e5e <_scanf_chars+0x9e>
  109e24:	2b00      	cmp	r3, #0
  109e26:	dce5      	bgt.n	109df4 <_scanf_chars+0x34>
  109e28:	f8d4 3180 	ldr.w	r3, [r4, #384]	; 0x180
  109e2c:	4629      	mov	r1, r5
  109e2e:	4640      	mov	r0, r8
  109e30:	4798      	blx	r3
  109e32:	2800      	cmp	r0, #0
  109e34:	d0de      	beq.n	109df4 <_scanf_chars+0x34>
  109e36:	e012      	b.n	109e5e <_scanf_chars+0x9e>
  109e38:	2801      	cmp	r0, #1
  109e3a:	d106      	bne.n	109e4a <_scanf_chars+0x8a>
  109e3c:	682b      	ldr	r3, [r5, #0]
  109e3e:	781a      	ldrb	r2, [r3, #0]
  109e40:	6963      	ldr	r3, [r4, #20]
  109e42:	5c9b      	ldrb	r3, [r3, r2]
  109e44:	2b00      	cmp	r3, #0
  109e46:	d1d7      	bne.n	109df8 <_scanf_chars+0x38>
  109e48:	e019      	b.n	109e7e <_scanf_chars+0xbe>
  109e4a:	2802      	cmp	r0, #2
  109e4c:	d107      	bne.n	109e5e <_scanf_chars+0x9e>
  109e4e:	682b      	ldr	r3, [r5, #0]
  109e50:	f8d9 2000 	ldr.w	r2, [r9]
  109e54:	781b      	ldrb	r3, [r3, #0]
  109e56:	4413      	add	r3, r2
  109e58:	785b      	ldrb	r3, [r3, #1]
  109e5a:	071b      	lsls	r3, r3, #28
  109e5c:	d5cc      	bpl.n	109df8 <_scanf_chars+0x38>
  109e5e:	6823      	ldr	r3, [r4, #0]
  109e60:	f013 0310 	ands.w	r3, r3, #16
  109e64:	d105      	bne.n	109e72 <_scanf_chars+0xb2>
  109e66:	68e2      	ldr	r2, [r4, #12]
  109e68:	3201      	adds	r2, #1
  109e6a:	60e2      	str	r2, [r4, #12]
  109e6c:	69a2      	ldr	r2, [r4, #24]
  109e6e:	b102      	cbz	r2, 109e72 <_scanf_chars+0xb2>
  109e70:	703b      	strb	r3, [r7, #0]
  109e72:	6923      	ldr	r3, [r4, #16]
  109e74:	2000      	movs	r0, #0
  109e76:	441e      	add	r6, r3
  109e78:	6126      	str	r6, [r4, #16]
  109e7a:	e8bd 83f8 	ldmia.w	sp!, {r3, r4, r5, r6, r7, r8, r9, pc}
  109e7e:	2e00      	cmp	r6, #0
  109e80:	d1ed      	bne.n	109e5e <_scanf_chars+0x9e>
  109e82:	e8bd 83f8 	ldmia.w	sp!, {r3, r4, r5, r6, r7, r8, r9, pc}
  109e86:	bf00      	nop
  109e88:	3fff40a0 	.word	0x3fff40a0

00109e8c <_scanf_i>:
  109e8c:	e92d 4ff0 	stmdb	sp!, {r4, r5, r6, r7, r8, r9, r10, r11, lr}
  109e90:	460c      	mov	r4, r1
  109e92:	469a      	mov	r10, r3
  109e94:	4b72      	ldr	r3, [pc, #456]	; (10a060 <_scanf_i+0x1d4>)
  109e96:	b087      	sub	sp, #28
  109e98:	4683      	mov	r11, r0
  109e9a:	4616      	mov	r6, r2
  109e9c:	e893 0007 	ldmia.w	r3, {r0, r1, r2}
  109ea0:	ab03      	add	r3, sp, #12
  109ea2:	68a7      	ldr	r7, [r4, #8]
  109ea4:	e883 0007 	stmia.w	r3, {r0, r1, r2}
  109ea8:	4b6e      	ldr	r3, [pc, #440]	; (10a064 <_scanf_i+0x1d8>)
  109eaa:	69a1      	ldr	r1, [r4, #24]
  109eac:	4a6e      	ldr	r2, [pc, #440]	; (10a068 <_scanf_i+0x1dc>)
  109eae:	f104 091c 	add.w	r9, r4, #28
  109eb2:	2903      	cmp	r1, #3
  109eb4:	bf18      	it	ne
  109eb6:	461a      	movne	r2, r3
  109eb8:	1e7b      	subs	r3, r7, #1
  109eba:	f5b3 7fae 	cmp.w	r3, #348	; 0x15c
  109ebe:	bf84      	itt	hi
  109ec0:	f240 135d 	movwhi	r3, #349	; 0x15d
  109ec4:	60a3      	strhi	r3, [r4, #8]
  109ec6:	6823      	ldr	r3, [r4, #0]
  109ec8:	bf88      	it	hi
  109eca:	f46f 75ae 	mvnhi.w	r5, #348	; 0x15c
  109ece:	f443 6350 	orr.w	r3, r3, #3328	; 0xd00
  109ed2:	6023      	str	r3, [r4, #0]
  109ed4:	464b      	mov	r3, r9
  109ed6:	9200      	str	r2, [sp, #0]
  109ed8:	bf8c      	ite	hi
  109eda:	197f      	addhi	r7, r7, r5
  109edc:	2700      	movls	r7, #0
  109ede:	f04f 0800 	mov.w	r8, #0
  109ee2:	6831      	ldr	r1, [r6, #0]
  109ee4:	9301      	str	r3, [sp, #4]
  109ee6:	ab03      	add	r3, sp, #12
  109ee8:	f853 0028 	ldr.w	r0, [r3, r8, lsl #2]
  109eec:	2202      	movs	r2, #2
  109eee:	7809      	ldrb	r1, [r1, #0]
  109ef0:	f7ff f852 	bl	108f98 <memchr>
  109ef4:	9b01      	ldr	r3, [sp, #4]
  109ef6:	2800      	cmp	r0, #0
  109ef8:	d033      	beq.n	109f62 <_scanf_i+0xd6>
  109efa:	f1b8 0f01 	cmp.w	r8, #1
  109efe:	d10b      	bne.n	109f18 <_scanf_i+0x8c>
  109f00:	6862      	ldr	r2, [r4, #4]
  109f02:	b92a      	cbnz	r2, 109f10 <_scanf_i+0x84>
  109f04:	2208      	movs	r2, #8
  109f06:	6062      	str	r2, [r4, #4]
  109f08:	6822      	ldr	r2, [r4, #0]
  109f0a:	f442 7200 	orr.w	r2, r2, #512	; 0x200
  109f0e:	6022      	str	r2, [r4, #0]
  109f10:	6822      	ldr	r2, [r4, #0]
  109f12:	f422 62a0 	bic.w	r2, r2, #1280	; 0x500
  109f16:	e00c      	b.n	109f32 <_scanf_i+0xa6>
  109f18:	f1b8 0f02 	cmp.w	r8, #2
  109f1c:	d10a      	bne.n	109f34 <_scanf_i+0xa8>
  109f1e:	6822      	ldr	r2, [r4, #0]
  109f20:	f402 61c0 	and.w	r1, r2, #1536	; 0x600
  109f24:	f5b1 7f00 	cmp.w	r1, #512	; 0x200
  109f28:	d11b      	bne.n	109f62 <_scanf_i+0xd6>
  109f2a:	2110      	movs	r1, #16
  109f2c:	6061      	str	r1, [r4, #4]
  109f2e:	f442 7280 	orr.w	r2, r2, #256	; 0x100
  109f32:	6022      	str	r2, [r4, #0]
  109f34:	68a2      	ldr	r2, [r4, #8]
  109f36:	1e51      	subs	r1, r2, #1
  109f38:	60a1      	str	r1, [r4, #8]
  109f3a:	b192      	cbz	r2, 109f62 <_scanf_i+0xd6>
  109f3c:	6832      	ldr	r2, [r6, #0]
  109f3e:	1c5d      	adds	r5, r3, #1
  109f40:	1c51      	adds	r1, r2, #1
  109f42:	6031      	str	r1, [r6, #0]
  109f44:	7812      	ldrb	r2, [r2, #0]
  109f46:	701a      	strb	r2, [r3, #0]
  109f48:	6873      	ldr	r3, [r6, #4]
  109f4a:	3b01      	subs	r3, #1
  109f4c:	2b00      	cmp	r3, #0
  109f4e:	6073      	str	r3, [r6, #4]
  109f50:	dc06      	bgt.n	109f60 <_scanf_i+0xd4>
  109f52:	f8d4 3180 	ldr.w	r3, [r4, #384]	; 0x180
  109f56:	4631      	mov	r1, r6
  109f58:	4658      	mov	r0, r11
  109f5a:	4798      	blx	r3
  109f5c:	2800      	cmp	r0, #0
  109f5e:	d141      	bne.n	109fe4 <_scanf_i+0x158>
  109f60:	462b      	mov	r3, r5
  109f62:	f108 0801 	add.w	r8, r8, #1
  109f66:	f1b8 0f03 	cmp.w	r8, #3
  109f6a:	d1ba      	bne.n	109ee2 <_scanf_i+0x56>
  109f6c:	6862      	ldr	r2, [r4, #4]
  109f6e:	b90a      	cbnz	r2, 109f74 <_scanf_i+0xe8>
  109f70:	220a      	movs	r2, #10
  109f72:	6062      	str	r2, [r4, #4]
  109f74:	6862      	ldr	r2, [r4, #4]
  109f76:	493d      	ldr	r1, [pc, #244]	; (10a06c <_scanf_i+0x1e0>)
  109f78:	6960      	ldr	r0, [r4, #20]
  109f7a:	1a89      	subs	r1, r1, r2
  109f7c:	9301      	str	r3, [sp, #4]
  109f7e:	f000 f9b9 	bl	10a2f4 <__sccl>
  109f82:	9b01      	ldr	r3, [sp, #4]
  109f84:	f04f 0800 	mov.w	r8, #0
  109f88:	461d      	mov	r5, r3
  109f8a:	68a3      	ldr	r3, [r4, #8]
  109f8c:	b363      	cbz	r3, 109fe8 <_scanf_i+0x15c>
  109f8e:	6831      	ldr	r1, [r6, #0]
  109f90:	6960      	ldr	r0, [r4, #20]
  109f92:	780a      	ldrb	r2, [r1, #0]
  109f94:	5c80      	ldrb	r0, [r0, r2]
  109f96:	b338      	cbz	r0, 109fe8 <_scanf_i+0x15c>
  109f98:	2a30      	cmp	r2, #48	; 0x30
  109f9a:	6822      	ldr	r2, [r4, #0]
  109f9c:	d108      	bne.n	109fb0 <_scanf_i+0x124>
  109f9e:	0510      	lsls	r0, r2, #20
  109fa0:	d506      	bpl.n	109fb0 <_scanf_i+0x124>
  109fa2:	f108 0801 	add.w	r8, r8, #1
  109fa6:	b157      	cbz	r7, 109fbe <_scanf_i+0x132>
  109fa8:	3301      	adds	r3, #1
  109faa:	3f01      	subs	r7, #1
  109fac:	60a3      	str	r3, [r4, #8]
  109fae:	e006      	b.n	109fbe <_scanf_i+0x132>
  109fb0:	f422 6210 	bic.w	r2, r2, #2304	; 0x900
  109fb4:	6022      	str	r2, [r4, #0]
  109fb6:	780b      	ldrb	r3, [r1, #0]
  109fb8:	3501      	adds	r5, #1
  109fba:	f805 3c01 	strb.w	r3, [r5, #-1]
  109fbe:	6873      	ldr	r3, [r6, #4]
  109fc0:	3b01      	subs	r3, #1
  109fc2:	2b00      	cmp	r3, #0
  109fc4:	6073      	str	r3, [r6, #4]
  109fc6:	dd03      	ble.n	109fd0 <_scanf_i+0x144>
  109fc8:	6833      	ldr	r3, [r6, #0]
  109fca:	3301      	adds	r3, #1
  109fcc:	6033      	str	r3, [r6, #0]
  109fce:	e005      	b.n	109fdc <_scanf_i+0x150>
  109fd0:	f8d4 3180 	ldr.w	r3, [r4, #384]	; 0x180
  109fd4:	4631      	mov	r1, r6
  109fd6:	4658      	mov	r0, r11
  109fd8:	4798      	blx	r3
  109fda:	b928      	cbnz	r0, 109fe8 <_scanf_i+0x15c>
  109fdc:	68a3      	ldr	r3, [r4, #8]
  109fde:	3b01      	subs	r3, #1
  109fe0:	60a3      	str	r3, [r4, #8]
  109fe2:	e7d2      	b.n	109f8a <_scanf_i+0xfe>
  109fe4:	f04f 0800 	mov.w	r8, #0
  109fe8:	6823      	ldr	r3, [r4, #0]
  109fea:	05d9      	lsls	r1, r3, #23
  109fec:	d50c      	bpl.n	10a008 <_scanf_i+0x17c>
  109fee:	454d      	cmp	r5, r9
  109ff0:	d908      	bls.n	10a004 <_scanf_i+0x178>
  109ff2:	f815 1c01 	ldrb.w	r1, [r5, #-1]
  109ff6:	1e6f      	subs	r7, r5, #1
  109ff8:	f8d4 317c 	ldr.w	r3, [r4, #380]	; 0x17c
  109ffc:	4632      	mov	r2, r6
  109ffe:	4658      	mov	r0, r11
  10a000:	4798      	blx	r3
  10a002:	463d      	mov	r5, r7
  10a004:	454d      	cmp	r5, r9
  10a006:	d027      	beq.n	10a058 <_scanf_i+0x1cc>
  10a008:	6822      	ldr	r2, [r4, #0]
  10a00a:	f012 0210 	ands.w	r2, r2, #16
  10a00e:	d11b      	bne.n	10a048 <_scanf_i+0x1bc>
  10a010:	702a      	strb	r2, [r5, #0]
  10a012:	6863      	ldr	r3, [r4, #4]
  10a014:	4649      	mov	r1, r9
  10a016:	4658      	mov	r0, r11
  10a018:	9e00      	ldr	r6, [sp, #0]
  10a01a:	47b0      	blx	r6
  10a01c:	6822      	ldr	r2, [r4, #0]
  10a01e:	f8da 3000 	ldr.w	r3, [r10]
  10a022:	f012 0f20 	tst.w	r2, #32
  10a026:	d107      	bne.n	10a038 <_scanf_i+0x1ac>
  10a028:	07d2      	lsls	r2, r2, #31
  10a02a:	d505      	bpl.n	10a038 <_scanf_i+0x1ac>
  10a02c:	1d1a      	adds	r2, r3, #4
  10a02e:	f8ca 2000 	str.w	r2, [r10]
  10a032:	681b      	ldr	r3, [r3, #0]
  10a034:	8018      	strh	r0, [r3, #0]
  10a036:	e004      	b.n	10a042 <_scanf_i+0x1b6>
  10a038:	1d1a      	adds	r2, r3, #4
  10a03a:	f8ca 2000 	str.w	r2, [r10]
  10a03e:	681b      	ldr	r3, [r3, #0]
  10a040:	6018      	str	r0, [r3, #0]
  10a042:	68e3      	ldr	r3, [r4, #12]
  10a044:	3301      	adds	r3, #1
  10a046:	60e3      	str	r3, [r4, #12]
  10a048:	6923      	ldr	r3, [r4, #16]
  10a04a:	ebc9 0505 	rsb	r5, r9, r5
  10a04e:	4445      	add	r5, r8
  10a050:	441d      	add	r5, r3
  10a052:	6125      	str	r5, [r4, #16]
  10a054:	2000      	movs	r0, #0
  10a056:	e000      	b.n	10a05a <_scanf_i+0x1ce>
  10a058:	2001      	movs	r0, #1
  10a05a:	b007      	add	sp, #28
  10a05c:	e8bd 8ff0 	ldmia.w	sp!, {r4, r5, r6, r7, r8, r9, r10, r11, pc}
  10a060:	0010e93c 	.word	0x0010e93c
  10a064:	0010b345 	.word	0x0010b345
  10a068:	0010b239 	.word	0x0010b239
  10a06c:	0010e958 	.word	0x0010e958

0010a070 <_open_r>:
  10a070:	b538      	push	{r3, r4, r5, lr}
  10a072:	4c07      	ldr	r4, [pc, #28]	; (10a090 <_open_r+0x20>)
  10a074:	4605      	mov	r5, r0
  10a076:	4608      	mov	r0, r1
  10a078:	4611      	mov	r1, r2
  10a07a:	2200      	movs	r2, #0
  10a07c:	6022      	str	r2, [r4, #0]
  10a07e:	461a      	mov	r2, r3
  10a080:	f7fd f956 	bl	107330 <_open>
  10a084:	1c43      	adds	r3, r0, #1
  10a086:	d102      	bne.n	10a08e <_open_r+0x1e>
  10a088:	6823      	ldr	r3, [r4, #0]
  10a08a:	b103      	cbz	r3, 10a08e <_open_r+0x1e>
  10a08c:	602b      	str	r3, [r5, #0]
  10a08e:	bd38      	pop	{r3, r4, r5, pc}
  10a090:	3fff5398 	.word	0x3fff5398

0010a094 <_putc_r>:
  10a094:	b570      	push	{r4, r5, r6, lr}
  10a096:	460e      	mov	r6, r1
  10a098:	4614      	mov	r4, r2
  10a09a:	4605      	mov	r5, r0
  10a09c:	b118      	cbz	r0, 10a0a6 <_putc_r+0x12>
  10a09e:	6983      	ldr	r3, [r0, #24]
  10a0a0:	b90b      	cbnz	r3, 10a0a6 <_putc_r+0x12>
  10a0a2:	f7fe fd35 	bl	108b10 <__sinit>
  10a0a6:	4b16      	ldr	r3, [pc, #88]	; (10a100 <_putc_r+0x6c>)
  10a0a8:	429c      	cmp	r4, r3
  10a0aa:	d101      	bne.n	10a0b0 <_putc_r+0x1c>
  10a0ac:	686c      	ldr	r4, [r5, #4]
  10a0ae:	e008      	b.n	10a0c2 <_putc_r+0x2e>
  10a0b0:	4b14      	ldr	r3, [pc, #80]	; (10a104 <_putc_r+0x70>)
  10a0b2:	429c      	cmp	r4, r3
  10a0b4:	d101      	bne.n	10a0ba <_putc_r+0x26>
  10a0b6:	68ac      	ldr	r4, [r5, #8]
  10a0b8:	e003      	b.n	10a0c2 <_putc_r+0x2e>
  10a0ba:	4b13      	ldr	r3, [pc, #76]	; (10a108 <_putc_r+0x74>)
  10a0bc:	429c      	cmp	r4, r3
  10a0be:	bf08      	it	eq
  10a0c0:	68ec      	ldreq	r4, [r5, #12]
  10a0c2:	68a3      	ldr	r3, [r4, #8]
  10a0c4:	3b01      	subs	r3, #1
  10a0c6:	2b00      	cmp	r3, #0
  10a0c8:	60a3      	str	r3, [r4, #8]
  10a0ca:	da11      	bge.n	10a0f0 <_putc_r+0x5c>
  10a0cc:	69a2      	ldr	r2, [r4, #24]
  10a0ce:	4293      	cmp	r3, r2
  10a0d0:	db07      	blt.n	10a0e2 <_putc_r+0x4e>
  10a0d2:	6823      	ldr	r3, [r4, #0]
  10a0d4:	701e      	strb	r6, [r3, #0]
  10a0d6:	6823      	ldr	r3, [r4, #0]
  10a0d8:	7819      	ldrb	r1, [r3, #0]
  10a0da:	290a      	cmp	r1, #10
  10a0dc:	d10b      	bne.n	10a0f6 <_putc_r+0x62>
  10a0de:	4622      	mov	r2, r4
  10a0e0:	e001      	b.n	10a0e6 <_putc_r+0x52>
  10a0e2:	4622      	mov	r2, r4
  10a0e4:	4631      	mov	r1, r6
  10a0e6:	4628      	mov	r0, r5
  10a0e8:	e8bd 4070 	ldmia.w	sp!, {r4, r5, r6, lr}
  10a0ec:	f001 b9e2 	b.w	10b4b4 <__swbuf_r>
  10a0f0:	6823      	ldr	r3, [r4, #0]
  10a0f2:	701e      	strb	r6, [r3, #0]
  10a0f4:	6823      	ldr	r3, [r4, #0]
  10a0f6:	1c5a      	adds	r2, r3, #1
  10a0f8:	6022      	str	r2, [r4, #0]
  10a0fa:	7818      	ldrb	r0, [r3, #0]
  10a0fc:	bd70      	pop	{r4, r5, r6, pc}
  10a0fe:	bf00      	nop
  10a100:	0010e894 	.word	0x0010e894
  10a104:	0010e8b4 	.word	0x0010e8b4
  10a108:	0010e8d4 	.word	0x0010e8d4

0010a10c <lflush>:
  10a10c:	8983      	ldrh	r3, [r0, #12]
  10a10e:	f003 0309 	and.w	r3, r3, #9
  10a112:	2b09      	cmp	r3, #9
  10a114:	d101      	bne.n	10a11a <lflush+0xe>
  10a116:	f7fe bc75 	b.w	108a04 <fflush>
  10a11a:	2000      	movs	r0, #0
  10a11c:	4770      	bx	lr
	...

0010a120 <__srefill_r>:
  10a120:	b5f8      	push	{r3, r4, r5, r6, r7, lr}
  10a122:	460c      	mov	r4, r1
  10a124:	4605      	mov	r5, r0
  10a126:	b118      	cbz	r0, 10a130 <__srefill_r+0x10>
  10a128:	6983      	ldr	r3, [r0, #24]
  10a12a:	b90b      	cbnz	r3, 10a130 <__srefill_r+0x10>
  10a12c:	f7fe fcf0 	bl	108b10 <__sinit>
  10a130:	4b39      	ldr	r3, [pc, #228]	; (10a218 <__srefill_r+0xf8>)
  10a132:	429c      	cmp	r4, r3
  10a134:	d101      	bne.n	10a13a <__srefill_r+0x1a>
  10a136:	686c      	ldr	r4, [r5, #4]
  10a138:	e008      	b.n	10a14c <__srefill_r+0x2c>
  10a13a:	4b38      	ldr	r3, [pc, #224]	; (10a21c <__srefill_r+0xfc>)
  10a13c:	429c      	cmp	r4, r3
  10a13e:	d101      	bne.n	10a144 <__srefill_r+0x24>
  10a140:	68ac      	ldr	r4, [r5, #8]
  10a142:	e003      	b.n	10a14c <__srefill_r+0x2c>
  10a144:	4b36      	ldr	r3, [pc, #216]	; (10a220 <__srefill_r+0x100>)
  10a146:	429c      	cmp	r4, r3
  10a148:	bf08      	it	eq
  10a14a:	68ec      	ldreq	r4, [r5, #12]
  10a14c:	89a2      	ldrh	r2, [r4, #12]
  10a14e:	2300      	movs	r3, #0
  10a150:	6063      	str	r3, [r4, #4]
  10a152:	b293      	uxth	r3, r2
  10a154:	069e      	lsls	r6, r3, #26
  10a156:	d45a      	bmi.n	10a20e <__srefill_r+0xee>
  10a158:	0758      	lsls	r0, r3, #29
  10a15a:	d41a      	bmi.n	10a192 <__srefill_r+0x72>
  10a15c:	06d9      	lsls	r1, r3, #27
  10a15e:	d405      	bmi.n	10a16c <__srefill_r+0x4c>
  10a160:	2309      	movs	r3, #9
  10a162:	f042 0240 	orr.w	r2, r2, #64	; 0x40
  10a166:	602b      	str	r3, [r5, #0]
  10a168:	81a2      	strh	r2, [r4, #12]
  10a16a:	e050      	b.n	10a20e <__srefill_r+0xee>
  10a16c:	071a      	lsls	r2, r3, #28
  10a16e:	d50b      	bpl.n	10a188 <__srefill_r+0x68>
  10a170:	4621      	mov	r1, r4
  10a172:	4628      	mov	r0, r5
  10a174:	f7fe fc1c 	bl	1089b0 <_fflush_r>
  10a178:	2800      	cmp	r0, #0
  10a17a:	d148      	bne.n	10a20e <__srefill_r+0xee>
  10a17c:	89a3      	ldrh	r3, [r4, #12]
  10a17e:	60a0      	str	r0, [r4, #8]
  10a180:	f023 0308 	bic.w	r3, r3, #8
  10a184:	81a3      	strh	r3, [r4, #12]
  10a186:	61a0      	str	r0, [r4, #24]
  10a188:	89a3      	ldrh	r3, [r4, #12]
  10a18a:	f043 0304 	orr.w	r3, r3, #4
  10a18e:	81a3      	strh	r3, [r4, #12]
  10a190:	e010      	b.n	10a1b4 <__srefill_r+0x94>
  10a192:	6b61      	ldr	r1, [r4, #52]	; 0x34
  10a194:	b171      	cbz	r1, 10a1b4 <__srefill_r+0x94>
  10a196:	f104 0344 	add.w	r3, r4, #68	; 0x44
  10a19a:	4299      	cmp	r1, r3
  10a19c:	d002      	beq.n	10a1a4 <__srefill_r+0x84>
  10a19e:	4628      	mov	r0, r5
  10a1a0:	f7fe ff36 	bl	109010 <_free_r>
  10a1a4:	6c23      	ldr	r3, [r4, #64]	; 0x40
  10a1a6:	2000      	movs	r0, #0
  10a1a8:	6360      	str	r0, [r4, #52]	; 0x34
  10a1aa:	6063      	str	r3, [r4, #4]
  10a1ac:	b113      	cbz	r3, 10a1b4 <__srefill_r+0x94>
  10a1ae:	6be3      	ldr	r3, [r4, #60]	; 0x3c
  10a1b0:	6023      	str	r3, [r4, #0]
  10a1b2:	bdf8      	pop	{r3, r4, r5, r6, r7, pc}
  10a1b4:	6923      	ldr	r3, [r4, #16]
  10a1b6:	b91b      	cbnz	r3, 10a1c0 <__srefill_r+0xa0>
  10a1b8:	4621      	mov	r1, r4
  10a1ba:	4628      	mov	r0, r5
  10a1bc:	f7fe fe90 	bl	108ee0 <__smakebuf_r>
  10a1c0:	89a7      	ldrh	r7, [r4, #12]
  10a1c2:	b2be      	uxth	r6, r7
  10a1c4:	07b3      	lsls	r3, r6, #30
  10a1c6:	d00f      	beq.n	10a1e8 <__srefill_r+0xc8>
  10a1c8:	2301      	movs	r3, #1
  10a1ca:	81a3      	strh	r3, [r4, #12]
  10a1cc:	4b15      	ldr	r3, [pc, #84]	; (10a224 <__srefill_r+0x104>)
  10a1ce:	4916      	ldr	r1, [pc, #88]	; (10a228 <__srefill_r+0x108>)
  10a1d0:	6818      	ldr	r0, [r3, #0]
  10a1d2:	f006 0609 	and.w	r6, r6, #9
  10a1d6:	f7fe fe1f 	bl	108e18 <_fwalk>
  10a1da:	2e09      	cmp	r6, #9
  10a1dc:	81a7      	strh	r7, [r4, #12]
  10a1de:	d103      	bne.n	10a1e8 <__srefill_r+0xc8>
  10a1e0:	4621      	mov	r1, r4
  10a1e2:	4628      	mov	r0, r5
  10a1e4:	f7fe fb5e 	bl	1088a4 <__sflush_r>
  10a1e8:	6922      	ldr	r2, [r4, #16]
  10a1ea:	6a66      	ldr	r6, [r4, #36]	; 0x24
  10a1ec:	6022      	str	r2, [r4, #0]
  10a1ee:	6963      	ldr	r3, [r4, #20]
  10a1f0:	6a21      	ldr	r1, [r4, #32]
  10a1f2:	4628      	mov	r0, r5
  10a1f4:	47b0      	blx	r6
  10a1f6:	2800      	cmp	r0, #0
  10a1f8:	6060      	str	r0, [r4, #4]
  10a1fa:	dc0b      	bgt.n	10a214 <__srefill_r+0xf4>
  10a1fc:	89a3      	ldrh	r3, [r4, #12]
  10a1fe:	bf17      	itett	ne
  10a200:	2200      	movne	r2, #0
  10a202:	f043 0320 	orreq.w	r3, r3, #32
  10a206:	f043 0340 	orrne.w	r3, r3, #64	; 0x40
  10a20a:	6062      	strne	r2, [r4, #4]
  10a20c:	81a3      	strh	r3, [r4, #12]
  10a20e:	f04f 30ff 	mov.w	r0, #4294967295
  10a212:	bdf8      	pop	{r3, r4, r5, r6, r7, pc}
  10a214:	2000      	movs	r0, #0
  10a216:	bdf8      	pop	{r3, r4, r5, r6, r7, pc}
  10a218:	0010e894 	.word	0x0010e894
  10a21c:	0010e8b4 	.word	0x0010e8b4
  10a220:	0010e8d4 	.word	0x0010e8d4
  10a224:	0010e8f8 	.word	0x0010e8f8
  10a228:	0010a10d 	.word	0x0010a10d

0010a22c <__srget_r>:
  10a22c:	b538      	push	{r3, r4, r5, lr}
  10a22e:	460c      	mov	r4, r1
  10a230:	4605      	mov	r5, r0
  10a232:	b118      	cbz	r0, 10a23c <__srget_r+0x10>
  10a234:	6983      	ldr	r3, [r0, #24]
  10a236:	b90b      	cbnz	r3, 10a23c <__srget_r+0x10>
  10a238:	f7fe fc6a 	bl	108b10 <__sinit>
  10a23c:	4b0e      	ldr	r3, [pc, #56]	; (10a278 <__srget_r+0x4c>)
  10a23e:	429c      	cmp	r4, r3
  10a240:	d101      	bne.n	10a246 <__srget_r+0x1a>
  10a242:	686c      	ldr	r4, [r5, #4]
  10a244:	e008      	b.n	10a258 <__srget_r+0x2c>
  10a246:	4b0d      	ldr	r3, [pc, #52]	; (10a27c <__srget_r+0x50>)
  10a248:	429c      	cmp	r4, r3
  10a24a:	d101      	bne.n	10a250 <__srget_r+0x24>
  10a24c:	68ac      	ldr	r4, [r5, #8]
  10a24e:	e003      	b.n	10a258 <__srget_r+0x2c>
  10a250:	4b0b      	ldr	r3, [pc, #44]	; (10a280 <__srget_r+0x54>)
  10a252:	429c      	cmp	r4, r3
  10a254:	bf08      	it	eq
  10a256:	68ec      	ldreq	r4, [r5, #12]
  10a258:	4621      	mov	r1, r4
  10a25a:	4628      	mov	r0, r5
  10a25c:	f7ff ff60 	bl	10a120 <__srefill_r>
  10a260:	b938      	cbnz	r0, 10a272 <__srget_r+0x46>
  10a262:	6863      	ldr	r3, [r4, #4]
  10a264:	3b01      	subs	r3, #1
  10a266:	6063      	str	r3, [r4, #4]
  10a268:	6823      	ldr	r3, [r4, #0]
  10a26a:	1c5a      	adds	r2, r3, #1
  10a26c:	6022      	str	r2, [r4, #0]
  10a26e:	7818      	ldrb	r0, [r3, #0]
  10a270:	bd38      	pop	{r3, r4, r5, pc}
  10a272:	f04f 30ff 	mov.w	r0, #4294967295
  10a276:	bd38      	pop	{r3, r4, r5, pc}
  10a278:	0010e894 	.word	0x0010e894
  10a27c:	0010e8b4 	.word	0x0010e8b4
  10a280:	0010e8d4 	.word	0x0010e8d4

0010a284 <__fpclassifyd>:
  10a284:	f031 4300 	bics.w	r3, r1, #2147483648	; 0x80000000
  10a288:	b510      	push	{r4, lr}
  10a28a:	d01b      	beq.n	10a2c4 <__fpclassifyd+0x40>
  10a28c:	4a0f      	ldr	r2, [pc, #60]	; (10a2cc <__fpclassifyd+0x48>)
  10a28e:	f5a1 1480 	sub.w	r4, r1, #1048576	; 0x100000
  10a292:	4294      	cmp	r4, r2
  10a294:	d910      	bls.n	10a2b8 <__fpclassifyd+0x34>
  10a296:	f101 41ff 	add.w	r1, r1, #2139095040	; 0x7f800000
  10a29a:	4a0c      	ldr	r2, [pc, #48]	; (10a2cc <__fpclassifyd+0x48>)
  10a29c:	f501 01e0 	add.w	r1, r1, #7340032	; 0x700000
  10a2a0:	4291      	cmp	r1, r2
  10a2a2:	d909      	bls.n	10a2b8 <__fpclassifyd+0x34>
  10a2a4:	f5b3 1f80 	cmp.w	r3, #1048576	; 0x100000
  10a2a8:	d308      	bcc.n	10a2bc <__fpclassifyd+0x38>
  10a2aa:	4a09      	ldr	r2, [pc, #36]	; (10a2d0 <__fpclassifyd+0x4c>)
  10a2ac:	4293      	cmp	r3, r2
  10a2ae:	d107      	bne.n	10a2c0 <__fpclassifyd+0x3c>
  10a2b0:	fab0 f080 	clz	r0, r0
  10a2b4:	0940      	lsrs	r0, r0, #5
  10a2b6:	bd10      	pop	{r4, pc}
  10a2b8:	2004      	movs	r0, #4
  10a2ba:	bd10      	pop	{r4, pc}
  10a2bc:	2003      	movs	r0, #3
  10a2be:	bd10      	pop	{r4, pc}
  10a2c0:	2000      	movs	r0, #0
  10a2c2:	bd10      	pop	{r4, pc}
  10a2c4:	2800      	cmp	r0, #0
  10a2c6:	d1e6      	bne.n	10a296 <__fpclassifyd+0x12>
  10a2c8:	2002      	movs	r0, #2
  10a2ca:	bd10      	pop	{r4, pc}
  10a2cc:	7fdfffff 	.word	0x7fdfffff
  10a2d0:	7ff00000 	.word	0x7ff00000

0010a2d4 <_sbrk_r>:
  10a2d4:	b538      	push	{r3, r4, r5, lr}
  10a2d6:	4c06      	ldr	r4, [pc, #24]	; (10a2f0 <_sbrk_r+0x1c>)
  10a2d8:	2300      	movs	r3, #0
  10a2da:	4605      	mov	r5, r0
  10a2dc:	4608      	mov	r0, r1
  10a2de:	6023      	str	r3, [r4, #0]
  10a2e0:	f7fd f9e0 	bl	1076a4 <_sbrk>
  10a2e4:	1c43      	adds	r3, r0, #1
  10a2e6:	d102      	bne.n	10a2ee <_sbrk_r+0x1a>
  10a2e8:	6823      	ldr	r3, [r4, #0]
  10a2ea:	b103      	cbz	r3, 10a2ee <_sbrk_r+0x1a>
  10a2ec:	602b      	str	r3, [r5, #0]
  10a2ee:	bd38      	pop	{r3, r4, r5, pc}
  10a2f0:	3fff5398 	.word	0x3fff5398

0010a2f4 <__sccl>:
  10a2f4:	b570      	push	{r4, r5, r6, lr}
  10a2f6:	780b      	ldrb	r3, [r1, #0]
  10a2f8:	1e44      	subs	r4, r0, #1
  10a2fa:	2b5e      	cmp	r3, #94	; 0x5e
  10a2fc:	bf13      	iteet	ne
  10a2fe:	1c4a      	addne	r2, r1, #1
  10a300:	1c8a      	addeq	r2, r1, #2
  10a302:	784b      	ldrbeq	r3, [r1, #1]
  10a304:	2100      	movne	r1, #0
  10a306:	bf08      	it	eq
  10a308:	2101      	moveq	r1, #1
  10a30a:	f100 05ff 	add.w	r5, r0, #255	; 0xff
  10a30e:	f804 1f01 	strb.w	r1, [r4, #1]!
  10a312:	42ac      	cmp	r4, r5
  10a314:	d1fb      	bne.n	10a30e <__sccl+0x1a>
  10a316:	b90b      	cbnz	r3, 10a31c <__sccl+0x28>
  10a318:	1e50      	subs	r0, r2, #1
  10a31a:	bd70      	pop	{r4, r5, r6, pc}
  10a31c:	f081 0401 	eor.w	r4, r1, #1
  10a320:	4611      	mov	r1, r2
  10a322:	54c4      	strb	r4, [r0, r3]
  10a324:	780d      	ldrb	r5, [r1, #0]
  10a326:	1c4a      	adds	r2, r1, #1
  10a328:	2d2d      	cmp	r5, #45	; 0x2d
  10a32a:	d006      	beq.n	10a33a <__sccl+0x46>
  10a32c:	2d5d      	cmp	r5, #93	; 0x5d
  10a32e:	d00f      	beq.n	10a350 <__sccl+0x5c>
  10a330:	b10d      	cbz	r5, 10a336 <__sccl+0x42>
  10a332:	462b      	mov	r3, r5
  10a334:	e7f4      	b.n	10a320 <__sccl+0x2c>
  10a336:	4608      	mov	r0, r1
  10a338:	bd70      	pop	{r4, r5, r6, pc}
  10a33a:	784e      	ldrb	r6, [r1, #1]
  10a33c:	2e5d      	cmp	r6, #93	; 0x5d
  10a33e:	d0f8      	beq.n	10a332 <__sccl+0x3e>
  10a340:	42b3      	cmp	r3, r6
  10a342:	dcf6      	bgt.n	10a332 <__sccl+0x3e>
  10a344:	3102      	adds	r1, #2
  10a346:	3301      	adds	r3, #1
  10a348:	429e      	cmp	r6, r3
  10a34a:	54c4      	strb	r4, [r0, r3]
  10a34c:	dcfb      	bgt.n	10a346 <__sccl+0x52>
  10a34e:	e7e9      	b.n	10a324 <__sccl+0x30>
  10a350:	4610      	mov	r0, r2
  10a352:	bd70      	pop	{r4, r5, r6, pc}

0010a354 <setbuf>:
  10a354:	2900      	cmp	r1, #0
  10a356:	f44f 6380 	mov.w	r3, #1024	; 0x400
  10a35a:	bf0c      	ite	eq
  10a35c:	2202      	moveq	r2, #2
  10a35e:	2200      	movne	r2, #0
  10a360:	f000 b800 	b.w	10a364 <setvbuf>

0010a364 <setvbuf>:
  10a364:	e92d 41f0 	stmdb	sp!, {r4, r5, r6, r7, r8, lr}
  10a368:	461d      	mov	r5, r3
  10a36a:	4b3d      	ldr	r3, [pc, #244]	; (10a460 <setvbuf+0xfc>)
  10a36c:	4604      	mov	r4, r0
  10a36e:	681e      	ldr	r6, [r3, #0]
  10a370:	460f      	mov	r7, r1
  10a372:	4690      	mov	r8, r2
  10a374:	b126      	cbz	r6, 10a380 <setvbuf+0x1c>
  10a376:	69b3      	ldr	r3, [r6, #24]
  10a378:	b913      	cbnz	r3, 10a380 <setvbuf+0x1c>
  10a37a:	4630      	mov	r0, r6
  10a37c:	f7fe fbc8 	bl	108b10 <__sinit>
  10a380:	4b38      	ldr	r3, [pc, #224]	; (10a464 <setvbuf+0x100>)
  10a382:	429c      	cmp	r4, r3
  10a384:	d101      	bne.n	10a38a <setvbuf+0x26>
  10a386:	6874      	ldr	r4, [r6, #4]
  10a388:	e008      	b.n	10a39c <setvbuf+0x38>
  10a38a:	4b37      	ldr	r3, [pc, #220]	; (10a468 <setvbuf+0x104>)
  10a38c:	429c      	cmp	r4, r3
  10a38e:	d101      	bne.n	10a394 <setvbuf+0x30>
  10a390:	68b4      	ldr	r4, [r6, #8]
  10a392:	e003      	b.n	10a39c <setvbuf+0x38>
  10a394:	4b35      	ldr	r3, [pc, #212]	; (10a46c <setvbuf+0x108>)
  10a396:	429c      	cmp	r4, r3
  10a398:	bf08      	it	eq
  10a39a:	68f4      	ldreq	r4, [r6, #12]
  10a39c:	f1b8 0f02 	cmp.w	r8, #2
  10a3a0:	d859      	bhi.n	10a456 <setvbuf+0xf2>
  10a3a2:	2d00      	cmp	r5, #0
  10a3a4:	db57      	blt.n	10a456 <setvbuf+0xf2>
  10a3a6:	4621      	mov	r1, r4
  10a3a8:	4630      	mov	r0, r6
  10a3aa:	f7fe fb01 	bl	1089b0 <_fflush_r>
  10a3ae:	2300      	movs	r3, #0
  10a3b0:	6063      	str	r3, [r4, #4]
  10a3b2:	61a3      	str	r3, [r4, #24]
  10a3b4:	89a3      	ldrh	r3, [r4, #12]
  10a3b6:	061b      	lsls	r3, r3, #24
  10a3b8:	d503      	bpl.n	10a3c2 <setvbuf+0x5e>
  10a3ba:	6921      	ldr	r1, [r4, #16]
  10a3bc:	4630      	mov	r0, r6
  10a3be:	f7fe fe27 	bl	109010 <_free_r>
  10a3c2:	89a3      	ldrh	r3, [r4, #12]
  10a3c4:	f1b8 0f02 	cmp.w	r8, #2
  10a3c8:	f023 0383 	bic.w	r3, r3, #131	; 0x83
  10a3cc:	81a3      	strh	r3, [r4, #12]
  10a3ce:	d012      	beq.n	10a3f6 <setvbuf+0x92>
  10a3d0:	bb37      	cbnz	r7, 10a420 <setvbuf+0xbc>
  10a3d2:	2d00      	cmp	r5, #0
  10a3d4:	bf08      	it	eq
  10a3d6:	f44f 6580 	moveq.w	r5, #1024	; 0x400
  10a3da:	4628      	mov	r0, r5
  10a3dc:	f7f8 f9e2 	bl	1027a4 <__wrap_malloc>
  10a3e0:	4607      	mov	r7, r0
  10a3e2:	b9c8      	cbnz	r0, 10a418 <setvbuf+0xb4>
  10a3e4:	f44f 6080 	mov.w	r0, #1024	; 0x400
  10a3e8:	f7f8 f9dc 	bl	1027a4 <__wrap_malloc>
  10a3ec:	4607      	mov	r7, r0
  10a3ee:	b988      	cbnz	r0, 10a414 <setvbuf+0xb0>
  10a3f0:	f04f 30ff 	mov.w	r0, #4294967295
  10a3f4:	e000      	b.n	10a3f8 <setvbuf+0x94>
  10a3f6:	2000      	movs	r0, #0
  10a3f8:	89a3      	ldrh	r3, [r4, #12]
  10a3fa:	f043 0302 	orr.w	r3, r3, #2
  10a3fe:	81a3      	strh	r3, [r4, #12]
  10a400:	2300      	movs	r3, #0
  10a402:	60a3      	str	r3, [r4, #8]
  10a404:	f104 0347 	add.w	r3, r4, #71	; 0x47
  10a408:	6023      	str	r3, [r4, #0]
  10a40a:	6123      	str	r3, [r4, #16]
  10a40c:	2301      	movs	r3, #1
  10a40e:	6163      	str	r3, [r4, #20]
  10a410:	e8bd 81f0 	ldmia.w	sp!, {r4, r5, r6, r7, r8, pc}
  10a414:	f44f 6580 	mov.w	r5, #1024	; 0x400
  10a418:	89a3      	ldrh	r3, [r4, #12]
  10a41a:	f043 0380 	orr.w	r3, r3, #128	; 0x80
  10a41e:	81a3      	strh	r3, [r4, #12]
  10a420:	f1b8 0f01 	cmp.w	r8, #1
  10a424:	d105      	bne.n	10a432 <setvbuf+0xce>
  10a426:	89a3      	ldrh	r3, [r4, #12]
  10a428:	f043 0301 	orr.w	r3, r3, #1
  10a42c:	81a3      	strh	r3, [r4, #12]
  10a42e:	426b      	negs	r3, r5
  10a430:	61a3      	str	r3, [r4, #24]
  10a432:	4b0f      	ldr	r3, [pc, #60]	; (10a470 <setvbuf+0x10c>)
  10a434:	62b3      	str	r3, [r6, #40]	; 0x28
  10a436:	89a3      	ldrh	r3, [r4, #12]
  10a438:	6027      	str	r7, [r4, #0]
  10a43a:	f003 0008 	and.w	r0, r3, #8
  10a43e:	b280      	uxth	r0, r0
  10a440:	6127      	str	r7, [r4, #16]
  10a442:	6165      	str	r5, [r4, #20]
  10a444:	b148      	cbz	r0, 10a45a <setvbuf+0xf6>
  10a446:	f013 0f03 	tst.w	r3, #3
  10a44a:	bf18      	it	ne
  10a44c:	2500      	movne	r5, #0
  10a44e:	60a5      	str	r5, [r4, #8]
  10a450:	2000      	movs	r0, #0
  10a452:	e8bd 81f0 	ldmia.w	sp!, {r4, r5, r6, r7, r8, pc}
  10a456:	f04f 30ff 	mov.w	r0, #4294967295
  10a45a:	e8bd 81f0 	ldmia.w	sp!, {r4, r5, r6, r7, r8, pc}
  10a45e:	bf00      	nop
  10a460:	3fff4104 	.word	0x3fff4104
  10a464:	0010e894 	.word	0x0010e894
  10a468:	0010e8b4 	.word	0x0010e8b4
  10a46c:	0010e8d4 	.word	0x0010e8d4
  10a470:	00108a91 	.word	0x00108a91

0010a474 <nanf>:
  10a474:	4800      	ldr	r0, [pc, #0]	; (10a478 <nanf+0x4>)
  10a476:	4770      	bx	lr
  10a478:	7fc00000 	.word	0x7fc00000

0010a47c <siprintf>:
  10a47c:	b40e      	push	{r1, r2, r3}
  10a47e:	b500      	push	{lr}
  10a480:	f44f 7102 	mov.w	r1, #520	; 0x208
  10a484:	b09c      	sub	sp, #112	; 0x70
  10a486:	f8ad 1014 	strh.w	r1, [sp, #20]
  10a48a:	f06f 4100 	mvn.w	r1, #2147483648	; 0x80000000
  10a48e:	9104      	str	r1, [sp, #16]
  10a490:	9107      	str	r1, [sp, #28]
  10a492:	f64f 71ff 	movw	r1, #65535	; 0xffff
  10a496:	ab1d      	add	r3, sp, #116	; 0x74
  10a498:	9002      	str	r0, [sp, #8]
  10a49a:	9006      	str	r0, [sp, #24]
  10a49c:	4808      	ldr	r0, [pc, #32]	; (10a4c0 <siprintf+0x44>)
  10a49e:	f853 2b04 	ldr.w	r2, [r3], #4
  10a4a2:	f8ad 1016 	strh.w	r1, [sp, #22]
  10a4a6:	6800      	ldr	r0, [r0, #0]
  10a4a8:	a902      	add	r1, sp, #8
  10a4aa:	9301      	str	r3, [sp, #4]
  10a4ac:	f002 ffd0 	bl	10d450 <_svfiprintf_r>
  10a4b0:	9b02      	ldr	r3, [sp, #8]
  10a4b2:	2200      	movs	r2, #0
  10a4b4:	701a      	strb	r2, [r3, #0]
  10a4b6:	b01c      	add	sp, #112	; 0x70
  10a4b8:	f85d eb04 	ldr.w	lr, [sp], #4
  10a4bc:	b003      	add	sp, #12
  10a4be:	4770      	bx	lr
  10a4c0:	3fff4104 	.word	0x3fff4104

0010a4c4 <siscanf>:
  10a4c4:	b40e      	push	{r1, r2, r3}
  10a4c6:	b530      	push	{r4, r5, lr}
  10a4c8:	b09c      	sub	sp, #112	; 0x70
  10a4ca:	ac1f      	add	r4, sp, #124	; 0x7c
  10a4cc:	f44f 7201 	mov.w	r2, #516	; 0x204
  10a4d0:	f854 5b04 	ldr.w	r5, [r4], #4
  10a4d4:	f8ad 2014 	strh.w	r2, [sp, #20]
  10a4d8:	9002      	str	r0, [sp, #8]
  10a4da:	9006      	str	r0, [sp, #24]
  10a4dc:	f000 f86b 	bl	10a5b6 <strlen>
  10a4e0:	4b0b      	ldr	r3, [pc, #44]	; (10a510 <siscanf+0x4c>)
  10a4e2:	9003      	str	r0, [sp, #12]
  10a4e4:	930b      	str	r3, [sp, #44]	; 0x2c
  10a4e6:	2300      	movs	r3, #0
  10a4e8:	930f      	str	r3, [sp, #60]	; 0x3c
  10a4ea:	9314      	str	r3, [sp, #80]	; 0x50
  10a4ec:	f64f 73ff 	movw	r3, #65535	; 0xffff
  10a4f0:	9007      	str	r0, [sp, #28]
  10a4f2:	4808      	ldr	r0, [pc, #32]	; (10a514 <siscanf+0x50>)
  10a4f4:	f8ad 3016 	strh.w	r3, [sp, #22]
  10a4f8:	462a      	mov	r2, r5
  10a4fa:	4623      	mov	r3, r4
  10a4fc:	a902      	add	r1, sp, #8
  10a4fe:	6800      	ldr	r0, [r0, #0]
  10a500:	9401      	str	r4, [sp, #4]
  10a502:	f003 f8f5 	bl	10d6f0 <__ssvfiscanf_r>
  10a506:	b01c      	add	sp, #112	; 0x70
  10a508:	e8bd 4030 	ldmia.w	sp!, {r4, r5, lr}
  10a50c:	b003      	add	sp, #12
  10a50e:	4770      	bx	lr
  10a510:	0010a53b 	.word	0x0010a53b
  10a514:	3fff4104 	.word	0x3fff4104

0010a518 <__sread>:
  10a518:	b510      	push	{r4, lr}
  10a51a:	460c      	mov	r4, r1
  10a51c:	f9b1 100e 	ldrsh.w	r1, [r1, #14]
  10a520:	f003 fa34 	bl	10d98c <_read_r>
  10a524:	2800      	cmp	r0, #0
  10a526:	bfab      	itete	ge
  10a528:	6d63      	ldrge	r3, [r4, #84]	; 0x54
  10a52a:	89a3      	ldrhlt	r3, [r4, #12]
  10a52c:	181b      	addge	r3, r3, r0
  10a52e:	f423 5380 	biclt.w	r3, r3, #4096	; 0x1000
  10a532:	bfac      	ite	ge
  10a534:	6563      	strge	r3, [r4, #84]	; 0x54
  10a536:	81a3      	strhlt	r3, [r4, #12]
  10a538:	bd10      	pop	{r4, pc}

0010a53a <__seofread>:
  10a53a:	2000      	movs	r0, #0
  10a53c:	4770      	bx	lr

0010a53e <__swrite>:
  10a53e:	e92d 41f0 	stmdb	sp!, {r4, r5, r6, r7, r8, lr}
  10a542:	461f      	mov	r7, r3
  10a544:	898b      	ldrh	r3, [r1, #12]
  10a546:	4605      	mov	r5, r0
  10a548:	05db      	lsls	r3, r3, #23
  10a54a:	460c      	mov	r4, r1
  10a54c:	4616      	mov	r6, r2
  10a54e:	d505      	bpl.n	10a55c <__swrite+0x1e>
  10a550:	2302      	movs	r3, #2
  10a552:	2200      	movs	r2, #0
  10a554:	f9b1 100e 	ldrsh.w	r1, [r1, #14]
  10a558:	f002 faf2 	bl	10cb40 <_lseek_r>
  10a55c:	89a3      	ldrh	r3, [r4, #12]
  10a55e:	4632      	mov	r2, r6
  10a560:	f423 5380 	bic.w	r3, r3, #4096	; 0x1000
  10a564:	81a3      	strh	r3, [r4, #12]
  10a566:	f9b4 100e 	ldrsh.w	r1, [r4, #14]
  10a56a:	463b      	mov	r3, r7
  10a56c:	4628      	mov	r0, r5
  10a56e:	e8bd 41f0 	ldmia.w	sp!, {r4, r5, r6, r7, r8, lr}
  10a572:	f000 bff3 	b.w	10b55c <_write_r>

0010a576 <__sseek>:
  10a576:	b510      	push	{r4, lr}
  10a578:	460c      	mov	r4, r1
  10a57a:	f9b1 100e 	ldrsh.w	r1, [r1, #14]
  10a57e:	f002 fadf 	bl	10cb40 <_lseek_r>
  10a582:	1c43      	adds	r3, r0, #1
  10a584:	89a3      	ldrh	r3, [r4, #12]
  10a586:	bf15      	itete	ne
  10a588:	6560      	strne	r0, [r4, #84]	; 0x54
  10a58a:	f423 5380 	biceq.w	r3, r3, #4096	; 0x1000
  10a58e:	f443 5380 	orrne.w	r3, r3, #4096	; 0x1000
  10a592:	81a3      	strheq	r3, [r4, #12]
  10a594:	bf18      	it	ne
  10a596:	81a3      	strhne	r3, [r4, #12]
  10a598:	bd10      	pop	{r4, pc}

0010a59a <__sclose>:
  10a59a:	f9b1 100e 	ldrsh.w	r1, [r1, #14]
  10a59e:	f001 b921 	b.w	10b7e4 <_close_r>

0010a5a2 <strcmp>:
  10a5a2:	f810 2b01 	ldrb.w	r2, [r0], #1
  10a5a6:	f811 3b01 	ldrb.w	r3, [r1], #1
  10a5aa:	2a01      	cmp	r2, #1
  10a5ac:	bf28      	it	cs
  10a5ae:	429a      	cmpcs	r2, r3
  10a5b0:	d0f7      	beq.n	10a5a2 <strcmp>
  10a5b2:	1ad0      	subs	r0, r2, r3
  10a5b4:	4770      	bx	lr

0010a5b6 <strlen>:
  10a5b6:	4603      	mov	r3, r0
  10a5b8:	f813 2b01 	ldrb.w	r2, [r3], #1
  10a5bc:	2a00      	cmp	r2, #0
  10a5be:	d1fb      	bne.n	10a5b8 <strlen+0x2>
  10a5c0:	1a18      	subs	r0, r3, r0
  10a5c2:	3801      	subs	r0, #1
  10a5c4:	4770      	bx	lr

0010a5c6 <strncmp>:
  10a5c6:	b530      	push	{r4, r5, lr}
  10a5c8:	b182      	cbz	r2, 10a5ec <strncmp+0x26>
  10a5ca:	1e45      	subs	r5, r0, #1
  10a5cc:	3901      	subs	r1, #1
  10a5ce:	f815 3f01 	ldrb.w	r3, [r5, #1]!
  10a5d2:	f811 4f01 	ldrb.w	r4, [r1, #1]!
  10a5d6:	42a3      	cmp	r3, r4
  10a5d8:	d106      	bne.n	10a5e8 <strncmp+0x22>
  10a5da:	43ec      	mvns	r4, r5
  10a5dc:	4414      	add	r4, r2
  10a5de:	42e0      	cmn	r0, r4
  10a5e0:	d001      	beq.n	10a5e6 <strncmp+0x20>
  10a5e2:	2b00      	cmp	r3, #0
  10a5e4:	d1f3      	bne.n	10a5ce <strncmp+0x8>
  10a5e6:	461c      	mov	r4, r3
  10a5e8:	1b18      	subs	r0, r3, r4
  10a5ea:	bd30      	pop	{r4, r5, pc}
  10a5ec:	4610      	mov	r0, r2
  10a5ee:	bd30      	pop	{r4, r5, pc}

0010a5f0 <sulp>:
  10a5f0:	e92d 41f0 	stmdb	sp!, {r4, r5, r6, r7, r8, lr}
  10a5f4:	460f      	mov	r7, r1
  10a5f6:	4690      	mov	r8, r2
  10a5f8:	f002 fd7a 	bl	10d0f0 <__ulp>
  10a5fc:	4604      	mov	r4, r0
  10a5fe:	460d      	mov	r5, r1
  10a600:	f1b8 0f00 	cmp.w	r8, #0
  10a604:	d011      	beq.n	10a62a <sulp+0x3a>
  10a606:	f3c7 530a 	ubfx	r3, r7, #20, #11
  10a60a:	f1c3 036b 	rsb	r3, r3, #107	; 0x6b
  10a60e:	2b00      	cmp	r3, #0
  10a610:	dd0b      	ble.n	10a62a <sulp+0x3a>
  10a612:	051b      	lsls	r3, r3, #20
  10a614:	f103 557f 	add.w	r5, r3, #1069547520	; 0x3fc00000
  10a618:	2400      	movs	r4, #0
  10a61a:	f505 1540 	add.w	r5, r5, #3145728	; 0x300000
  10a61e:	4622      	mov	r2, r4
  10a620:	462b      	mov	r3, r5
  10a622:	f003 f9cf 	bl	10d9c4 <__aeabi_dmul>
  10a626:	e8bd 81f0 	ldmia.w	sp!, {r4, r5, r6, r7, r8, pc}
  10a62a:	4620      	mov	r0, r4
  10a62c:	4629      	mov	r1, r5
  10a62e:	e8bd 81f0 	ldmia.w	sp!, {r4, r5, r6, r7, r8, pc}
  10a632:	0000      	movs	r0, r0
  10a634:	0000      	movs	r0, r0
	...

0010a638 <_strtod_r>:
  10a638:	e92d 4ff0 	stmdb	sp!, {r4, r5, r6, r7, r8, r9, r10, r11, lr}
  10a63c:	4682      	mov	r10, r0
  10a63e:	460c      	mov	r4, r1
  10a640:	b09d      	sub	sp, #116	; 0x74
  10a642:	2300      	movs	r3, #0
  10a644:	9213      	str	r2, [sp, #76]	; 0x4c
  10a646:	9318      	str	r3, [sp, #96]	; 0x60
  10a648:	f04f 0800 	mov.w	r8, #0
  10a64c:	f04f 0900 	mov.w	r9, #0
  10a650:	9117      	str	r1, [sp, #92]	; 0x5c
  10a652:	9b17      	ldr	r3, [sp, #92]	; 0x5c
  10a654:	781a      	ldrb	r2, [r3, #0]
  10a656:	2a0d      	cmp	r2, #13
  10a658:	d805      	bhi.n	10a666 <_strtod_r+0x2e>
  10a65a:	2a09      	cmp	r2, #9
  10a65c:	d213      	bcs.n	10a686 <_strtod_r+0x4e>
  10a65e:	2a00      	cmp	r2, #0
  10a660:	f000 81ad 	beq.w	10a9be <_strtod_r+0x386>
  10a664:	e012      	b.n	10a68c <_strtod_r+0x54>
  10a666:	2a2b      	cmp	r2, #43	; 0x2b
  10a668:	d004      	beq.n	10a674 <_strtod_r+0x3c>
  10a66a:	2a2d      	cmp	r2, #45	; 0x2d
  10a66c:	d004      	beq.n	10a678 <_strtod_r+0x40>
  10a66e:	2a20      	cmp	r2, #32
  10a670:	d10c      	bne.n	10a68c <_strtod_r+0x54>
  10a672:	e008      	b.n	10a686 <_strtod_r+0x4e>
  10a674:	2200      	movs	r2, #0
  10a676:	e000      	b.n	10a67a <_strtod_r+0x42>
  10a678:	2201      	movs	r2, #1
  10a67a:	920c      	str	r2, [sp, #48]	; 0x30
  10a67c:	1c5a      	adds	r2, r3, #1
  10a67e:	9217      	str	r2, [sp, #92]	; 0x5c
  10a680:	785b      	ldrb	r3, [r3, #1]
  10a682:	b92b      	cbnz	r3, 10a690 <_strtod_r+0x58>
  10a684:	e19b      	b.n	10a9be <_strtod_r+0x386>
  10a686:	3301      	adds	r3, #1
  10a688:	9317      	str	r3, [sp, #92]	; 0x5c
  10a68a:	e7e2      	b.n	10a652 <_strtod_r+0x1a>
  10a68c:	2300      	movs	r3, #0
  10a68e:	930c      	str	r3, [sp, #48]	; 0x30
  10a690:	9d17      	ldr	r5, [sp, #92]	; 0x5c
  10a692:	782b      	ldrb	r3, [r5, #0]
  10a694:	2b30      	cmp	r3, #48	; 0x30
  10a696:	d15c      	bne.n	10a752 <_strtod_r+0x11a>
  10a698:	786b      	ldrb	r3, [r5, #1]
  10a69a:	2b58      	cmp	r3, #88	; 0x58
  10a69c:	d001      	beq.n	10a6a2 <_strtod_r+0x6a>
  10a69e:	2b78      	cmp	r3, #120	; 0x78
  10a6a0:	d14c      	bne.n	10a73c <_strtod_r+0x104>
  10a6a2:	9b0c      	ldr	r3, [sp, #48]	; 0x30
  10a6a4:	4aa8      	ldr	r2, [pc, #672]	; (10a948 <_strtod_r+0x310>)
  10a6a6:	9301      	str	r3, [sp, #4]
  10a6a8:	ab18      	add	r3, sp, #96	; 0x60
  10a6aa:	9300      	str	r3, [sp, #0]
  10a6ac:	a917      	add	r1, sp, #92	; 0x5c
  10a6ae:	ab19      	add	r3, sp, #100	; 0x64
  10a6b0:	4650      	mov	r0, r10
  10a6b2:	f001 ff62 	bl	10c57a <__gethex>
  10a6b6:	f010 0607 	ands.w	r6, r0, #7
  10a6ba:	4604      	mov	r4, r0
  10a6bc:	f000 8585 	beq.w	10b1ca <_strtod_r+0xb92>
  10a6c0:	2e06      	cmp	r6, #6
  10a6c2:	d105      	bne.n	10a6d0 <_strtod_r+0x98>
  10a6c4:	3501      	adds	r5, #1
  10a6c6:	2300      	movs	r3, #0
  10a6c8:	9517      	str	r5, [sp, #92]	; 0x5c
  10a6ca:	930c      	str	r3, [sp, #48]	; 0x30
  10a6cc:	f000 bd7d 	b.w	10b1ca <_strtod_r+0xb92>
  10a6d0:	9a18      	ldr	r2, [sp, #96]	; 0x60
  10a6d2:	b13a      	cbz	r2, 10a6e4 <_strtod_r+0xac>
  10a6d4:	2135      	movs	r1, #53	; 0x35
  10a6d6:	a81a      	add	r0, sp, #104	; 0x68
  10a6d8:	f002 fdf1 	bl	10d2be <__copybits>
  10a6dc:	9918      	ldr	r1, [sp, #96]	; 0x60
  10a6de:	4650      	mov	r0, r10
  10a6e0:	f002 fa75 	bl	10cbce <_Bfree>
  10a6e4:	2e06      	cmp	r6, #6
  10a6e6:	d822      	bhi.n	10a72e <_strtod_r+0xf6>
  10a6e8:	e8df f006 	tbb	[pc, r6]
  10a6ec:	18080d04 	.word	0x18080d04
  10a6f0:	0d1d      	.short	0x0d1d
  10a6f2:	04          	.byte	0x04
  10a6f3:	00          	.byte	0x00
  10a6f4:	f04f 0900 	mov.w	r9, #0
  10a6f8:	46c8      	mov	r8, r9
  10a6fa:	e018      	b.n	10a72e <_strtod_r+0xf6>
  10a6fc:	f8dd 8068 	ldr.w	r8, [sp, #104]	; 0x68
  10a700:	f8dd 906c 	ldr.w	r9, [sp, #108]	; 0x6c
  10a704:	e013      	b.n	10a72e <_strtod_r+0xf6>
  10a706:	9b1b      	ldr	r3, [sp, #108]	; 0x6c
  10a708:	9a19      	ldr	r2, [sp, #100]	; 0x64
  10a70a:	f423 1380 	bic.w	r3, r3, #1048576	; 0x100000
  10a70e:	f202 4233 	addw	r2, r2, #1075	; 0x433
  10a712:	f8dd 8068 	ldr.w	r8, [sp, #104]	; 0x68
  10a716:	ea43 5902 	orr.w	r9, r3, r2, lsl #20
  10a71a:	e008      	b.n	10a72e <_strtod_r+0xf6>
  10a71c:	f8df 922c 	ldr.w	r9, [pc, #556]	; 10a94c <_strtod_r+0x314>
  10a720:	f04f 0800 	mov.w	r8, #0
  10a724:	e003      	b.n	10a72e <_strtod_r+0xf6>
  10a726:	f06f 4900 	mvn.w	r9, #2147483648	; 0x80000000
  10a72a:	f04f 38ff 	mov.w	r8, #4294967295
  10a72e:	0721      	lsls	r1, r4, #28
  10a730:	f140 854b 	bpl.w	10b1ca <_strtod_r+0xb92>
  10a734:	f049 4900 	orr.w	r9, r9, #2147483648	; 0x80000000
  10a738:	f000 bd47 	b.w	10b1ca <_strtod_r+0xb92>
  10a73c:	9b17      	ldr	r3, [sp, #92]	; 0x5c
  10a73e:	1c5a      	adds	r2, r3, #1
  10a740:	9217      	str	r2, [sp, #92]	; 0x5c
  10a742:	785b      	ldrb	r3, [r3, #1]
  10a744:	2b30      	cmp	r3, #48	; 0x30
  10a746:	d0f9      	beq.n	10a73c <_strtod_r+0x104>
  10a748:	2b00      	cmp	r3, #0
  10a74a:	f000 853e 	beq.w	10b1ca <_strtod_r+0xb92>
  10a74e:	2301      	movs	r3, #1
  10a750:	e000      	b.n	10a754 <_strtod_r+0x11c>
  10a752:	2300      	movs	r3, #0
  10a754:	9305      	str	r3, [sp, #20]
  10a756:	9b17      	ldr	r3, [sp, #92]	; 0x5c
  10a758:	220a      	movs	r2, #10
  10a75a:	9306      	str	r3, [sp, #24]
  10a75c:	2300      	movs	r3, #0
  10a75e:	469b      	mov	r11, r3
  10a760:	9302      	str	r3, [sp, #8]
  10a762:	9304      	str	r3, [sp, #16]
  10a764:	9d17      	ldr	r5, [sp, #92]	; 0x5c
  10a766:	782e      	ldrb	r6, [r5, #0]
  10a768:	f1a6 0330 	sub.w	r3, r6, #48	; 0x30
  10a76c:	b2d9      	uxtb	r1, r3
  10a76e:	2909      	cmp	r1, #9
  10a770:	d811      	bhi.n	10a796 <_strtod_r+0x15e>
  10a772:	f1bb 0f08 	cmp.w	r11, #8
  10a776:	bfd5      	itete	le
  10a778:	9904      	ldrle	r1, [sp, #16]
  10a77a:	9902      	ldrgt	r1, [sp, #8]
  10a77c:	fb02 3301 	mlale	r3, r2, r1, r3
  10a780:	fb02 3301 	mlagt	r3, r2, r1, r3
  10a784:	f105 0501 	add.w	r5, r5, #1
  10a788:	bfd4      	ite	le
  10a78a:	9304      	strle	r3, [sp, #16]
  10a78c:	9302      	strgt	r3, [sp, #8]
  10a78e:	f10b 0b01 	add.w	r11, r11, #1
  10a792:	9517      	str	r5, [sp, #92]	; 0x5c
  10a794:	e7e6      	b.n	10a764 <_strtod_r+0x12c>
  10a796:	4650      	mov	r0, r10
  10a798:	f7fe fb9e 	bl	108ed8 <_localeconv_r>
  10a79c:	6807      	ldr	r7, [r0, #0]
  10a79e:	4650      	mov	r0, r10
  10a7a0:	f7fe fb9a 	bl	108ed8 <_localeconv_r>
  10a7a4:	6800      	ldr	r0, [r0, #0]
  10a7a6:	f7ff ff06 	bl	10a5b6 <strlen>
  10a7aa:	4639      	mov	r1, r7
  10a7ac:	4602      	mov	r2, r0
  10a7ae:	4628      	mov	r0, r5
  10a7b0:	f7ff ff09 	bl	10a5c6 <strncmp>
  10a7b4:	4607      	mov	r7, r0
  10a7b6:	b128      	cbz	r0, 10a7c4 <_strtod_r+0x18c>
  10a7b8:	2000      	movs	r0, #0
  10a7ba:	4633      	mov	r3, r6
  10a7bc:	465d      	mov	r5, r11
  10a7be:	4602      	mov	r2, r0
  10a7c0:	4601      	mov	r1, r0
  10a7c2:	e05a      	b.n	10a87a <_strtod_r+0x242>
  10a7c4:	4650      	mov	r0, r10
  10a7c6:	f7fe fb87 	bl	108ed8 <_localeconv_r>
  10a7ca:	6800      	ldr	r0, [r0, #0]
  10a7cc:	f7ff fef3 	bl	10a5b6 <strlen>
  10a7d0:	9b17      	ldr	r3, [sp, #92]	; 0x5c
  10a7d2:	181a      	adds	r2, r3, r0
  10a7d4:	9217      	str	r2, [sp, #92]	; 0x5c
  10a7d6:	5c1b      	ldrb	r3, [r3, r0]
  10a7d8:	f1bb 0f00 	cmp.w	r11, #0
  10a7dc:	d145      	bne.n	10a86a <_strtod_r+0x232>
  10a7de:	4658      	mov	r0, r11
  10a7e0:	2b30      	cmp	r3, #48	; 0x30
  10a7e2:	d105      	bne.n	10a7f0 <_strtod_r+0x1b8>
  10a7e4:	9b17      	ldr	r3, [sp, #92]	; 0x5c
  10a7e6:	3001      	adds	r0, #1
  10a7e8:	1c5a      	adds	r2, r3, #1
  10a7ea:	9217      	str	r2, [sp, #92]	; 0x5c
  10a7ec:	785b      	ldrb	r3, [r3, #1]
  10a7ee:	e7f7      	b.n	10a7e0 <_strtod_r+0x1a8>
  10a7f0:	f1a3 0231 	sub.w	r2, r3, #49	; 0x31
  10a7f4:	2a08      	cmp	r2, #8
  10a7f6:	d846      	bhi.n	10a886 <_strtod_r+0x24e>
  10a7f8:	9a17      	ldr	r2, [sp, #92]	; 0x5c
  10a7fa:	9206      	str	r2, [sp, #24]
  10a7fc:	4602      	mov	r2, r0
  10a7fe:	2000      	movs	r0, #0
  10a800:	4605      	mov	r5, r0
  10a802:	3b30      	subs	r3, #48	; 0x30
  10a804:	f100 0101 	add.w	r1, r0, #1
  10a808:	d029      	beq.n	10a85e <_strtod_r+0x226>
  10a80a:	440a      	add	r2, r1
  10a80c:	4629      	mov	r1, r5
  10a80e:	eb05 0c00 	add.w	r12, r5, r0
  10a812:	260a      	movs	r6, #10
  10a814:	4561      	cmp	r1, r12
  10a816:	d00f      	beq.n	10a838 <_strtod_r+0x200>
  10a818:	3101      	adds	r1, #1
  10a81a:	f101 3eff 	add.w	lr, r1, #4294967295
  10a81e:	f1be 0f08 	cmp.w	lr, #8
  10a822:	dc03      	bgt.n	10a82c <_strtod_r+0x1f4>
  10a824:	9f04      	ldr	r7, [sp, #16]
  10a826:	4377      	muls	r7, r6
  10a828:	9704      	str	r7, [sp, #16]
  10a82a:	e7f3      	b.n	10a814 <_strtod_r+0x1dc>
  10a82c:	2910      	cmp	r1, #16
  10a82e:	bfde      	ittt	le
  10a830:	9f02      	ldrle	r7, [sp, #8]
  10a832:	4377      	mulle	r7, r6
  10a834:	9702      	strle	r7, [sp, #8]
  10a836:	e7ed      	b.n	10a814 <_strtod_r+0x1dc>
  10a838:	4428      	add	r0, r5
  10a83a:	2808      	cmp	r0, #8
  10a83c:	f100 0501 	add.w	r5, r0, #1
  10a840:	dc05      	bgt.n	10a84e <_strtod_r+0x216>
  10a842:	9804      	ldr	r0, [sp, #16]
  10a844:	210a      	movs	r1, #10
  10a846:	fb01 3300 	mla	r3, r1, r0, r3
  10a84a:	9304      	str	r3, [sp, #16]
  10a84c:	e006      	b.n	10a85c <_strtod_r+0x224>
  10a84e:	2d10      	cmp	r5, #16
  10a850:	bfdf      	itttt	le
  10a852:	9802      	ldrle	r0, [sp, #8]
  10a854:	210a      	movle	r1, #10
  10a856:	fb01 3300 	mlale	r3, r1, r0, r3
  10a85a:	9302      	strle	r3, [sp, #8]
  10a85c:	2100      	movs	r1, #0
  10a85e:	9b17      	ldr	r3, [sp, #92]	; 0x5c
  10a860:	1c58      	adds	r0, r3, #1
  10a862:	9017      	str	r0, [sp, #92]	; 0x5c
  10a864:	785b      	ldrb	r3, [r3, #1]
  10a866:	4608      	mov	r0, r1
  10a868:	e002      	b.n	10a870 <_strtod_r+0x238>
  10a86a:	465d      	mov	r5, r11
  10a86c:	4638      	mov	r0, r7
  10a86e:	463a      	mov	r2, r7
  10a870:	f1a3 0130 	sub.w	r1, r3, #48	; 0x30
  10a874:	2909      	cmp	r1, #9
  10a876:	d9c4      	bls.n	10a802 <_strtod_r+0x1ca>
  10a878:	2101      	movs	r1, #1
  10a87a:	2b65      	cmp	r3, #101	; 0x65
  10a87c:	d001      	beq.n	10a882 <_strtod_r+0x24a>
  10a87e:	2b45      	cmp	r3, #69	; 0x45
  10a880:	d14f      	bne.n	10a922 <_strtod_r+0x2ea>
  10a882:	b96d      	cbnz	r5, 10a8a0 <_strtod_r+0x268>
  10a884:	e004      	b.n	10a890 <_strtod_r+0x258>
  10a886:	2b65      	cmp	r3, #101	; 0x65
  10a888:	f040 84ad 	bne.w	10b1e6 <_strtod_r+0xbae>
  10a88c:	2200      	movs	r2, #0
  10a88e:	2101      	movs	r1, #1
  10a890:	b928      	cbnz	r0, 10a89e <_strtod_r+0x266>
  10a892:	9b05      	ldr	r3, [sp, #20]
  10a894:	2b00      	cmp	r3, #0
  10a896:	f000 8092 	beq.w	10a9be <_strtod_r+0x386>
  10a89a:	4605      	mov	r5, r0
  10a89c:	e000      	b.n	10a8a0 <_strtod_r+0x268>
  10a89e:	2500      	movs	r5, #0
  10a8a0:	9c17      	ldr	r4, [sp, #92]	; 0x5c
  10a8a2:	1c63      	adds	r3, r4, #1
  10a8a4:	9317      	str	r3, [sp, #92]	; 0x5c
  10a8a6:	7863      	ldrb	r3, [r4, #1]
  10a8a8:	2b2b      	cmp	r3, #43	; 0x2b
  10a8aa:	d006      	beq.n	10a8ba <_strtod_r+0x282>
  10a8ac:	2b2d      	cmp	r3, #45	; 0x2d
  10a8ae:	d002      	beq.n	10a8b6 <_strtod_r+0x27e>
  10a8b0:	2600      	movs	r6, #0
  10a8b2:	9603      	str	r6, [sp, #12]
  10a8b4:	e006      	b.n	10a8c4 <_strtod_r+0x28c>
  10a8b6:	2301      	movs	r3, #1
  10a8b8:	e000      	b.n	10a8bc <_strtod_r+0x284>
  10a8ba:	2300      	movs	r3, #0
  10a8bc:	9303      	str	r3, [sp, #12]
  10a8be:	1ca3      	adds	r3, r4, #2
  10a8c0:	9317      	str	r3, [sp, #92]	; 0x5c
  10a8c2:	78a3      	ldrb	r3, [r4, #2]
  10a8c4:	f1a3 0630 	sub.w	r6, r3, #48	; 0x30
  10a8c8:	2e09      	cmp	r6, #9
  10a8ca:	d829      	bhi.n	10a920 <_strtod_r+0x2e8>
  10a8cc:	2b30      	cmp	r3, #48	; 0x30
  10a8ce:	d104      	bne.n	10a8da <_strtod_r+0x2a2>
  10a8d0:	9b17      	ldr	r3, [sp, #92]	; 0x5c
  10a8d2:	1c5e      	adds	r6, r3, #1
  10a8d4:	9617      	str	r6, [sp, #92]	; 0x5c
  10a8d6:	785b      	ldrb	r3, [r3, #1]
  10a8d8:	e7f8      	b.n	10a8cc <_strtod_r+0x294>
  10a8da:	f1a3 0631 	sub.w	r6, r3, #49	; 0x31
  10a8de:	2e08      	cmp	r6, #8
  10a8e0:	d81f      	bhi.n	10a922 <_strtod_r+0x2ea>
  10a8e2:	f1a3 0e30 	sub.w	lr, r3, #48	; 0x30
  10a8e6:	9b17      	ldr	r3, [sp, #92]	; 0x5c
  10a8e8:	461f      	mov	r7, r3
  10a8ea:	9b17      	ldr	r3, [sp, #92]	; 0x5c
  10a8ec:	1c5e      	adds	r6, r3, #1
  10a8ee:	9617      	str	r6, [sp, #92]	; 0x5c
  10a8f0:	785b      	ldrb	r3, [r3, #1]
  10a8f2:	f1a3 0c30 	sub.w	r12, r3, #48	; 0x30
  10a8f6:	f1bc 0f09 	cmp.w	r12, #9
  10a8fa:	d805      	bhi.n	10a908 <_strtod_r+0x2d0>
  10a8fc:	260a      	movs	r6, #10
  10a8fe:	fb06 3e0e 	mla	lr, r6, lr, r3
  10a902:	f1ae 0e30 	sub.w	lr, lr, #48	; 0x30
  10a906:	e7f0      	b.n	10a8ea <_strtod_r+0x2b2>
  10a908:	1bf6      	subs	r6, r6, r7
  10a90a:	2e08      	cmp	r6, #8
  10a90c:	f644 661f 	movw	r6, #19999	; 0x4e1f
  10a910:	dc02      	bgt.n	10a918 <_strtod_r+0x2e0>
  10a912:	4576      	cmp	r6, lr
  10a914:	bfa8      	it	ge
  10a916:	4676      	movge	r6, lr
  10a918:	9f03      	ldr	r7, [sp, #12]
  10a91a:	b11f      	cbz	r7, 10a924 <_strtod_r+0x2ec>
  10a91c:	4276      	negs	r6, r6
  10a91e:	e001      	b.n	10a924 <_strtod_r+0x2ec>
  10a920:	9417      	str	r4, [sp, #92]	; 0x5c
  10a922:	2600      	movs	r6, #0
  10a924:	2d00      	cmp	r5, #0
  10a926:	d152      	bne.n	10a9ce <_strtod_r+0x396>
  10a928:	2800      	cmp	r0, #0
  10a92a:	f040 844e 	bne.w	10b1ca <_strtod_r+0xb92>
  10a92e:	9a05      	ldr	r2, [sp, #20]
  10a930:	2a00      	cmp	r2, #0
  10a932:	f040 844a 	bne.w	10b1ca <_strtod_r+0xb92>
  10a936:	2900      	cmp	r1, #0
  10a938:	d141      	bne.n	10a9be <_strtod_r+0x386>
  10a93a:	2b4e      	cmp	r3, #78	; 0x4e
  10a93c:	d020      	beq.n	10a980 <_strtod_r+0x348>
  10a93e:	dc07      	bgt.n	10a950 <_strtod_r+0x318>
  10a940:	2b49      	cmp	r3, #73	; 0x49
  10a942:	d00a      	beq.n	10a95a <_strtod_r+0x322>
  10a944:	e03b      	b.n	10a9be <_strtod_r+0x386>
  10a946:	bf00      	nop
  10a948:	0010e978 	.word	0x0010e978
  10a94c:	7ff00000 	.word	0x7ff00000
  10a950:	2b69      	cmp	r3, #105	; 0x69
  10a952:	d002      	beq.n	10a95a <_strtod_r+0x322>
  10a954:	2b6e      	cmp	r3, #110	; 0x6e
  10a956:	d013      	beq.n	10a980 <_strtod_r+0x348>
  10a958:	e031      	b.n	10a9be <_strtod_r+0x386>
  10a95a:	49aa      	ldr	r1, [pc, #680]	; (10ac04 <_strtod_r+0x5cc>)
  10a95c:	a817      	add	r0, sp, #92	; 0x5c
  10a95e:	f002 f83d 	bl	10c9dc <__match>
  10a962:	b360      	cbz	r0, 10a9be <_strtod_r+0x386>
  10a964:	9b17      	ldr	r3, [sp, #92]	; 0x5c
  10a966:	49a8      	ldr	r1, [pc, #672]	; (10ac08 <_strtod_r+0x5d0>)
  10a968:	3b01      	subs	r3, #1
  10a96a:	a817      	add	r0, sp, #92	; 0x5c
  10a96c:	9317      	str	r3, [sp, #92]	; 0x5c
  10a96e:	f002 f835 	bl	10c9dc <__match>
  10a972:	b910      	cbnz	r0, 10a97a <_strtod_r+0x342>
  10a974:	9b17      	ldr	r3, [sp, #92]	; 0x5c
  10a976:	3301      	adds	r3, #1
  10a978:	9317      	str	r3, [sp, #92]	; 0x5c
  10a97a:	f8df 92a8 	ldr.w	r9, [pc, #680]	; 10ac24 <_strtod_r+0x5ec>
  10a97e:	e01a      	b.n	10a9b6 <_strtod_r+0x37e>
  10a980:	49a2      	ldr	r1, [pc, #648]	; (10ac0c <_strtod_r+0x5d4>)
  10a982:	a817      	add	r0, sp, #92	; 0x5c
  10a984:	f002 f82a 	bl	10c9dc <__match>
  10a988:	b1c8      	cbz	r0, 10a9be <_strtod_r+0x386>
  10a98a:	9b17      	ldr	r3, [sp, #92]	; 0x5c
  10a98c:	781b      	ldrb	r3, [r3, #0]
  10a98e:	2b28      	cmp	r3, #40	; 0x28
  10a990:	d10f      	bne.n	10a9b2 <_strtod_r+0x37a>
  10a992:	aa1a      	add	r2, sp, #104	; 0x68
  10a994:	499e      	ldr	r1, [pc, #632]	; (10ac10 <_strtod_r+0x5d8>)
  10a996:	a817      	add	r0, sp, #92	; 0x5c
  10a998:	f002 f833 	bl	10ca02 <__hexnan>
  10a99c:	2805      	cmp	r0, #5
  10a99e:	d108      	bne.n	10a9b2 <_strtod_r+0x37a>
  10a9a0:	9b1b      	ldr	r3, [sp, #108]	; 0x6c
  10a9a2:	f8dd 8068 	ldr.w	r8, [sp, #104]	; 0x68
  10a9a6:	f043 49ff 	orr.w	r9, r3, #2139095040	; 0x7f800000
  10a9aa:	f449 09e0 	orr.w	r9, r9, #7340032	; 0x700000
  10a9ae:	f000 bc0c 	b.w	10b1ca <_strtod_r+0xb92>
  10a9b2:	f8df 9274 	ldr.w	r9, [pc, #628]	; 10ac28 <_strtod_r+0x5f0>
  10a9b6:	f04f 0800 	mov.w	r8, #0
  10a9ba:	f000 bc06 	b.w	10b1ca <_strtod_r+0xb92>
  10a9be:	9b13      	ldr	r3, [sp, #76]	; 0x4c
  10a9c0:	9417      	str	r4, [sp, #92]	; 0x5c
  10a9c2:	2b00      	cmp	r3, #0
  10a9c4:	f000 840c 	beq.w	10b1e0 <_strtod_r+0xba8>
  10a9c8:	2300      	movs	r3, #0
  10a9ca:	930c      	str	r3, [sp, #48]	; 0x30
  10a9cc:	e3ff      	b.n	10b1ce <_strtod_r+0xb96>
  10a9ce:	462c      	mov	r4, r5
  10a9d0:	f1bb 0f00 	cmp.w	r11, #0
  10a9d4:	bf08      	it	eq
  10a9d6:	46ab      	moveq	r11, r5
  10a9d8:	9804      	ldr	r0, [sp, #16]
  10a9da:	2d10      	cmp	r5, #16
  10a9dc:	bfa8      	it	ge
  10a9de:	2410      	movge	r4, #16
  10a9e0:	1ab7      	subs	r7, r6, r2
  10a9e2:	f7fd fc63 	bl	1082ac <__aeabi_ui2d>
  10a9e6:	2c09      	cmp	r4, #9
  10a9e8:	4680      	mov	r8, r0
  10a9ea:	4689      	mov	r9, r1
  10a9ec:	dd13      	ble.n	10aa16 <_strtod_r+0x3de>
  10a9ee:	4b89      	ldr	r3, [pc, #548]	; (10ac14 <_strtod_r+0x5dc>)
  10a9f0:	eb03 03c4 	add.w	r3, r3, r4, lsl #3
  10a9f4:	e953 2312 	ldrd	r2, r3, [r3, #-72]	; 0x48
  10a9f8:	f002 ffe4 	bl	10d9c4 <__aeabi_dmul>
  10a9fc:	4680      	mov	r8, r0
  10a9fe:	9802      	ldr	r0, [sp, #8]
  10aa00:	4689      	mov	r9, r1
  10aa02:	f7fd fc53 	bl	1082ac <__aeabi_ui2d>
  10aa06:	4602      	mov	r2, r0
  10aa08:	460b      	mov	r3, r1
  10aa0a:	4640      	mov	r0, r8
  10aa0c:	4649      	mov	r1, r9
  10aa0e:	f7fd fb11 	bl	108034 <__adddf3>
  10aa12:	4680      	mov	r8, r0
  10aa14:	4689      	mov	r9, r1
  10aa16:	2d0f      	cmp	r5, #15
  10aa18:	dc33      	bgt.n	10aa82 <_strtod_r+0x44a>
  10aa1a:	2f00      	cmp	r7, #0
  10aa1c:	f000 83d5 	beq.w	10b1ca <_strtod_r+0xb92>
  10aa20:	dd22      	ble.n	10aa68 <_strtod_r+0x430>
  10aa22:	2f16      	cmp	r7, #22
  10aa24:	dc07      	bgt.n	10aa36 <_strtod_r+0x3fe>
  10aa26:	4d7b      	ldr	r5, [pc, #492]	; (10ac14 <_strtod_r+0x5dc>)
  10aa28:	4642      	mov	r2, r8
  10aa2a:	eb05 01c7 	add.w	r1, r5, r7, lsl #3
  10aa2e:	464b      	mov	r3, r9
  10aa30:	e9d1 0100 	ldrd	r0, r1, [r1]
  10aa34:	e013      	b.n	10aa5e <_strtod_r+0x426>
  10aa36:	f1c5 0325 	rsb	r3, r5, #37	; 0x25
  10aa3a:	429f      	cmp	r7, r3
  10aa3c:	dc21      	bgt.n	10aa82 <_strtod_r+0x44a>
  10aa3e:	4c75      	ldr	r4, [pc, #468]	; (10ac14 <_strtod_r+0x5dc>)
  10aa40:	f1c5 050f 	rsb	r5, r5, #15
  10aa44:	eb04 01c5 	add.w	r1, r4, r5, lsl #3
  10aa48:	1b7d      	subs	r5, r7, r5
  10aa4a:	4642      	mov	r2, r8
  10aa4c:	e9d1 0100 	ldrd	r0, r1, [r1]
  10aa50:	464b      	mov	r3, r9
  10aa52:	eb04 04c5 	add.w	r4, r4, r5, lsl #3
  10aa56:	f002 ffb5 	bl	10d9c4 <__aeabi_dmul>
  10aa5a:	e9d4 2300 	ldrd	r2, r3, [r4]
  10aa5e:	f002 ffb1 	bl	10d9c4 <__aeabi_dmul>
  10aa62:	4680      	mov	r8, r0
  10aa64:	4689      	mov	r9, r1
  10aa66:	e3b0      	b.n	10b1ca <_strtod_r+0xb92>
  10aa68:	f117 0f16 	cmn.w	r7, #22
  10aa6c:	db09      	blt.n	10aa82 <_strtod_r+0x44a>
  10aa6e:	4d69      	ldr	r5, [pc, #420]	; (10ac14 <_strtod_r+0x5dc>)
  10aa70:	4640      	mov	r0, r8
  10aa72:	eba5 03c7 	sub.w	r3, r5, r7, lsl #3
  10aa76:	e9d3 2300 	ldrd	r2, r3, [r3]
  10aa7a:	4649      	mov	r1, r9
  10aa7c:	f003 f8cc 	bl	10dc18 <__aeabi_ddiv>
  10aa80:	e7ef      	b.n	10aa62 <_strtod_r+0x42a>
  10aa82:	1b2c      	subs	r4, r5, r4
  10aa84:	443c      	add	r4, r7
  10aa86:	2c00      	cmp	r4, #0
  10aa88:	dd5d      	ble.n	10ab46 <_strtod_r+0x50e>
  10aa8a:	f014 010f 	ands.w	r1, r4, #15
  10aa8e:	d00a      	beq.n	10aaa6 <_strtod_r+0x46e>
  10aa90:	4b60      	ldr	r3, [pc, #384]	; (10ac14 <_strtod_r+0x5dc>)
  10aa92:	4642      	mov	r2, r8
  10aa94:	eb03 01c1 	add.w	r1, r3, r1, lsl #3
  10aa98:	e9d1 0100 	ldrd	r0, r1, [r1]
  10aa9c:	464b      	mov	r3, r9
  10aa9e:	f002 ff91 	bl	10d9c4 <__aeabi_dmul>
  10aaa2:	4680      	mov	r8, r0
  10aaa4:	4689      	mov	r9, r1
  10aaa6:	f034 040f 	bics.w	r4, r4, #15
  10aaaa:	f000 80c1 	beq.w	10ac30 <_strtod_r+0x5f8>
  10aaae:	f5b4 7f9a 	cmp.w	r4, #308	; 0x134
  10aab2:	dd0f      	ble.n	10aad4 <_strtod_r+0x49c>
  10aab4:	f04f 0b00 	mov.w	r11, #0
  10aab8:	f8cd b008 	str.w	r11, [sp, #8]
  10aabc:	f8cd b014 	str.w	r11, [sp, #20]
  10aac0:	f8cd b010 	str.w	r11, [sp, #16]
  10aac4:	2322      	movs	r3, #34	; 0x22
  10aac6:	f8ca 3000 	str.w	r3, [r10]
  10aaca:	f8df 9158 	ldr.w	r9, [pc, #344]	; 10ac24 <_strtod_r+0x5ec>
  10aace:	f04f 0800 	mov.w	r8, #0
  10aad2:	e189      	b.n	10ade8 <_strtod_r+0x7b0>
  10aad4:	4640      	mov	r0, r8
  10aad6:	4649      	mov	r1, r9
  10aad8:	2300      	movs	r3, #0
  10aada:	4e4f      	ldr	r6, [pc, #316]	; (10ac18 <_strtod_r+0x5e0>)
  10aadc:	1124      	asrs	r4, r4, #4
  10aade:	9302      	str	r3, [sp, #8]
  10aae0:	2c01      	cmp	r4, #1
  10aae2:	dd0c      	ble.n	10aafe <_strtod_r+0x4c6>
  10aae4:	07e2      	lsls	r2, r4, #31
  10aae6:	d504      	bpl.n	10aaf2 <_strtod_r+0x4ba>
  10aae8:	e9d6 2300 	ldrd	r2, r3, [r6]
  10aaec:	f002 ff6a 	bl	10d9c4 <__aeabi_dmul>
  10aaf0:	2301      	movs	r3, #1
  10aaf2:	9a02      	ldr	r2, [sp, #8]
  10aaf4:	1064      	asrs	r4, r4, #1
  10aaf6:	3201      	adds	r2, #1
  10aaf8:	9202      	str	r2, [sp, #8]
  10aafa:	3608      	adds	r6, #8
  10aafc:	e7f0      	b.n	10aae0 <_strtod_r+0x4a8>
  10aafe:	b10b      	cbz	r3, 10ab04 <_strtod_r+0x4cc>
  10ab00:	4680      	mov	r8, r0
  10ab02:	4689      	mov	r9, r1
  10ab04:	4b44      	ldr	r3, [pc, #272]	; (10ac18 <_strtod_r+0x5e0>)
  10ab06:	9a02      	ldr	r2, [sp, #8]
  10ab08:	f1a9 7954 	sub.w	r9, r9, #55574528	; 0x3500000
  10ab0c:	eb03 01c2 	add.w	r1, r3, r2, lsl #3
  10ab10:	e9d1 0100 	ldrd	r0, r1, [r1]
  10ab14:	4642      	mov	r2, r8
  10ab16:	464b      	mov	r3, r9
  10ab18:	f002 ff54 	bl	10d9c4 <__aeabi_dmul>
  10ab1c:	f021 4300 	bic.w	r3, r1, #2147483648	; 0x80000000
  10ab20:	4689      	mov	r9, r1
  10ab22:	460a      	mov	r2, r1
  10ab24:	0d1b      	lsrs	r3, r3, #20
  10ab26:	493d      	ldr	r1, [pc, #244]	; (10ac1c <_strtod_r+0x5e4>)
  10ab28:	051b      	lsls	r3, r3, #20
  10ab2a:	428b      	cmp	r3, r1
  10ab2c:	4680      	mov	r8, r0
  10ab2e:	d8c1      	bhi.n	10aab4 <_strtod_r+0x47c>
  10ab30:	f5a1 1180 	sub.w	r1, r1, #1048576	; 0x100000
  10ab34:	428b      	cmp	r3, r1
  10ab36:	bf86      	itte	hi
  10ab38:	f8df 90f0 	ldrhi.w	r9, [pc, #240]	; 10ac2c <_strtod_r+0x5f4>
  10ab3c:	f04f 38ff 	movhi.w	r8, #4294967295
  10ab40:	f102 7954 	addls.w	r9, r2, #55574528	; 0x3500000
  10ab44:	e074      	b.n	10ac30 <_strtod_r+0x5f8>
  10ab46:	d073      	beq.n	10ac30 <_strtod_r+0x5f8>
  10ab48:	4264      	negs	r4, r4
  10ab4a:	f014 020f 	ands.w	r2, r4, #15
  10ab4e:	d00a      	beq.n	10ab66 <_strtod_r+0x52e>
  10ab50:	4b30      	ldr	r3, [pc, #192]	; (10ac14 <_strtod_r+0x5dc>)
  10ab52:	4640      	mov	r0, r8
  10ab54:	eb03 03c2 	add.w	r3, r3, r2, lsl #3
  10ab58:	4649      	mov	r1, r9
  10ab5a:	e9d3 2300 	ldrd	r2, r3, [r3]
  10ab5e:	f003 f85b 	bl	10dc18 <__aeabi_ddiv>
  10ab62:	4680      	mov	r8, r0
  10ab64:	4689      	mov	r9, r1
  10ab66:	1124      	asrs	r4, r4, #4
  10ab68:	d062      	beq.n	10ac30 <_strtod_r+0x5f8>
  10ab6a:	2c1f      	cmp	r4, #31
  10ab6c:	dd08      	ble.n	10ab80 <_strtod_r+0x548>
  10ab6e:	f04f 0b00 	mov.w	r11, #0
  10ab72:	f8cd b008 	str.w	r11, [sp, #8]
  10ab76:	f8cd b014 	str.w	r11, [sp, #20]
  10ab7a:	f8cd b010 	str.w	r11, [sp, #16]
  10ab7e:	e12c      	b.n	10adda <_strtod_r+0x7a2>
  10ab80:	4640      	mov	r0, r8
  10ab82:	4649      	mov	r1, r9
  10ab84:	f014 0f10 	tst.w	r4, #16
  10ab88:	bf0c      	ite	eq
  10ab8a:	2300      	moveq	r3, #0
  10ab8c:	236a      	movne	r3, #106	; 0x6a
  10ab8e:	4e24      	ldr	r6, [pc, #144]	; (10ac20 <_strtod_r+0x5e8>)
  10ab90:	9303      	str	r3, [sp, #12]
  10ab92:	2300      	movs	r3, #0
  10ab94:	2c00      	cmp	r4, #0
  10ab96:	dd09      	ble.n	10abac <_strtod_r+0x574>
  10ab98:	07e2      	lsls	r2, r4, #31
  10ab9a:	d504      	bpl.n	10aba6 <_strtod_r+0x56e>
  10ab9c:	e9d6 2300 	ldrd	r2, r3, [r6]
  10aba0:	f002 ff10 	bl	10d9c4 <__aeabi_dmul>
  10aba4:	2301      	movs	r3, #1
  10aba6:	1064      	asrs	r4, r4, #1
  10aba8:	3608      	adds	r6, #8
  10abaa:	e7f3      	b.n	10ab94 <_strtod_r+0x55c>
  10abac:	b10b      	cbz	r3, 10abb2 <_strtod_r+0x57a>
  10abae:	4680      	mov	r8, r0
  10abb0:	4689      	mov	r9, r1
  10abb2:	9b03      	ldr	r3, [sp, #12]
  10abb4:	b1eb      	cbz	r3, 10abf2 <_strtod_r+0x5ba>
  10abb6:	f3c9 530a 	ubfx	r3, r9, #20, #11
  10abba:	f1c3 036b 	rsb	r3, r3, #107	; 0x6b
  10abbe:	2b00      	cmp	r3, #0
  10abc0:	4649      	mov	r1, r9
  10abc2:	dd16      	ble.n	10abf2 <_strtod_r+0x5ba>
  10abc4:	2b1f      	cmp	r3, #31
  10abc6:	dd0e      	ble.n	10abe6 <_strtod_r+0x5ae>
  10abc8:	2b34      	cmp	r3, #52	; 0x34
  10abca:	bfde      	ittt	le
  10abcc:	3b20      	suble	r3, #32
  10abce:	f04f 32ff 	movle.w	r2, #4294967295
  10abd2:	fa02 f303 	lslle.w	r3, r2, r3
  10abd6:	f04f 0800 	mov.w	r8, #0
  10abda:	bfcc      	ite	gt
  10abdc:	f04f 795c 	movgt.w	r9, #57671680	; 0x3700000
  10abe0:	ea03 0901 	andle.w	r9, r3, r1
  10abe4:	e005      	b.n	10abf2 <_strtod_r+0x5ba>
  10abe6:	f04f 32ff 	mov.w	r2, #4294967295
  10abea:	fa02 f303 	lsl.w	r3, r2, r3
  10abee:	ea03 0808 	and.w	r8, r3, r8
  10abf2:	2200      	movs	r2, #0
  10abf4:	2300      	movs	r3, #0
  10abf6:	4640      	mov	r0, r8
  10abf8:	4649      	mov	r1, r9
  10abfa:	f7fd fc23 	bl	108444 <__aeabi_dcmpeq>
  10abfe:	2800      	cmp	r0, #0
  10ac00:	d1b5      	bne.n	10ab6e <_strtod_r+0x536>
  10ac02:	e017      	b.n	10ac34 <_strtod_r+0x5fc>
  10ac04:	0010e909 	.word	0x0010e909
  10ac08:	0010e9bb 	.word	0x0010e9bb
  10ac0c:	0010e911 	.word	0x0010e911
  10ac10:	0010e964 	.word	0x0010e964
  10ac14:	0010e9c8 	.word	0x0010e9c8
  10ac18:	0010eaa0 	.word	0x0010eaa0
  10ac1c:	7ca00000 	.word	0x7ca00000
  10ac20:	0010e990 	.word	0x0010e990
  10ac24:	7ff00000 	.word	0x7ff00000
  10ac28:	fff80000 	.word	0xfff80000
  10ac2c:	7fefffff 	.word	0x7fefffff
  10ac30:	2300      	movs	r3, #0
  10ac32:	9303      	str	r3, [sp, #12]
  10ac34:	9b04      	ldr	r3, [sp, #16]
  10ac36:	465a      	mov	r2, r11
  10ac38:	9300      	str	r3, [sp, #0]
  10ac3a:	9906      	ldr	r1, [sp, #24]
  10ac3c:	462b      	mov	r3, r5
  10ac3e:	4650      	mov	r0, r10
  10ac40:	f002 f817 	bl	10cc72 <__s2b>
  10ac44:	9005      	str	r0, [sp, #20]
  10ac46:	2800      	cmp	r0, #0
  10ac48:	f43f af34 	beq.w	10aab4 <_strtod_r+0x47c>
  10ac4c:	2f00      	cmp	r7, #0
  10ac4e:	f1c7 0300 	rsb	r3, r7, #0
  10ac52:	bfa8      	it	ge
  10ac54:	2300      	movge	r3, #0
  10ac56:	930d      	str	r3, [sp, #52]	; 0x34
  10ac58:	f04f 0b00 	mov.w	r11, #0
  10ac5c:	ea27 73e7 	bic.w	r3, r7, r7, asr #31
  10ac60:	9312      	str	r3, [sp, #72]	; 0x48
  10ac62:	f8cd b008 	str.w	r11, [sp, #8]
  10ac66:	9b05      	ldr	r3, [sp, #20]
  10ac68:	4650      	mov	r0, r10
  10ac6a:	6859      	ldr	r1, [r3, #4]
  10ac6c:	f001 ff7a 	bl	10cb64 <_Balloc>
  10ac70:	9004      	str	r0, [sp, #16]
  10ac72:	2800      	cmp	r0, #0
  10ac74:	f43f af26 	beq.w	10aac4 <_strtod_r+0x48c>
  10ac78:	9b05      	ldr	r3, [sp, #20]
  10ac7a:	300c      	adds	r0, #12
  10ac7c:	691a      	ldr	r2, [r3, #16]
  10ac7e:	f103 010c 	add.w	r1, r3, #12
  10ac82:	3202      	adds	r2, #2
  10ac84:	0092      	lsls	r2, r2, #2
  10ac86:	f7fe f995 	bl	108fb4 <memcpy>
  10ac8a:	ab1a      	add	r3, sp, #104	; 0x68
  10ac8c:	9301      	str	r3, [sp, #4]
  10ac8e:	ab19      	add	r3, sp, #100	; 0x64
  10ac90:	9300      	str	r3, [sp, #0]
  10ac92:	4642      	mov	r2, r8
  10ac94:	464b      	mov	r3, r9
  10ac96:	4650      	mov	r0, r10
  10ac98:	e9cd 8908 	strd	r8, r9, [sp, #32]
  10ac9c:	f002 fa99 	bl	10d1d2 <__d2b>
  10aca0:	9018      	str	r0, [sp, #96]	; 0x60
  10aca2:	2800      	cmp	r0, #0
  10aca4:	f43f af0e 	beq.w	10aac4 <_strtod_r+0x48c>
  10aca8:	2101      	movs	r1, #1
  10acaa:	4650      	mov	r0, r10
  10acac:	f002 f86c 	bl	10cd88 <__i2b>
  10acb0:	9002      	str	r0, [sp, #8]
  10acb2:	2800      	cmp	r0, #0
  10acb4:	f43f af06 	beq.w	10aac4 <_strtod_r+0x48c>
  10acb8:	9b19      	ldr	r3, [sp, #100]	; 0x64
  10acba:	9903      	ldr	r1, [sp, #12]
  10acbc:	2b00      	cmp	r3, #0
  10acbe:	bfac      	ite	ge
  10acc0:	9a0d      	ldrge	r2, [sp, #52]	; 0x34
  10acc2:	9a12      	ldrlt	r2, [sp, #72]	; 0x48
  10acc4:	9c1a      	ldr	r4, [sp, #104]	; 0x68
  10acc6:	bfac      	ite	ge
  10acc8:	18d6      	addge	r6, r2, r3
  10acca:	1ad2      	sublt	r2, r2, r3
  10accc:	eba3 0301 	sub.w	r3, r3, r1
  10acd0:	4423      	add	r3, r4
  10acd2:	49b1      	ldr	r1, [pc, #708]	; (10af98 <_strtod_r+0x960>)
  10acd4:	f103 33ff 	add.w	r3, r3, #4294967295
  10acd8:	bfac      	ite	ge
  10acda:	9a12      	ldrge	r2, [sp, #72]	; 0x48
  10acdc:	9e0d      	ldrlt	r6, [sp, #52]	; 0x34
  10acde:	428b      	cmp	r3, r1
  10ace0:	f1c4 0436 	rsb	r4, r4, #54	; 0x36
  10ace4:	f280 8085 	bge.w	10adf2 <_strtod_r+0x7ba>
  10ace8:	1ac9      	subs	r1, r1, r3
  10acea:	291f      	cmp	r1, #31
  10acec:	bfc8      	it	gt
  10acee:	4dab      	ldrgt	r5, [pc, #684]	; (10af9c <_strtod_r+0x964>)
  10acf0:	f04f 0701 	mov.w	r7, #1
  10acf4:	bfd4      	ite	le
  10acf6:	fa07 f301 	lslle.w	r3, r7, r1
  10acfa:	1aed      	subgt	r5, r5, r3
  10acfc:	eba4 0401 	sub.w	r4, r4, r1
  10ad00:	bfd9      	ittee	le
  10ad02:	9307      	strle	r3, [sp, #28]
  10ad04:	2500      	movle	r5, #0
  10ad06:	fa07 f505 	lslgt.w	r5, r7, r5
  10ad0a:	9707      	strgt	r7, [sp, #28]
  10ad0c:	1937      	adds	r7, r6, r4
  10ad0e:	9b03      	ldr	r3, [sp, #12]
  10ad10:	42be      	cmp	r6, r7
  10ad12:	4414      	add	r4, r2
  10ad14:	441c      	add	r4, r3
  10ad16:	4633      	mov	r3, r6
  10ad18:	bfa8      	it	ge
  10ad1a:	463b      	movge	r3, r7
  10ad1c:	42a3      	cmp	r3, r4
  10ad1e:	bfa8      	it	ge
  10ad20:	4623      	movge	r3, r4
  10ad22:	2b00      	cmp	r3, #0
  10ad24:	bfc2      	ittt	gt
  10ad26:	1aff      	subgt	r7, r7, r3
  10ad28:	1ae4      	subgt	r4, r4, r3
  10ad2a:	1af6      	subgt	r6, r6, r3
  10ad2c:	9b0d      	ldr	r3, [sp, #52]	; 0x34
  10ad2e:	2b00      	cmp	r3, #0
  10ad30:	d163      	bne.n	10adfa <_strtod_r+0x7c2>
  10ad32:	2f00      	cmp	r7, #0
  10ad34:	dc7a      	bgt.n	10ae2c <_strtod_r+0x7f4>
  10ad36:	9b12      	ldr	r3, [sp, #72]	; 0x48
  10ad38:	2b00      	cmp	r3, #0
  10ad3a:	f040 8081 	bne.w	10ae40 <_strtod_r+0x808>
  10ad3e:	2c00      	cmp	r4, #0
  10ad40:	f300 8088 	bgt.w	10ae54 <_strtod_r+0x81c>
  10ad44:	2e00      	cmp	r6, #0
  10ad46:	f300 808f 	bgt.w	10ae68 <_strtod_r+0x830>
  10ad4a:	9a04      	ldr	r2, [sp, #16]
  10ad4c:	9918      	ldr	r1, [sp, #96]	; 0x60
  10ad4e:	4650      	mov	r0, r10
  10ad50:	f002 f96f 	bl	10d032 <__mdiff>
  10ad54:	4683      	mov	r11, r0
  10ad56:	2800      	cmp	r0, #0
  10ad58:	f43f aeb4 	beq.w	10aac4 <_strtod_r+0x48c>
  10ad5c:	68c3      	ldr	r3, [r0, #12]
  10ad5e:	2400      	movs	r4, #0
  10ad60:	60c4      	str	r4, [r0, #12]
  10ad62:	9902      	ldr	r1, [sp, #8]
  10ad64:	9306      	str	r3, [sp, #24]
  10ad66:	f002 f948 	bl	10cffa <__mcmp>
  10ad6a:	42a0      	cmp	r0, r4
  10ad6c:	f280 808b 	bge.w	10ae86 <_strtod_r+0x84e>
  10ad70:	9b06      	ldr	r3, [sp, #24]
  10ad72:	2b00      	cmp	r3, #0
  10ad74:	f040 8202 	bne.w	10b17c <_strtod_r+0xb44>
  10ad78:	f1b8 0f00 	cmp.w	r8, #0
  10ad7c:	f040 81fe 	bne.w	10b17c <_strtod_r+0xb44>
  10ad80:	f3c9 0313 	ubfx	r3, r9, #0, #20
  10ad84:	2b00      	cmp	r3, #0
  10ad86:	f040 81f9 	bne.w	10b17c <_strtod_r+0xb44>
  10ad8a:	f029 4300 	bic.w	r3, r9, #2147483648	; 0x80000000
  10ad8e:	0d1b      	lsrs	r3, r3, #20
  10ad90:	051b      	lsls	r3, r3, #20
  10ad92:	f1b3 6fd6 	cmp.w	r3, #112197632	; 0x6b00000
  10ad96:	f240 81f1 	bls.w	10b17c <_strtod_r+0xb44>
  10ad9a:	f8db 3014 	ldr.w	r3, [r11, #20]
  10ad9e:	2b00      	cmp	r3, #0
  10ada0:	d06c      	beq.n	10ae7c <_strtod_r+0x844>
  10ada2:	4659      	mov	r1, r11
  10ada4:	2201      	movs	r2, #1
  10ada6:	4650      	mov	r0, r10
  10ada8:	f002 f8d6 	bl	10cf58 <__lshift>
  10adac:	9902      	ldr	r1, [sp, #8]
  10adae:	4683      	mov	r11, r0
  10adb0:	f002 f923 	bl	10cffa <__mcmp>
  10adb4:	2800      	cmp	r0, #0
  10adb6:	f340 81e1 	ble.w	10b17c <_strtod_r+0xb44>
  10adba:	f029 4300 	bic.w	r3, r9, #2147483648	; 0x80000000
  10adbe:	9a03      	ldr	r2, [sp, #12]
  10adc0:	0d1b      	lsrs	r3, r3, #20
  10adc2:	051b      	lsls	r3, r3, #20
  10adc4:	2a00      	cmp	r2, #0
  10adc6:	f000 808d 	beq.w	10aee4 <_strtod_r+0x8ac>
  10adca:	f1b3 6fd6 	cmp.w	r3, #112197632	; 0x6b00000
  10adce:	f300 8089 	bgt.w	10aee4 <_strtod_r+0x8ac>
  10add2:	f1b3 7f5c 	cmp.w	r3, #57671680	; 0x3700000
  10add6:	f300 81d3 	bgt.w	10b180 <_strtod_r+0xb48>
  10adda:	2322      	movs	r3, #34	; 0x22
  10addc:	f04f 0800 	mov.w	r8, #0
  10ade0:	f04f 0900 	mov.w	r9, #0
  10ade4:	f8ca 3000 	str.w	r3, [r10]
  10ade8:	9b05      	ldr	r3, [sp, #20]
  10adea:	2b00      	cmp	r3, #0
  10adec:	f040 81d9 	bne.w	10b1a2 <_strtod_r+0xb6a>
  10adf0:	e1eb      	b.n	10b1ca <_strtod_r+0xb92>
  10adf2:	2301      	movs	r3, #1
  10adf4:	2500      	movs	r5, #0
  10adf6:	9307      	str	r3, [sp, #28]
  10adf8:	e788      	b.n	10ad0c <_strtod_r+0x6d4>
  10adfa:	461a      	mov	r2, r3
  10adfc:	9902      	ldr	r1, [sp, #8]
  10adfe:	4650      	mov	r0, r10
  10ae00:	f002 f85c 	bl	10cebc <__pow5mult>
  10ae04:	9002      	str	r0, [sp, #8]
  10ae06:	2800      	cmp	r0, #0
  10ae08:	f43f ae5c 	beq.w	10aac4 <_strtod_r+0x48c>
  10ae0c:	4601      	mov	r1, r0
  10ae0e:	9a18      	ldr	r2, [sp, #96]	; 0x60
  10ae10:	4650      	mov	r0, r10
  10ae12:	f001 ffc2 	bl	10cd9a <__multiply>
  10ae16:	9006      	str	r0, [sp, #24]
  10ae18:	2800      	cmp	r0, #0
  10ae1a:	f43f ae53 	beq.w	10aac4 <_strtod_r+0x48c>
  10ae1e:	9918      	ldr	r1, [sp, #96]	; 0x60
  10ae20:	4650      	mov	r0, r10
  10ae22:	f001 fed4 	bl	10cbce <_Bfree>
  10ae26:	9b06      	ldr	r3, [sp, #24]
  10ae28:	9318      	str	r3, [sp, #96]	; 0x60
  10ae2a:	e782      	b.n	10ad32 <_strtod_r+0x6fa>
  10ae2c:	463a      	mov	r2, r7
  10ae2e:	9918      	ldr	r1, [sp, #96]	; 0x60
  10ae30:	4650      	mov	r0, r10
  10ae32:	f002 f891 	bl	10cf58 <__lshift>
  10ae36:	9018      	str	r0, [sp, #96]	; 0x60
  10ae38:	2800      	cmp	r0, #0
  10ae3a:	f47f af7c 	bne.w	10ad36 <_strtod_r+0x6fe>
  10ae3e:	e641      	b.n	10aac4 <_strtod_r+0x48c>
  10ae40:	9a12      	ldr	r2, [sp, #72]	; 0x48
  10ae42:	9904      	ldr	r1, [sp, #16]
  10ae44:	4650      	mov	r0, r10
  10ae46:	f002 f839 	bl	10cebc <__pow5mult>
  10ae4a:	9004      	str	r0, [sp, #16]
  10ae4c:	2800      	cmp	r0, #0
  10ae4e:	f47f af76 	bne.w	10ad3e <_strtod_r+0x706>
  10ae52:	e637      	b.n	10aac4 <_strtod_r+0x48c>
  10ae54:	4622      	mov	r2, r4
  10ae56:	9904      	ldr	r1, [sp, #16]
  10ae58:	4650      	mov	r0, r10
  10ae5a:	f002 f87d 	bl	10cf58 <__lshift>
  10ae5e:	9004      	str	r0, [sp, #16]
  10ae60:	2800      	cmp	r0, #0
  10ae62:	f47f af6f 	bne.w	10ad44 <_strtod_r+0x70c>
  10ae66:	e62d      	b.n	10aac4 <_strtod_r+0x48c>
  10ae68:	4632      	mov	r2, r6
  10ae6a:	9902      	ldr	r1, [sp, #8]
  10ae6c:	4650      	mov	r0, r10
  10ae6e:	f002 f873 	bl	10cf58 <__lshift>
  10ae72:	9002      	str	r0, [sp, #8]
  10ae74:	2800      	cmp	r0, #0
  10ae76:	f47f af68 	bne.w	10ad4a <_strtod_r+0x712>
  10ae7a:	e623      	b.n	10aac4 <_strtod_r+0x48c>
  10ae7c:	f8db 3010 	ldr.w	r3, [r11, #16]
  10ae80:	2b01      	cmp	r3, #1
  10ae82:	dc8e      	bgt.n	10ada2 <_strtod_r+0x76a>
  10ae84:	e17a      	b.n	10b17c <_strtod_r+0xb44>
  10ae86:	d161      	bne.n	10af4c <_strtod_r+0x914>
  10ae88:	9a06      	ldr	r2, [sp, #24]
  10ae8a:	f3c9 0313 	ubfx	r3, r9, #0, #20
  10ae8e:	b322      	cbz	r2, 10aeda <_strtod_r+0x8a2>
  10ae90:	4943      	ldr	r1, [pc, #268]	; (10afa0 <_strtod_r+0x968>)
  10ae92:	464a      	mov	r2, r9
  10ae94:	428b      	cmp	r3, r1
  10ae96:	d12e      	bne.n	10aef6 <_strtod_r+0x8be>
  10ae98:	9b03      	ldr	r3, [sp, #12]
  10ae9a:	4641      	mov	r1, r8
  10ae9c:	b163      	cbz	r3, 10aeb8 <_strtod_r+0x880>
  10ae9e:	4b41      	ldr	r3, [pc, #260]	; (10afa4 <_strtod_r+0x96c>)
  10aea0:	4013      	ands	r3, r2
  10aea2:	f1b3 6fd4 	cmp.w	r3, #111149056	; 0x6a00000
  10aea6:	d807      	bhi.n	10aeb8 <_strtod_r+0x880>
  10aea8:	0d1b      	lsrs	r3, r3, #20
  10aeaa:	f1c3 036b 	rsb	r3, r3, #107	; 0x6b
  10aeae:	f04f 30ff 	mov.w	r0, #4294967295
  10aeb2:	fa00 f303 	lsl.w	r3, r0, r3
  10aeb6:	e001      	b.n	10aebc <_strtod_r+0x884>
  10aeb8:	f04f 33ff 	mov.w	r3, #4294967295
  10aebc:	428b      	cmp	r3, r1
  10aebe:	d11a      	bne.n	10aef6 <_strtod_r+0x8be>
  10aec0:	4939      	ldr	r1, [pc, #228]	; (10afa8 <_strtod_r+0x970>)
  10aec2:	428a      	cmp	r2, r1
  10aec4:	d102      	bne.n	10aecc <_strtod_r+0x894>
  10aec6:	3301      	adds	r3, #1
  10aec8:	f43f adfc 	beq.w	10aac4 <_strtod_r+0x48c>
  10aecc:	4b35      	ldr	r3, [pc, #212]	; (10afa4 <_strtod_r+0x96c>)
  10aece:	f04f 0800 	mov.w	r8, #0
  10aed2:	4013      	ands	r3, r2
  10aed4:	f503 1980 	add.w	r9, r3, #1048576	; 0x100000
  10aed8:	e150      	b.n	10b17c <_strtod_r+0xb44>
  10aeda:	b963      	cbnz	r3, 10aef6 <_strtod_r+0x8be>
  10aedc:	f1b8 0f00 	cmp.w	r8, #0
  10aee0:	d109      	bne.n	10aef6 <_strtod_r+0x8be>
  10aee2:	e76a      	b.n	10adba <_strtod_r+0x782>
  10aee4:	f5a3 1380 	sub.w	r3, r3, #1048576	; 0x100000
  10aee8:	ea6f 5913 	mvn.w	r9, r3, lsr #20
  10aeec:	f04f 38ff 	mov.w	r8, #4294967295
  10aef0:	ea6f 5909 	mvn.w	r9, r9, lsl #20
  10aef4:	e142      	b.n	10b17c <_strtod_r+0xb44>
  10aef6:	b115      	cbz	r5, 10aefe <_strtod_r+0x8c6>
  10aef8:	ea15 0f09 	tst.w	r5, r9
  10aefc:	e002      	b.n	10af04 <_strtod_r+0x8cc>
  10aefe:	9b07      	ldr	r3, [sp, #28]
  10af00:	ea13 0f08 	tst.w	r3, r8
  10af04:	f000 813a 	beq.w	10b17c <_strtod_r+0xb44>
  10af08:	9b06      	ldr	r3, [sp, #24]
  10af0a:	9a03      	ldr	r2, [sp, #12]
  10af0c:	4640      	mov	r0, r8
  10af0e:	4649      	mov	r1, r9
  10af10:	b153      	cbz	r3, 10af28 <_strtod_r+0x8f0>
  10af12:	f7ff fb6d 	bl	10a5f0 <sulp>
  10af16:	4602      	mov	r2, r0
  10af18:	460b      	mov	r3, r1
  10af1a:	e9dd 0108 	ldrd	r0, r1, [sp, #32]
  10af1e:	f7fd f889 	bl	108034 <__adddf3>
  10af22:	4680      	mov	r8, r0
  10af24:	4689      	mov	r9, r1
  10af26:	e129      	b.n	10b17c <_strtod_r+0xb44>
  10af28:	f7ff fb62 	bl	10a5f0 <sulp>
  10af2c:	4602      	mov	r2, r0
  10af2e:	460b      	mov	r3, r1
  10af30:	e9dd 0108 	ldrd	r0, r1, [sp, #32]
  10af34:	f7fd f87c 	bl	108030 <__aeabi_dsub>
  10af38:	2200      	movs	r2, #0
  10af3a:	2300      	movs	r3, #0
  10af3c:	4680      	mov	r8, r0
  10af3e:	4689      	mov	r9, r1
  10af40:	f7fd fa80 	bl	108444 <__aeabi_dcmpeq>
  10af44:	2800      	cmp	r0, #0
  10af46:	f47f af48 	bne.w	10adda <_strtod_r+0x7a2>
  10af4a:	e117      	b.n	10b17c <_strtod_r+0xb44>
  10af4c:	9902      	ldr	r1, [sp, #8]
  10af4e:	4658      	mov	r0, r11
  10af50:	f002 f98d 	bl	10d26e <__ratio>
  10af54:	2200      	movs	r2, #0
  10af56:	f04f 4380 	mov.w	r3, #1073741824	; 0x40000000
  10af5a:	4606      	mov	r6, r0
  10af5c:	460f      	mov	r7, r1
  10af5e:	f7fd fa85 	bl	10846c <__aeabi_dcmple>
  10af62:	2800      	cmp	r0, #0
  10af64:	d03f      	beq.n	10afe6 <_strtod_r+0x9ae>
  10af66:	9b06      	ldr	r3, [sp, #24]
  10af68:	b113      	cbz	r3, 10af70 <_strtod_r+0x938>
  10af6a:	2600      	movs	r6, #0
  10af6c:	4f0f      	ldr	r7, [pc, #60]	; (10afac <_strtod_r+0x974>)
  10af6e:	e010      	b.n	10af92 <_strtod_r+0x95a>
  10af70:	f1b8 0f00 	cmp.w	r8, #0
  10af74:	d103      	bne.n	10af7e <_strtod_r+0x946>
  10af76:	f3c9 0313 	ubfx	r3, r9, #0, #20
  10af7a:	b93b      	cbnz	r3, 10af8c <_strtod_r+0x954>
  10af7c:	e01a      	b.n	10afb4 <_strtod_r+0x97c>
  10af7e:	f1b8 0f01 	cmp.w	r8, #1
  10af82:	d103      	bne.n	10af8c <_strtod_r+0x954>
  10af84:	f1b9 0f00 	cmp.w	r9, #0
  10af88:	f43f af27 	beq.w	10adda <_strtod_r+0x7a2>
  10af8c:	4f08      	ldr	r7, [pc, #32]	; (10afb0 <_strtod_r+0x978>)
  10af8e:	2600      	movs	r6, #0
  10af90:	2400      	movs	r4, #0
  10af92:	4d06      	ldr	r5, [pc, #24]	; (10afac <_strtod_r+0x974>)
  10af94:	e03c      	b.n	10b010 <_strtod_r+0x9d8>
  10af96:	bf00      	nop
  10af98:	fffffc02 	.word	0xfffffc02
  10af9c:	fffffbe2 	.word	0xfffffbe2
  10afa0:	000fffff 	.word	0x000fffff
  10afa4:	7ff00000 	.word	0x7ff00000
  10afa8:	7fefffff 	.word	0x7fefffff
  10afac:	3ff00000 	.word	0x3ff00000
  10afb0:	bff00000 	.word	0xbff00000
  10afb4:	2200      	movs	r2, #0
  10afb6:	4b9a      	ldr	r3, [pc, #616]	; (10b220 <_strtod_r+0xbe8>)
  10afb8:	4630      	mov	r0, r6
  10afba:	4639      	mov	r1, r7
  10afbc:	f7fd fa4c 	bl	108458 <__aeabi_dcmplt>
  10afc0:	b940      	cbnz	r0, 10afd4 <_strtod_r+0x99c>
  10afc2:	2200      	movs	r2, #0
  10afc4:	4b97      	ldr	r3, [pc, #604]	; (10b224 <_strtod_r+0xbec>)
  10afc6:	4630      	mov	r0, r6
  10afc8:	4639      	mov	r1, r7
  10afca:	f002 fcfb 	bl	10d9c4 <__aeabi_dmul>
  10afce:	4604      	mov	r4, r0
  10afd0:	460d      	mov	r5, r1
  10afd2:	e001      	b.n	10afd8 <_strtod_r+0x9a0>
  10afd4:	9c06      	ldr	r4, [sp, #24]
  10afd6:	4d93      	ldr	r5, [pc, #588]	; (10b224 <_strtod_r+0xbec>)
  10afd8:	f105 4300 	add.w	r3, r5, #2147483648	; 0x80000000
  10afdc:	9414      	str	r4, [sp, #80]	; 0x50
  10afde:	9315      	str	r3, [sp, #84]	; 0x54
  10afe0:	e9dd 6714 	ldrd	r6, r7, [sp, #80]	; 0x50
  10afe4:	e014      	b.n	10b010 <_strtod_r+0x9d8>
  10afe6:	4b8f      	ldr	r3, [pc, #572]	; (10b224 <_strtod_r+0xbec>)
  10afe8:	2200      	movs	r2, #0
  10afea:	4630      	mov	r0, r6
  10afec:	4639      	mov	r1, r7
  10afee:	f002 fce9 	bl	10d9c4 <__aeabi_dmul>
  10aff2:	9b06      	ldr	r3, [sp, #24]
  10aff4:	4604      	mov	r4, r0
  10aff6:	460d      	mov	r5, r1
  10aff8:	b923      	cbnz	r3, 10b004 <_strtod_r+0x9cc>
  10affa:	f101 4300 	add.w	r3, r1, #2147483648	; 0x80000000
  10affe:	900e      	str	r0, [sp, #56]	; 0x38
  10b000:	930f      	str	r3, [sp, #60]	; 0x3c
  10b002:	e003      	b.n	10b00c <_strtod_r+0x9d4>
  10b004:	4602      	mov	r2, r0
  10b006:	460b      	mov	r3, r1
  10b008:	e9cd 230e 	strd	r2, r3, [sp, #56]	; 0x38
  10b00c:	e9dd 670e 	ldrd	r6, r7, [sp, #56]	; 0x38
  10b010:	f029 4300 	bic.w	r3, r9, #2147483648	; 0x80000000
  10b014:	0d1b      	lsrs	r3, r3, #20
  10b016:	051b      	lsls	r3, r3, #20
  10b018:	9307      	str	r3, [sp, #28]
  10b01a:	9a07      	ldr	r2, [sp, #28]
  10b01c:	4b82      	ldr	r3, [pc, #520]	; (10b228 <_strtod_r+0xbf0>)
  10b01e:	429a      	cmp	r2, r3
  10b020:	d12b      	bne.n	10b07a <_strtod_r+0xa42>
  10b022:	e9dd 2308 	ldrd	r2, r3, [sp, #32]
  10b026:	f1a9 7954 	sub.w	r9, r9, #55574528	; 0x3500000
  10b02a:	4640      	mov	r0, r8
  10b02c:	4649      	mov	r1, r9
  10b02e:	e9cd 230a 	strd	r2, r3, [sp, #40]	; 0x28
  10b032:	f002 f85d 	bl	10d0f0 <__ulp>
  10b036:	4602      	mov	r2, r0
  10b038:	460b      	mov	r3, r1
  10b03a:	4630      	mov	r0, r6
  10b03c:	4639      	mov	r1, r7
  10b03e:	f002 fcc1 	bl	10d9c4 <__aeabi_dmul>
  10b042:	4642      	mov	r2, r8
  10b044:	464b      	mov	r3, r9
  10b046:	f7fc fff5 	bl	108034 <__adddf3>
  10b04a:	f021 4300 	bic.w	r3, r1, #2147483648	; 0x80000000
  10b04e:	0d1b      	lsrs	r3, r3, #20
  10b050:	4a76      	ldr	r2, [pc, #472]	; (10b22c <_strtod_r+0xbf4>)
  10b052:	051b      	lsls	r3, r3, #20
  10b054:	4293      	cmp	r3, r2
  10b056:	4680      	mov	r8, r0
  10b058:	d90c      	bls.n	10b074 <_strtod_r+0xa3c>
  10b05a:	4b75      	ldr	r3, [pc, #468]	; (10b230 <_strtod_r+0xbf8>)
  10b05c:	9a0b      	ldr	r2, [sp, #44]	; 0x2c
  10b05e:	429a      	cmp	r2, r3
  10b060:	d103      	bne.n	10b06a <_strtod_r+0xa32>
  10b062:	9b0a      	ldr	r3, [sp, #40]	; 0x28
  10b064:	3301      	adds	r3, #1
  10b066:	f43f ad2d 	beq.w	10aac4 <_strtod_r+0x48c>
  10b06a:	f8df 91c4 	ldr.w	r9, [pc, #452]	; 10b230 <_strtod_r+0xbf8>
  10b06e:	f04f 38ff 	mov.w	r8, #4294967295
  10b072:	e072      	b.n	10b15a <_strtod_r+0xb22>
  10b074:	f101 7954 	add.w	r9, r1, #55574528	; 0x3500000
  10b078:	e039      	b.n	10b0ee <_strtod_r+0xab6>
  10b07a:	9b03      	ldr	r3, [sp, #12]
  10b07c:	b33b      	cbz	r3, 10b0ce <_strtod_r+0xa96>
  10b07e:	9b07      	ldr	r3, [sp, #28]
  10b080:	f1b3 6fd4 	cmp.w	r3, #111149056	; 0x6a00000
  10b084:	d823      	bhi.n	10b0ce <_strtod_r+0xa96>
  10b086:	a35e      	add	r3, pc, #376	; (adr r3, 10b200 <_strtod_r+0xbc8>)
  10b088:	e9d3 2300 	ldrd	r2, r3, [r3]
  10b08c:	4620      	mov	r0, r4
  10b08e:	4629      	mov	r1, r5
  10b090:	f7fd f9ec 	bl	10846c <__aeabi_dcmple>
  10b094:	b1b8      	cbz	r0, 10b0c6 <_strtod_r+0xa8e>
  10b096:	4629      	mov	r1, r5
  10b098:	4620      	mov	r0, r4
  10b09a:	f002 fecd 	bl	10de38 <__aeabi_d2uiz>
  10b09e:	2800      	cmp	r0, #0
  10b0a0:	bf08      	it	eq
  10b0a2:	2001      	moveq	r0, #1
  10b0a4:	f7fd f902 	bl	1082ac <__aeabi_ui2d>
  10b0a8:	9b06      	ldr	r3, [sp, #24]
  10b0aa:	4604      	mov	r4, r0
  10b0ac:	460d      	mov	r5, r1
  10b0ae:	b923      	cbnz	r3, 10b0ba <_strtod_r+0xa82>
  10b0b0:	f101 4300 	add.w	r3, r1, #2147483648	; 0x80000000
  10b0b4:	9010      	str	r0, [sp, #64]	; 0x40
  10b0b6:	9311      	str	r3, [sp, #68]	; 0x44
  10b0b8:	e003      	b.n	10b0c2 <_strtod_r+0xa8a>
  10b0ba:	4602      	mov	r2, r0
  10b0bc:	460b      	mov	r3, r1
  10b0be:	e9cd 2310 	strd	r2, r3, [sp, #64]	; 0x40
  10b0c2:	e9dd 6710 	ldrd	r6, r7, [sp, #64]	; 0x40
  10b0c6:	9a07      	ldr	r2, [sp, #28]
  10b0c8:	f107 63d6 	add.w	r3, r7, #112197632	; 0x6b00000
  10b0cc:	1a9f      	subs	r7, r3, r2
  10b0ce:	e9dd 0108 	ldrd	r0, r1, [sp, #32]
  10b0d2:	f002 f80d 	bl	10d0f0 <__ulp>
  10b0d6:	4602      	mov	r2, r0
  10b0d8:	460b      	mov	r3, r1
  10b0da:	4630      	mov	r0, r6
  10b0dc:	4639      	mov	r1, r7
  10b0de:	f002 fc71 	bl	10d9c4 <__aeabi_dmul>
  10b0e2:	e9dd 2308 	ldrd	r2, r3, [sp, #32]
  10b0e6:	f7fc ffa5 	bl	108034 <__adddf3>
  10b0ea:	4680      	mov	r8, r0
  10b0ec:	4689      	mov	r9, r1
  10b0ee:	9b03      	ldr	r3, [sp, #12]
  10b0f0:	bb9b      	cbnz	r3, 10b15a <_strtod_r+0xb22>
  10b0f2:	f029 4300 	bic.w	r3, r9, #2147483648	; 0x80000000
  10b0f6:	0d1b      	lsrs	r3, r3, #20
  10b0f8:	9a07      	ldr	r2, [sp, #28]
  10b0fa:	051b      	lsls	r3, r3, #20
  10b0fc:	429a      	cmp	r2, r3
  10b0fe:	464e      	mov	r6, r9
  10b100:	d12b      	bne.n	10b15a <_strtod_r+0xb22>
  10b102:	4629      	mov	r1, r5
  10b104:	4620      	mov	r0, r4
  10b106:	f002 fe6f 	bl	10dde8 <__aeabi_d2iz>
  10b10a:	f7fd f8df 	bl	1082cc <__aeabi_i2d>
  10b10e:	460b      	mov	r3, r1
  10b110:	4602      	mov	r2, r0
  10b112:	4629      	mov	r1, r5
  10b114:	4620      	mov	r0, r4
  10b116:	f7fc ff8b 	bl	108030 <__aeabi_dsub>
  10b11a:	9b06      	ldr	r3, [sp, #24]
  10b11c:	4604      	mov	r4, r0
  10b11e:	460d      	mov	r5, r1
  10b120:	b92b      	cbnz	r3, 10b12e <_strtod_r+0xaf6>
  10b122:	f1b8 0f00 	cmp.w	r8, #0
  10b126:	d102      	bne.n	10b12e <_strtod_r+0xaf6>
  10b128:	f3c9 0613 	ubfx	r6, r9, #0, #20
  10b12c:	b17e      	cbz	r6, 10b14e <_strtod_r+0xb16>
  10b12e:	a336      	add	r3, pc, #216	; (adr r3, 10b208 <_strtod_r+0xbd0>)
  10b130:	e9d3 2300 	ldrd	r2, r3, [r3]
  10b134:	4620      	mov	r0, r4
  10b136:	4629      	mov	r1, r5
  10b138:	f7fd f98e 	bl	108458 <__aeabi_dcmplt>
  10b13c:	bb88      	cbnz	r0, 10b1a2 <_strtod_r+0xb6a>
  10b13e:	a334      	add	r3, pc, #208	; (adr r3, 10b210 <_strtod_r+0xbd8>)
  10b140:	e9d3 2300 	ldrd	r2, r3, [r3]
  10b144:	4620      	mov	r0, r4
  10b146:	4629      	mov	r1, r5
  10b148:	f7fd f9a4 	bl	108494 <__aeabi_dcmpgt>
  10b14c:	e004      	b.n	10b158 <_strtod_r+0xb20>
  10b14e:	a332      	add	r3, pc, #200	; (adr r3, 10b218 <_strtod_r+0xbe0>)
  10b150:	e9d3 2300 	ldrd	r2, r3, [r3]
  10b154:	f7fd f980 	bl	108458 <__aeabi_dcmplt>
  10b158:	bb18      	cbnz	r0, 10b1a2 <_strtod_r+0xb6a>
  10b15a:	9918      	ldr	r1, [sp, #96]	; 0x60
  10b15c:	4650      	mov	r0, r10
  10b15e:	f001 fd36 	bl	10cbce <_Bfree>
  10b162:	9904      	ldr	r1, [sp, #16]
  10b164:	4650      	mov	r0, r10
  10b166:	f001 fd32 	bl	10cbce <_Bfree>
  10b16a:	9902      	ldr	r1, [sp, #8]
  10b16c:	4650      	mov	r0, r10
  10b16e:	f001 fd2e 	bl	10cbce <_Bfree>
  10b172:	4659      	mov	r1, r11
  10b174:	4650      	mov	r0, r10
  10b176:	f001 fd2a 	bl	10cbce <_Bfree>
  10b17a:	e574      	b.n	10ac66 <_strtod_r+0x62e>
  10b17c:	9b03      	ldr	r3, [sp, #12]
  10b17e:	b183      	cbz	r3, 10b1a2 <_strtod_r+0xb6a>
  10b180:	4b2c      	ldr	r3, [pc, #176]	; (10b234 <_strtod_r+0xbfc>)
  10b182:	4640      	mov	r0, r8
  10b184:	930b      	str	r3, [sp, #44]	; 0x2c
  10b186:	2300      	movs	r3, #0
  10b188:	930a      	str	r3, [sp, #40]	; 0x28
  10b18a:	4649      	mov	r1, r9
  10b18c:	e9dd 230a 	ldrd	r2, r3, [sp, #40]	; 0x28
  10b190:	f002 fc18 	bl	10d9c4 <__aeabi_dmul>
  10b194:	4680      	mov	r8, r0
  10b196:	4689      	mov	r9, r1
  10b198:	b919      	cbnz	r1, 10b1a2 <_strtod_r+0xb6a>
  10b19a:	b910      	cbnz	r0, 10b1a2 <_strtod_r+0xb6a>
  10b19c:	2322      	movs	r3, #34	; 0x22
  10b19e:	f8ca 3000 	str.w	r3, [r10]
  10b1a2:	9918      	ldr	r1, [sp, #96]	; 0x60
  10b1a4:	4650      	mov	r0, r10
  10b1a6:	f001 fd12 	bl	10cbce <_Bfree>
  10b1aa:	9904      	ldr	r1, [sp, #16]
  10b1ac:	4650      	mov	r0, r10
  10b1ae:	f001 fd0e 	bl	10cbce <_Bfree>
  10b1b2:	9902      	ldr	r1, [sp, #8]
  10b1b4:	4650      	mov	r0, r10
  10b1b6:	f001 fd0a 	bl	10cbce <_Bfree>
  10b1ba:	9905      	ldr	r1, [sp, #20]
  10b1bc:	4650      	mov	r0, r10
  10b1be:	f001 fd06 	bl	10cbce <_Bfree>
  10b1c2:	4659      	mov	r1, r11
  10b1c4:	4650      	mov	r0, r10
  10b1c6:	f001 fd02 	bl	10cbce <_Bfree>
  10b1ca:	9b13      	ldr	r3, [sp, #76]	; 0x4c
  10b1cc:	b113      	cbz	r3, 10b1d4 <_strtod_r+0xb9c>
  10b1ce:	9b17      	ldr	r3, [sp, #92]	; 0x5c
  10b1d0:	9a13      	ldr	r2, [sp, #76]	; 0x4c
  10b1d2:	6013      	str	r3, [r2, #0]
  10b1d4:	9b0c      	ldr	r3, [sp, #48]	; 0x30
  10b1d6:	b11b      	cbz	r3, 10b1e0 <_strtod_r+0xba8>
  10b1d8:	4642      	mov	r2, r8
  10b1da:	f109 4300 	add.w	r3, r9, #2147483648	; 0x80000000
  10b1de:	e007      	b.n	10b1f0 <_strtod_r+0xbb8>
  10b1e0:	4642      	mov	r2, r8
  10b1e2:	464b      	mov	r3, r9
  10b1e4:	e004      	b.n	10b1f0 <_strtod_r+0xbb8>
  10b1e6:	2500      	movs	r5, #0
  10b1e8:	462a      	mov	r2, r5
  10b1ea:	2101      	movs	r1, #1
  10b1ec:	f7ff bb47 	b.w	10a87e <_strtod_r+0x246>
  10b1f0:	4610      	mov	r0, r2
  10b1f2:	4619      	mov	r1, r3
  10b1f4:	b01d      	add	sp, #116	; 0x74
  10b1f6:	e8bd 8ff0 	ldmia.w	sp!, {r4, r5, r6, r7, r8, r9, r10, r11, pc}
  10b1fa:	bf00      	nop
  10b1fc:	f3af 8000 	nop.w
  10b200:	ffc00000 	.word	0xffc00000
  10b204:	41dfffff 	.word	0x41dfffff
  10b208:	94a03595 	.word	0x94a03595
  10b20c:	3fdfffff 	.word	0x3fdfffff
  10b210:	35afe535 	.word	0x35afe535
  10b214:	3fe00000 	.word	0x3fe00000
  10b218:	94a03595 	.word	0x94a03595
  10b21c:	3fcfffff 	.word	0x3fcfffff
  10b220:	3ff00000 	.word	0x3ff00000
  10b224:	3fe00000 	.word	0x3fe00000
  10b228:	7fe00000 	.word	0x7fe00000
  10b22c:	7c9fffff 	.word	0x7c9fffff
  10b230:	7fefffff 	.word	0x7fefffff
  10b234:	39500000 	.word	0x39500000

0010b238 <_strtol_r>:
  10b238:	e92d 47f0 	stmdb	sp!, {r4, r5, r6, r7, r8, r9, r10, lr}
  10b23c:	460f      	mov	r7, r1
  10b23e:	4680      	mov	r8, r0
  10b240:	483f      	ldr	r0, [pc, #252]	; (10b340 <_strtol_r+0x108>)
  10b242:	f8d0 9000 	ldr.w	r9, [r0]
  10b246:	463d      	mov	r5, r7
  10b248:	f815 4b01 	ldrb.w	r4, [r5], #1
  10b24c:	eb09 0004 	add.w	r0, r9, r4
  10b250:	7840      	ldrb	r0, [r0, #1]
  10b252:	f000 0008 	and.w	r0, r0, #8
  10b256:	f000 06ff 	and.w	r6, r0, #255	; 0xff
  10b25a:	b108      	cbz	r0, 10b260 <_strtol_r+0x28>
  10b25c:	462f      	mov	r7, r5
  10b25e:	e7f2      	b.n	10b246 <_strtol_r+0xe>
  10b260:	2c2d      	cmp	r4, #45	; 0x2d
  10b262:	d103      	bne.n	10b26c <_strtol_r+0x34>
  10b264:	1cbd      	adds	r5, r7, #2
  10b266:	787c      	ldrb	r4, [r7, #1]
  10b268:	2601      	movs	r6, #1
  10b26a:	e003      	b.n	10b274 <_strtol_r+0x3c>
  10b26c:	2c2b      	cmp	r4, #43	; 0x2b
  10b26e:	bf04      	itt	eq
  10b270:	787c      	ldrbeq	r4, [r7, #1]
  10b272:	1cbd      	addeq	r5, r7, #2
  10b274:	b113      	cbz	r3, 10b27c <_strtol_r+0x44>
  10b276:	2b10      	cmp	r3, #16
  10b278:	d10a      	bne.n	10b290 <_strtol_r+0x58>
  10b27a:	e05b      	b.n	10b334 <_strtol_r+0xfc>
  10b27c:	2c30      	cmp	r4, #48	; 0x30
  10b27e:	d157      	bne.n	10b330 <_strtol_r+0xf8>
  10b280:	7828      	ldrb	r0, [r5, #0]
  10b282:	f000 00df 	and.w	r0, r0, #223	; 0xdf
  10b286:	2858      	cmp	r0, #88	; 0x58
  10b288:	d14d      	bne.n	10b326 <_strtol_r+0xee>
  10b28a:	786c      	ldrb	r4, [r5, #1]
  10b28c:	2310      	movs	r3, #16
  10b28e:	3502      	adds	r5, #2
  10b290:	2e00      	cmp	r6, #0
  10b292:	bf14      	ite	ne
  10b294:	f04f 4c00 	movne.w	r12, #2147483648	; 0x80000000
  10b298:	f06f 4c00 	mvneq.w	r12, #2147483648	; 0x80000000
  10b29c:	fbbc faf3 	udiv	r10, r12, r3
  10b2a0:	2700      	movs	r7, #0
  10b2a2:	4638      	mov	r0, r7
  10b2a4:	fb03 cc1a 	mls	r12, r3, r10, r12
  10b2a8:	eb09 0e04 	add.w	lr, r9, r4
  10b2ac:	f89e e001 	ldrb.w	lr, [lr, #1]
  10b2b0:	f01e 0f04 	tst.w	lr, #4
  10b2b4:	d001      	beq.n	10b2ba <_strtol_r+0x82>
  10b2b6:	3c30      	subs	r4, #48	; 0x30
  10b2b8:	e00b      	b.n	10b2d2 <_strtol_r+0x9a>
  10b2ba:	f01e 0e03 	ands.w	lr, lr, #3
  10b2be:	d01b      	beq.n	10b2f8 <_strtol_r+0xc0>
  10b2c0:	f1be 0f01 	cmp.w	lr, #1
  10b2c4:	bf0c      	ite	eq
  10b2c6:	f04f 0e37 	moveq.w	lr, #55	; 0x37
  10b2ca:	f04f 0e57 	movne.w	lr, #87	; 0x57
  10b2ce:	ebce 0404 	rsb	r4, lr, r4
  10b2d2:	42a3      	cmp	r3, r4
  10b2d4:	dd10      	ble.n	10b2f8 <_strtol_r+0xc0>
  10b2d6:	f1b7 3fff 	cmp.w	r7, #4294967295
  10b2da:	d00a      	beq.n	10b2f2 <_strtol_r+0xba>
  10b2dc:	4550      	cmp	r0, r10
  10b2de:	d806      	bhi.n	10b2ee <_strtol_r+0xb6>
  10b2e0:	d101      	bne.n	10b2e6 <_strtol_r+0xae>
  10b2e2:	4564      	cmp	r4, r12
  10b2e4:	dc03      	bgt.n	10b2ee <_strtol_r+0xb6>
  10b2e6:	fb03 4000 	mla	r0, r3, r0, r4
  10b2ea:	2701      	movs	r7, #1
  10b2ec:	e001      	b.n	10b2f2 <_strtol_r+0xba>
  10b2ee:	f04f 37ff 	mov.w	r7, #4294967295
  10b2f2:	f815 4b01 	ldrb.w	r4, [r5], #1
  10b2f6:	e7d7      	b.n	10b2a8 <_strtol_r+0x70>
  10b2f8:	1c7b      	adds	r3, r7, #1
  10b2fa:	d10c      	bne.n	10b316 <_strtol_r+0xde>
  10b2fc:	2e00      	cmp	r6, #0
  10b2fe:	f04f 0322 	mov.w	r3, #34	; 0x22
  10b302:	bf14      	ite	ne
  10b304:	f04f 4000 	movne.w	r0, #2147483648	; 0x80000000
  10b308:	f06f 4000 	mvneq.w	r0, #2147483648	; 0x80000000
  10b30c:	f8c8 3000 	str.w	r3, [r8]
  10b310:	b92a      	cbnz	r2, 10b31e <_strtol_r+0xe6>
  10b312:	e8bd 87f0 	ldmia.w	sp!, {r4, r5, r6, r7, r8, r9, r10, pc}
  10b316:	b106      	cbz	r6, 10b31a <_strtol_r+0xe2>
  10b318:	4240      	negs	r0, r0
  10b31a:	b172      	cbz	r2, 10b33a <_strtol_r+0x102>
  10b31c:	b107      	cbz	r7, 10b320 <_strtol_r+0xe8>
  10b31e:	1e69      	subs	r1, r5, #1
  10b320:	6011      	str	r1, [r2, #0]
  10b322:	e8bd 87f0 	ldmia.w	sp!, {r4, r5, r6, r7, r8, r9, r10, pc}
  10b326:	2430      	movs	r4, #48	; 0x30
  10b328:	2b00      	cmp	r3, #0
  10b32a:	d1b1      	bne.n	10b290 <_strtol_r+0x58>
  10b32c:	2308      	movs	r3, #8
  10b32e:	e7af      	b.n	10b290 <_strtol_r+0x58>
  10b330:	230a      	movs	r3, #10
  10b332:	e7ad      	b.n	10b290 <_strtol_r+0x58>
  10b334:	2c30      	cmp	r4, #48	; 0x30
  10b336:	d0a3      	beq.n	10b280 <_strtol_r+0x48>
  10b338:	e7aa      	b.n	10b290 <_strtol_r+0x58>
  10b33a:	e8bd 87f0 	ldmia.w	sp!, {r4, r5, r6, r7, r8, r9, r10, pc}
  10b33e:	bf00      	nop
  10b340:	3fff40a0 	.word	0x3fff40a0

0010b344 <_strtoul_r>:
  10b344:	e92d 47f0 	stmdb	sp!, {r4, r5, r6, r7, r8, r9, r10, lr}
  10b348:	460e      	mov	r6, r1
  10b34a:	4680      	mov	r8, r0
  10b34c:	483b      	ldr	r0, [pc, #236]	; (10b43c <_strtoul_r+0xf8>)
  10b34e:	f8d0 9000 	ldr.w	r9, [r0]
  10b352:	4635      	mov	r5, r6
  10b354:	f815 4b01 	ldrb.w	r4, [r5], #1
  10b358:	eb09 0004 	add.w	r0, r9, r4
  10b35c:	7840      	ldrb	r0, [r0, #1]
  10b35e:	f000 0008 	and.w	r0, r0, #8
  10b362:	f000 07ff 	and.w	r7, r0, #255	; 0xff
  10b366:	b108      	cbz	r0, 10b36c <_strtoul_r+0x28>
  10b368:	462e      	mov	r6, r5
  10b36a:	e7f2      	b.n	10b352 <_strtoul_r+0xe>
  10b36c:	2c2d      	cmp	r4, #45	; 0x2d
  10b36e:	d103      	bne.n	10b378 <_strtoul_r+0x34>
  10b370:	1cb5      	adds	r5, r6, #2
  10b372:	7874      	ldrb	r4, [r6, #1]
  10b374:	2701      	movs	r7, #1
  10b376:	e003      	b.n	10b380 <_strtoul_r+0x3c>
  10b378:	2c2b      	cmp	r4, #43	; 0x2b
  10b37a:	bf04      	itt	eq
  10b37c:	7874      	ldrbeq	r4, [r6, #1]
  10b37e:	1cb5      	addeq	r5, r6, #2
  10b380:	b113      	cbz	r3, 10b388 <_strtoul_r+0x44>
  10b382:	2b10      	cmp	r3, #16
  10b384:	d10a      	bne.n	10b39c <_strtoul_r+0x58>
  10b386:	e053      	b.n	10b430 <_strtoul_r+0xec>
  10b388:	2c30      	cmp	r4, #48	; 0x30
  10b38a:	d14f      	bne.n	10b42c <_strtoul_r+0xe8>
  10b38c:	7828      	ldrb	r0, [r5, #0]
  10b38e:	f000 00df 	and.w	r0, r0, #223	; 0xdf
  10b392:	2858      	cmp	r0, #88	; 0x58
  10b394:	d145      	bne.n	10b422 <_strtoul_r+0xde>
  10b396:	786c      	ldrb	r4, [r5, #1]
  10b398:	2310      	movs	r3, #16
  10b39a:	3502      	adds	r5, #2
  10b39c:	f04f 3cff 	mov.w	r12, #4294967295
  10b3a0:	fbbc fcf3 	udiv	r12, r12, r3
  10b3a4:	fb03 fa0c 	mul.w	r10, r3, r12
  10b3a8:	2600      	movs	r6, #0
  10b3aa:	ea6f 0a0a 	mvn.w	r10, r10
  10b3ae:	4630      	mov	r0, r6
  10b3b0:	eb09 0e04 	add.w	lr, r9, r4
  10b3b4:	f89e e001 	ldrb.w	lr, [lr, #1]
  10b3b8:	f01e 0f04 	tst.w	lr, #4
  10b3bc:	d001      	beq.n	10b3c2 <_strtoul_r+0x7e>
  10b3be:	3c30      	subs	r4, #48	; 0x30
  10b3c0:	e00b      	b.n	10b3da <_strtoul_r+0x96>
  10b3c2:	f01e 0e03 	ands.w	lr, lr, #3
  10b3c6:	d01a      	beq.n	10b3fe <_strtoul_r+0xba>
  10b3c8:	f1be 0f01 	cmp.w	lr, #1
  10b3cc:	bf0c      	ite	eq
  10b3ce:	f04f 0e37 	moveq.w	lr, #55	; 0x37
  10b3d2:	f04f 0e57 	movne.w	lr, #87	; 0x57
  10b3d6:	ebce 0404 	rsb	r4, lr, r4
  10b3da:	42a3      	cmp	r3, r4
  10b3dc:	dd0f      	ble.n	10b3fe <_strtoul_r+0xba>
  10b3de:	2e00      	cmp	r6, #0
  10b3e0:	db08      	blt.n	10b3f4 <_strtoul_r+0xb0>
  10b3e2:	4560      	cmp	r0, r12
  10b3e4:	d806      	bhi.n	10b3f4 <_strtoul_r+0xb0>
  10b3e6:	d101      	bne.n	10b3ec <_strtoul_r+0xa8>
  10b3e8:	4554      	cmp	r4, r10
  10b3ea:	dc03      	bgt.n	10b3f4 <_strtoul_r+0xb0>
  10b3ec:	fb03 4000 	mla	r0, r3, r0, r4
  10b3f0:	2601      	movs	r6, #1
  10b3f2:	e001      	b.n	10b3f8 <_strtoul_r+0xb4>
  10b3f4:	f04f 36ff 	mov.w	r6, #4294967295
  10b3f8:	f815 4b01 	ldrb.w	r4, [r5], #1
  10b3fc:	e7d8      	b.n	10b3b0 <_strtoul_r+0x6c>
  10b3fe:	2e00      	cmp	r6, #0
  10b400:	da07      	bge.n	10b412 <_strtoul_r+0xce>
  10b402:	2322      	movs	r3, #34	; 0x22
  10b404:	f8c8 3000 	str.w	r3, [r8]
  10b408:	f04f 30ff 	mov.w	r0, #4294967295
  10b40c:	b92a      	cbnz	r2, 10b41a <_strtoul_r+0xd6>
  10b40e:	e8bd 87f0 	ldmia.w	sp!, {r4, r5, r6, r7, r8, r9, r10, pc}
  10b412:	b107      	cbz	r7, 10b416 <_strtoul_r+0xd2>
  10b414:	4240      	negs	r0, r0
  10b416:	b172      	cbz	r2, 10b436 <_strtoul_r+0xf2>
  10b418:	b106      	cbz	r6, 10b41c <_strtoul_r+0xd8>
  10b41a:	1e69      	subs	r1, r5, #1
  10b41c:	6011      	str	r1, [r2, #0]
  10b41e:	e8bd 87f0 	ldmia.w	sp!, {r4, r5, r6, r7, r8, r9, r10, pc}
  10b422:	2430      	movs	r4, #48	; 0x30
  10b424:	2b00      	cmp	r3, #0
  10b426:	d1b9      	bne.n	10b39c <_strtoul_r+0x58>
  10b428:	2308      	movs	r3, #8
  10b42a:	e7b7      	b.n	10b39c <_strtoul_r+0x58>
  10b42c:	230a      	movs	r3, #10
  10b42e:	e7b5      	b.n	10b39c <_strtoul_r+0x58>
  10b430:	2c30      	cmp	r4, #48	; 0x30
  10b432:	d0ab      	beq.n	10b38c <_strtoul_r+0x48>
  10b434:	e7b2      	b.n	10b39c <_strtoul_r+0x58>
  10b436:	e8bd 87f0 	ldmia.w	sp!, {r4, r5, r6, r7, r8, r9, r10, pc}
  10b43a:	bf00      	nop
  10b43c:	3fff40a0 	.word	0x3fff40a0

0010b440 <__submore>:
  10b440:	e92d 41f0 	stmdb	sp!, {r4, r5, r6, r7, r8, lr}
  10b444:	460c      	mov	r4, r1
  10b446:	6b49      	ldr	r1, [r1, #52]	; 0x34
  10b448:	f104 0344 	add.w	r3, r4, #68	; 0x44
  10b44c:	4299      	cmp	r1, r3
  10b44e:	d11a      	bne.n	10b486 <__submore+0x46>
  10b450:	f44f 6180 	mov.w	r1, #1024	; 0x400
  10b454:	f7fd fe20 	bl	109098 <_malloc_r>
  10b458:	b918      	cbnz	r0, 10b462 <__submore+0x22>
  10b45a:	f04f 30ff 	mov.w	r0, #4294967295
  10b45e:	e8bd 81f0 	ldmia.w	sp!, {r4, r5, r6, r7, r8, pc}
  10b462:	f44f 6380 	mov.w	r3, #1024	; 0x400
  10b466:	63a3      	str	r3, [r4, #56]	; 0x38
  10b468:	f894 3046 	ldrb.w	r3, [r4, #70]	; 0x46
  10b46c:	6360      	str	r0, [r4, #52]	; 0x34
  10b46e:	f880 33ff 	strb.w	r3, [r0, #1023]	; 0x3ff
  10b472:	f894 3045 	ldrb.w	r3, [r4, #69]	; 0x45
  10b476:	f200 30fd 	addw	r0, r0, #1021	; 0x3fd
  10b47a:	7043      	strb	r3, [r0, #1]
  10b47c:	f894 3044 	ldrb.w	r3, [r4, #68]	; 0x44
  10b480:	7003      	strb	r3, [r0, #0]
  10b482:	6020      	str	r0, [r4, #0]
  10b484:	e012      	b.n	10b4ac <__submore+0x6c>
  10b486:	6ba6      	ldr	r6, [r4, #56]	; 0x38
  10b488:	0077      	lsls	r7, r6, #1
  10b48a:	463a      	mov	r2, r7
  10b48c:	f001 ff61 	bl	10d352 <_realloc_r>
  10b490:	4605      	mov	r5, r0
  10b492:	2800      	cmp	r0, #0
  10b494:	d0e1      	beq.n	10b45a <__submore+0x1a>
  10b496:	eb00 0806 	add.w	r8, r0, r6
  10b49a:	4601      	mov	r1, r0
  10b49c:	4632      	mov	r2, r6
  10b49e:	4640      	mov	r0, r8
  10b4a0:	f7fd fd88 	bl	108fb4 <memcpy>
  10b4a4:	f8c4 8000 	str.w	r8, [r4]
  10b4a8:	6365      	str	r5, [r4, #52]	; 0x34
  10b4aa:	63a7      	str	r7, [r4, #56]	; 0x38
  10b4ac:	2000      	movs	r0, #0
  10b4ae:	e8bd 81f0 	ldmia.w	sp!, {r4, r5, r6, r7, r8, pc}
	...

0010b4b4 <__swbuf_r>:
  10b4b4:	b5f8      	push	{r3, r4, r5, r6, r7, lr}
  10b4b6:	460f      	mov	r7, r1
  10b4b8:	4614      	mov	r4, r2
  10b4ba:	4606      	mov	r6, r0
  10b4bc:	b118      	cbz	r0, 10b4c6 <__swbuf_r+0x12>
  10b4be:	6983      	ldr	r3, [r0, #24]
  10b4c0:	b90b      	cbnz	r3, 10b4c6 <__swbuf_r+0x12>
  10b4c2:	f7fd fb25 	bl	108b10 <__sinit>
  10b4c6:	4b22      	ldr	r3, [pc, #136]	; (10b550 <__swbuf_r+0x9c>)
  10b4c8:	429c      	cmp	r4, r3
  10b4ca:	d101      	bne.n	10b4d0 <__swbuf_r+0x1c>
  10b4cc:	6874      	ldr	r4, [r6, #4]
  10b4ce:	e008      	b.n	10b4e2 <__swbuf_r+0x2e>
  10b4d0:	4b20      	ldr	r3, [pc, #128]	; (10b554 <__swbuf_r+0xa0>)
  10b4d2:	429c      	cmp	r4, r3
  10b4d4:	d101      	bne.n	10b4da <__swbuf_r+0x26>
  10b4d6:	68b4      	ldr	r4, [r6, #8]
  10b4d8:	e003      	b.n	10b4e2 <__swbuf_r+0x2e>
  10b4da:	4b1f      	ldr	r3, [pc, #124]	; (10b558 <__swbuf_r+0xa4>)
  10b4dc:	429c      	cmp	r4, r3
  10b4de:	bf08      	it	eq
  10b4e0:	68f4      	ldreq	r4, [r6, #12]
  10b4e2:	69a3      	ldr	r3, [r4, #24]
  10b4e4:	60a3      	str	r3, [r4, #8]
  10b4e6:	89a3      	ldrh	r3, [r4, #12]
  10b4e8:	071a      	lsls	r2, r3, #28
  10b4ea:	d509      	bpl.n	10b500 <__swbuf_r+0x4c>
  10b4ec:	6923      	ldr	r3, [r4, #16]
  10b4ee:	b13b      	cbz	r3, 10b500 <__swbuf_r+0x4c>
  10b4f0:	6823      	ldr	r3, [r4, #0]
  10b4f2:	6920      	ldr	r0, [r4, #16]
  10b4f4:	b2fd      	uxtb	r5, r7
  10b4f6:	1a18      	subs	r0, r3, r0
  10b4f8:	6963      	ldr	r3, [r4, #20]
  10b4fa:	4298      	cmp	r0, r3
  10b4fc:	db0f      	blt.n	10b51e <__swbuf_r+0x6a>
  10b4fe:	e008      	b.n	10b512 <__swbuf_r+0x5e>
  10b500:	4621      	mov	r1, r4
  10b502:	4630      	mov	r0, r6
  10b504:	f000 f83c 	bl	10b580 <__swsetup_r>
  10b508:	2800      	cmp	r0, #0
  10b50a:	d0f1      	beq.n	10b4f0 <__swbuf_r+0x3c>
  10b50c:	f04f 30ff 	mov.w	r0, #4294967295
  10b510:	bdf8      	pop	{r3, r4, r5, r6, r7, pc}
  10b512:	4621      	mov	r1, r4
  10b514:	4630      	mov	r0, r6
  10b516:	f7fd fa4b 	bl	1089b0 <_fflush_r>
  10b51a:	2800      	cmp	r0, #0
  10b51c:	d1f6      	bne.n	10b50c <__swbuf_r+0x58>
  10b51e:	68a3      	ldr	r3, [r4, #8]
  10b520:	3b01      	subs	r3, #1
  10b522:	60a3      	str	r3, [r4, #8]
  10b524:	6823      	ldr	r3, [r4, #0]
  10b526:	1c5a      	adds	r2, r3, #1
  10b528:	6022      	str	r2, [r4, #0]
  10b52a:	701f      	strb	r7, [r3, #0]
  10b52c:	6962      	ldr	r2, [r4, #20]
  10b52e:	1c43      	adds	r3, r0, #1
  10b530:	4293      	cmp	r3, r2
  10b532:	d004      	beq.n	10b53e <__swbuf_r+0x8a>
  10b534:	89a3      	ldrh	r3, [r4, #12]
  10b536:	07db      	lsls	r3, r3, #31
  10b538:	d507      	bpl.n	10b54a <__swbuf_r+0x96>
  10b53a:	2d0a      	cmp	r5, #10
  10b53c:	d105      	bne.n	10b54a <__swbuf_r+0x96>
  10b53e:	4621      	mov	r1, r4
  10b540:	4630      	mov	r0, r6
  10b542:	f7fd fa35 	bl	1089b0 <_fflush_r>
  10b546:	2800      	cmp	r0, #0
  10b548:	d1e0      	bne.n	10b50c <__swbuf_r+0x58>
  10b54a:	4628      	mov	r0, r5
  10b54c:	bdf8      	pop	{r3, r4, r5, r6, r7, pc}
  10b54e:	bf00      	nop
  10b550:	0010e894 	.word	0x0010e894
  10b554:	0010e8b4 	.word	0x0010e8b4
  10b558:	0010e8d4 	.word	0x0010e8d4

0010b55c <_write_r>:
  10b55c:	b538      	push	{r3, r4, r5, lr}
  10b55e:	4c07      	ldr	r4, [pc, #28]	; (10b57c <_write_r+0x20>)
  10b560:	4605      	mov	r5, r0
  10b562:	4608      	mov	r0, r1
  10b564:	4611      	mov	r1, r2
  10b566:	2200      	movs	r2, #0
  10b568:	6022      	str	r2, [r4, #0]
  10b56a:	461a      	mov	r2, r3
  10b56c:	f7fb ffa8 	bl	1074c0 <_write>
  10b570:	1c43      	adds	r3, r0, #1
  10b572:	d102      	bne.n	10b57a <_write_r+0x1e>
  10b574:	6823      	ldr	r3, [r4, #0]
  10b576:	b103      	cbz	r3, 10b57a <_write_r+0x1e>
  10b578:	602b      	str	r3, [r5, #0]
  10b57a:	bd38      	pop	{r3, r4, r5, pc}
  10b57c:	3fff5398 	.word	0x3fff5398

0010b580 <__swsetup_r>:
  10b580:	4b31      	ldr	r3, [pc, #196]	; (10b648 <__swsetup_r+0xc8>)
  10b582:	b570      	push	{r4, r5, r6, lr}
  10b584:	681d      	ldr	r5, [r3, #0]
  10b586:	4606      	mov	r6, r0
  10b588:	460c      	mov	r4, r1
  10b58a:	b125      	cbz	r5, 10b596 <__swsetup_r+0x16>
  10b58c:	69ab      	ldr	r3, [r5, #24]
  10b58e:	b913      	cbnz	r3, 10b596 <__swsetup_r+0x16>
  10b590:	4628      	mov	r0, r5
  10b592:	f7fd fabd 	bl	108b10 <__sinit>
  10b596:	4b2d      	ldr	r3, [pc, #180]	; (10b64c <__swsetup_r+0xcc>)
  10b598:	429c      	cmp	r4, r3
  10b59a:	d101      	bne.n	10b5a0 <__swsetup_r+0x20>
  10b59c:	686c      	ldr	r4, [r5, #4]
  10b59e:	e008      	b.n	10b5b2 <__swsetup_r+0x32>
  10b5a0:	4b2b      	ldr	r3, [pc, #172]	; (10b650 <__swsetup_r+0xd0>)
  10b5a2:	429c      	cmp	r4, r3
  10b5a4:	d101      	bne.n	10b5aa <__swsetup_r+0x2a>
  10b5a6:	68ac      	ldr	r4, [r5, #8]
  10b5a8:	e003      	b.n	10b5b2 <__swsetup_r+0x32>
  10b5aa:	4b2a      	ldr	r3, [pc, #168]	; (10b654 <__swsetup_r+0xd4>)
  10b5ac:	429c      	cmp	r4, r3
  10b5ae:	bf08      	it	eq
  10b5b0:	68ec      	ldreq	r4, [r5, #12]
  10b5b2:	89a3      	ldrh	r3, [r4, #12]
  10b5b4:	b29a      	uxth	r2, r3
  10b5b6:	0711      	lsls	r1, r2, #28
  10b5b8:	d41d      	bmi.n	10b5f6 <__swsetup_r+0x76>
  10b5ba:	06d5      	lsls	r5, r2, #27
  10b5bc:	d402      	bmi.n	10b5c4 <__swsetup_r+0x44>
  10b5be:	2209      	movs	r2, #9
  10b5c0:	6032      	str	r2, [r6, #0]
  10b5c2:	e038      	b.n	10b636 <__swsetup_r+0xb6>
  10b5c4:	0750      	lsls	r0, r2, #29
  10b5c6:	d512      	bpl.n	10b5ee <__swsetup_r+0x6e>
  10b5c8:	6b61      	ldr	r1, [r4, #52]	; 0x34
  10b5ca:	b141      	cbz	r1, 10b5de <__swsetup_r+0x5e>
  10b5cc:	f104 0344 	add.w	r3, r4, #68	; 0x44
  10b5d0:	4299      	cmp	r1, r3
  10b5d2:	d002      	beq.n	10b5da <__swsetup_r+0x5a>
  10b5d4:	4630      	mov	r0, r6
  10b5d6:	f7fd fd1b 	bl	109010 <_free_r>
  10b5da:	2300      	movs	r3, #0
  10b5dc:	6363      	str	r3, [r4, #52]	; 0x34
  10b5de:	89a3      	ldrh	r3, [r4, #12]
  10b5e0:	f023 0324 	bic.w	r3, r3, #36	; 0x24
  10b5e4:	81a3      	strh	r3, [r4, #12]
  10b5e6:	2300      	movs	r3, #0
  10b5e8:	6063      	str	r3, [r4, #4]
  10b5ea:	6923      	ldr	r3, [r4, #16]
  10b5ec:	6023      	str	r3, [r4, #0]
  10b5ee:	89a3      	ldrh	r3, [r4, #12]
  10b5f0:	f043 0308 	orr.w	r3, r3, #8
  10b5f4:	81a3      	strh	r3, [r4, #12]
  10b5f6:	6923      	ldr	r3, [r4, #16]
  10b5f8:	b94b      	cbnz	r3, 10b60e <__swsetup_r+0x8e>
  10b5fa:	89a3      	ldrh	r3, [r4, #12]
  10b5fc:	f403 7320 	and.w	r3, r3, #640	; 0x280
  10b600:	f5b3 7f00 	cmp.w	r3, #512	; 0x200
  10b604:	d003      	beq.n	10b60e <__swsetup_r+0x8e>
  10b606:	4621      	mov	r1, r4
  10b608:	4630      	mov	r0, r6
  10b60a:	f7fd fc69 	bl	108ee0 <__smakebuf_r>
  10b60e:	89a3      	ldrh	r3, [r4, #12]
  10b610:	f013 0201 	ands.w	r2, r3, #1
  10b614:	d005      	beq.n	10b622 <__swsetup_r+0xa2>
  10b616:	2200      	movs	r2, #0
  10b618:	60a2      	str	r2, [r4, #8]
  10b61a:	6962      	ldr	r2, [r4, #20]
  10b61c:	4252      	negs	r2, r2
  10b61e:	61a2      	str	r2, [r4, #24]
  10b620:	e003      	b.n	10b62a <__swsetup_r+0xaa>
  10b622:	0799      	lsls	r1, r3, #30
  10b624:	bf58      	it	pl
  10b626:	6962      	ldrpl	r2, [r4, #20]
  10b628:	60a2      	str	r2, [r4, #8]
  10b62a:	6922      	ldr	r2, [r4, #16]
  10b62c:	b94a      	cbnz	r2, 10b642 <__swsetup_r+0xc2>
  10b62e:	f003 0080 	and.w	r0, r3, #128	; 0x80
  10b632:	b280      	uxth	r0, r0
  10b634:	b130      	cbz	r0, 10b644 <__swsetup_r+0xc4>
  10b636:	f043 0340 	orr.w	r3, r3, #64	; 0x40
  10b63a:	81a3      	strh	r3, [r4, #12]
  10b63c:	f04f 30ff 	mov.w	r0, #4294967295
  10b640:	bd70      	pop	{r4, r5, r6, pc}
  10b642:	2000      	movs	r0, #0
  10b644:	bd70      	pop	{r4, r5, r6, pc}
  10b646:	bf00      	nop
  10b648:	3fff4104 	.word	0x3fff4104
  10b64c:	0010e894 	.word	0x0010e894
  10b650:	0010e8b4 	.word	0x0010e8b4
  10b654:	0010e8d4 	.word	0x0010e8d4

0010b658 <__register_exitproc>:
  10b658:	e92d 43f8 	stmdb	sp!, {r3, r4, r5, r6, r7, r8, r9, lr}
  10b65c:	4d29      	ldr	r5, [pc, #164]	; (10b704 <__register_exitproc+0xac>)
  10b65e:	4606      	mov	r6, r0
  10b660:	682c      	ldr	r4, [r5, #0]
  10b662:	460f      	mov	r7, r1
  10b664:	4691      	mov	r9, r2
  10b666:	4698      	mov	r8, r3
  10b668:	b90c      	cbnz	r4, 10b66e <__register_exitproc+0x16>
  10b66a:	4c27      	ldr	r4, [pc, #156]	; (10b708 <__register_exitproc+0xb0>)
  10b66c:	602c      	str	r4, [r5, #0]
  10b66e:	6863      	ldr	r3, [r4, #4]
  10b670:	2b1f      	cmp	r3, #31
  10b672:	dd14      	ble.n	10b69e <__register_exitproc+0x46>
  10b674:	4b25      	ldr	r3, [pc, #148]	; (10b70c <__register_exitproc+0xb4>)
  10b676:	b91b      	cbnz	r3, 10b680 <__register_exitproc+0x28>
  10b678:	f04f 30ff 	mov.w	r0, #4294967295
  10b67c:	e8bd 83f8 	ldmia.w	sp!, {r3, r4, r5, r6, r7, r8, r9, pc}
  10b680:	208c      	movs	r0, #140	; 0x8c
  10b682:	f7f7 f88f 	bl	1027a4 <__wrap_malloc>
  10b686:	4604      	mov	r4, r0
  10b688:	2800      	cmp	r0, #0
  10b68a:	d0f5      	beq.n	10b678 <__register_exitproc+0x20>
  10b68c:	682a      	ldr	r2, [r5, #0]
  10b68e:	2300      	movs	r3, #0
  10b690:	6002      	str	r2, [r0, #0]
  10b692:	6043      	str	r3, [r0, #4]
  10b694:	6028      	str	r0, [r5, #0]
  10b696:	f8c0 3088 	str.w	r3, [r0, #136]	; 0x88
  10b69a:	b356      	cbz	r6, 10b6f2 <__register_exitproc+0x9a>
  10b69c:	e006      	b.n	10b6ac <__register_exitproc+0x54>
  10b69e:	b346      	cbz	r6, 10b6f2 <__register_exitproc+0x9a>
  10b6a0:	f8d4 0088 	ldr.w	r0, [r4, #136]	; 0x88
  10b6a4:	b978      	cbnz	r0, 10b6c6 <__register_exitproc+0x6e>
  10b6a6:	4b19      	ldr	r3, [pc, #100]	; (10b70c <__register_exitproc+0xb4>)
  10b6a8:	2b00      	cmp	r3, #0
  10b6aa:	d0e5      	beq.n	10b678 <__register_exitproc+0x20>
  10b6ac:	f44f 7084 	mov.w	r0, #264	; 0x108
  10b6b0:	f7f7 f878 	bl	1027a4 <__wrap_malloc>
  10b6b4:	2800      	cmp	r0, #0
  10b6b6:	d0df      	beq.n	10b678 <__register_exitproc+0x20>
  10b6b8:	2300      	movs	r3, #0
  10b6ba:	f8c0 3100 	str.w	r3, [r0, #256]	; 0x100
  10b6be:	f8c0 3104 	str.w	r3, [r0, #260]	; 0x104
  10b6c2:	f8c4 0088 	str.w	r0, [r4, #136]	; 0x88
  10b6c6:	6862      	ldr	r2, [r4, #4]
  10b6c8:	2301      	movs	r3, #1
  10b6ca:	f840 9022 	str.w	r9, [r0, r2, lsl #2]
  10b6ce:	4093      	lsls	r3, r2
  10b6d0:	eb00 0182 	add.w	r1, r0, r2, lsl #2
  10b6d4:	f8d0 2100 	ldr.w	r2, [r0, #256]	; 0x100
  10b6d8:	2e02      	cmp	r6, #2
  10b6da:	ea42 0203 	orr.w	r2, r2, r3
  10b6de:	f8c0 2100 	str.w	r2, [r0, #256]	; 0x100
  10b6e2:	f8c1 8080 	str.w	r8, [r1, #128]	; 0x80
  10b6e6:	bf02      	ittt	eq
  10b6e8:	f8d0 2104 	ldreq.w	r2, [r0, #260]	; 0x104
  10b6ec:	4313      	orreq	r3, r2
  10b6ee:	f8c0 3104 	streq.w	r3, [r0, #260]	; 0x104
  10b6f2:	6863      	ldr	r3, [r4, #4]
  10b6f4:	2000      	movs	r0, #0
  10b6f6:	1c5a      	adds	r2, r3, #1
  10b6f8:	3302      	adds	r3, #2
  10b6fa:	6062      	str	r2, [r4, #4]
  10b6fc:	f844 7023 	str.w	r7, [r4, r3, lsl #2]
  10b700:	e8bd 83f8 	ldmia.w	sp!, {r3, r4, r5, r6, r7, r8, r9, pc}
  10b704:	3fff4840 	.word	0x3fff4840
  10b708:	3fff47b4 	.word	0x3fff47b4
  10b70c:	001027a5 	.word	0x001027a5

0010b710 <__call_exitprocs>:
  10b710:	e92d 4ff7 	stmdb	sp!, {r0, r1, r2, r4, r5, r6, r7, r8, r9, r10, r11, lr}
  10b714:	4689      	mov	r9, r1
  10b716:	9001      	str	r0, [sp, #4]
  10b718:	4b30      	ldr	r3, [pc, #192]	; (10b7dc <__call_exitprocs+0xcc>)
  10b71a:	f04f 0b01 	mov.w	r11, #1
  10b71e:	4698      	mov	r8, r3
  10b720:	681c      	ldr	r4, [r3, #0]
  10b722:	2c00      	cmp	r4, #0
  10b724:	d056      	beq.n	10b7d4 <__call_exitprocs+0xc4>
  10b726:	6865      	ldr	r5, [r4, #4]
  10b728:	f8d4 6088 	ldr.w	r6, [r4, #136]	; 0x88
  10b72c:	1e6f      	subs	r7, r5, #1
  10b72e:	00ad      	lsls	r5, r5, #2
  10b730:	eb06 0a05 	add.w	r10, r6, r5
  10b734:	3504      	adds	r5, #4
  10b736:	4425      	add	r5, r4
  10b738:	2f00      	cmp	r7, #0
  10b73a:	db36      	blt.n	10b7aa <__call_exitprocs+0x9a>
  10b73c:	f1b9 0f00 	cmp.w	r9, #0
  10b740:	d009      	beq.n	10b756 <__call_exitprocs+0x46>
  10b742:	b926      	cbnz	r6, 10b74e <__call_exitprocs+0x3e>
  10b744:	3f01      	subs	r7, #1
  10b746:	f1aa 0a04 	sub.w	r10, r10, #4
  10b74a:	3d04      	subs	r5, #4
  10b74c:	e7f4      	b.n	10b738 <__call_exitprocs+0x28>
  10b74e:	f8da 207c 	ldr.w	r2, [r10, #124]	; 0x7c
  10b752:	4591      	cmp	r9, r2
  10b754:	d1f6      	bne.n	10b744 <__call_exitprocs+0x34>
  10b756:	6861      	ldr	r1, [r4, #4]
  10b758:	682a      	ldr	r2, [r5, #0]
  10b75a:	3901      	subs	r1, #1
  10b75c:	428f      	cmp	r7, r1
  10b75e:	bf16      	itet	ne
  10b760:	2300      	movne	r3, #0
  10b762:	6067      	streq	r7, [r4, #4]
  10b764:	602b      	strne	r3, [r5, #0]
  10b766:	2a00      	cmp	r2, #0
  10b768:	d0ec      	beq.n	10b744 <__call_exitprocs+0x34>
  10b76a:	6863      	ldr	r3, [r4, #4]
  10b76c:	9300      	str	r3, [sp, #0]
  10b76e:	b12e      	cbz	r6, 10b77c <__call_exitprocs+0x6c>
  10b770:	f8d6 0100 	ldr.w	r0, [r6, #256]	; 0x100
  10b774:	fa0b f107 	lsl.w	r1, r11, r7
  10b778:	4201      	tst	r1, r0
  10b77a:	d101      	bne.n	10b780 <__call_exitprocs+0x70>
  10b77c:	4790      	blx	r2
  10b77e:	e00b      	b.n	10b798 <__call_exitprocs+0x88>
  10b780:	f8d6 0104 	ldr.w	r0, [r6, #260]	; 0x104
  10b784:	4201      	tst	r1, r0
  10b786:	d104      	bne.n	10b792 <__call_exitprocs+0x82>
  10b788:	f85a 1c04 	ldr.w	r1, [r10, #-4]
  10b78c:	9801      	ldr	r0, [sp, #4]
  10b78e:	4790      	blx	r2
  10b790:	e002      	b.n	10b798 <__call_exitprocs+0x88>
  10b792:	f85a 0c04 	ldr.w	r0, [r10, #-4]
  10b796:	4790      	blx	r2
  10b798:	6862      	ldr	r2, [r4, #4]
  10b79a:	9b00      	ldr	r3, [sp, #0]
  10b79c:	4293      	cmp	r3, r2
  10b79e:	d1bb      	bne.n	10b718 <__call_exitprocs+0x8>
  10b7a0:	f8d8 2000 	ldr.w	r2, [r8]
  10b7a4:	4294      	cmp	r4, r2
  10b7a6:	d0cd      	beq.n	10b744 <__call_exitprocs+0x34>
  10b7a8:	e7b6      	b.n	10b718 <__call_exitprocs+0x8>
  10b7aa:	4b0d      	ldr	r3, [pc, #52]	; (10b7e0 <__call_exitprocs+0xd0>)
  10b7ac:	b193      	cbz	r3, 10b7d4 <__call_exitprocs+0xc4>
  10b7ae:	6862      	ldr	r2, [r4, #4]
  10b7b0:	6823      	ldr	r3, [r4, #0]
  10b7b2:	b962      	cbnz	r2, 10b7ce <__call_exitprocs+0xbe>
  10b7b4:	b15b      	cbz	r3, 10b7ce <__call_exitprocs+0xbe>
  10b7b6:	f8c8 3000 	str.w	r3, [r8]
  10b7ba:	b116      	cbz	r6, 10b7c2 <__call_exitprocs+0xb2>
  10b7bc:	4630      	mov	r0, r6
  10b7be:	f7f6 ffff 	bl	1027c0 <__wrap_free>
  10b7c2:	4620      	mov	r0, r4
  10b7c4:	f7f6 fffc 	bl	1027c0 <__wrap_free>
  10b7c8:	f8d8 4000 	ldr.w	r4, [r8]
  10b7cc:	e7a9      	b.n	10b722 <__call_exitprocs+0x12>
  10b7ce:	46a0      	mov	r8, r4
  10b7d0:	461c      	mov	r4, r3
  10b7d2:	e7a6      	b.n	10b722 <__call_exitprocs+0x12>
  10b7d4:	b003      	add	sp, #12
  10b7d6:	e8bd 8ff0 	ldmia.w	sp!, {r4, r5, r6, r7, r8, r9, r10, r11, pc}
  10b7da:	bf00      	nop
  10b7dc:	3fff4840 	.word	0x3fff4840
  10b7e0:	001027c1 	.word	0x001027c1

0010b7e4 <_close_r>:
  10b7e4:	b538      	push	{r3, r4, r5, lr}
  10b7e6:	4c06      	ldr	r4, [pc, #24]	; (10b800 <_close_r+0x1c>)
  10b7e8:	2300      	movs	r3, #0
  10b7ea:	4605      	mov	r5, r0
  10b7ec:	4608      	mov	r0, r1
  10b7ee:	6023      	str	r3, [r4, #0]
  10b7f0:	f7fb fe3e 	bl	107470 <_close>
  10b7f4:	1c43      	adds	r3, r0, #1
  10b7f6:	d102      	bne.n	10b7fe <_close_r+0x1a>
  10b7f8:	6823      	ldr	r3, [r4, #0]
  10b7fa:	b103      	cbz	r3, 10b7fe <_close_r+0x1a>
  10b7fc:	602b      	str	r3, [r5, #0]
  10b7fe:	bd38      	pop	{r3, r4, r5, pc}
  10b800:	3fff5398 	.word	0x3fff5398

0010b804 <quorem>:
  10b804:	e92d 4ff7 	stmdb	sp!, {r0, r1, r2, r4, r5, r6, r7, r8, r9, r10, r11, lr}
  10b808:	6903      	ldr	r3, [r0, #16]
  10b80a:	690c      	ldr	r4, [r1, #16]
  10b80c:	4680      	mov	r8, r0
  10b80e:	429c      	cmp	r4, r3
  10b810:	dc7f      	bgt.n	10b912 <quorem+0x10e>
  10b812:	3c01      	subs	r4, #1
  10b814:	f101 0714 	add.w	r7, r1, #20
  10b818:	ea4f 0e84 	mov.w	lr, r4, lsl #2
  10b81c:	f100 0614 	add.w	r6, r0, #20
  10b820:	eb06 030e 	add.w	r3, r6, lr
  10b824:	f857 5024 	ldr.w	r5, [r7, r4, lsl #2]
  10b828:	9301      	str	r3, [sp, #4]
  10b82a:	f856 3024 	ldr.w	r3, [r6, r4, lsl #2]
  10b82e:	3501      	adds	r5, #1
  10b830:	fbb3 f5f5 	udiv	r5, r3, r5
  10b834:	eb07 090e 	add.w	r9, r7, lr
  10b838:	b3c5      	cbz	r5, 10b8ac <quorem+0xa8>
  10b83a:	f04f 0a00 	mov.w	r10, #0
  10b83e:	4638      	mov	r0, r7
  10b840:	46b4      	mov	r12, r6
  10b842:	46d3      	mov	r11, r10
  10b844:	f850 3b04 	ldr.w	r3, [r0], #4
  10b848:	b29a      	uxth	r2, r3
  10b84a:	fb05 a202 	mla	r2, r5, r2, r10
  10b84e:	0c1b      	lsrs	r3, r3, #16
  10b850:	ea4f 4a12 	mov.w	r10, r2, lsr #16
  10b854:	fb05 a303 	mla	r3, r5, r3, r10
  10b858:	b292      	uxth	r2, r2
  10b85a:	ebc2 0b0b 	rsb	r11, r2, r11
  10b85e:	f8bc 2000 	ldrh.w	r2, [r12]
  10b862:	ea4f 4a13 	mov.w	r10, r3, lsr #16
  10b866:	445a      	add	r2, r11
  10b868:	fa1f fb83 	uxth.w	r11, r3
  10b86c:	f8dc 3000 	ldr.w	r3, [r12]
  10b870:	4581      	cmp	r9, r0
  10b872:	ebcb 4313 	rsb	r3, r11, r3, lsr #16
  10b876:	eb03 4322 	add.w	r3, r3, r2, asr #16
  10b87a:	b292      	uxth	r2, r2
  10b87c:	ea42 4203 	orr.w	r2, r2, r3, lsl #16
  10b880:	ea4f 4b23 	mov.w	r11, r3, asr #16
  10b884:	f84c 2b04 	str.w	r2, [r12], #4
  10b888:	d2dc      	bcs.n	10b844 <quorem+0x40>
  10b88a:	f856 300e 	ldr.w	r3, [r6, lr]
  10b88e:	b96b      	cbnz	r3, 10b8ac <quorem+0xa8>
  10b890:	9b01      	ldr	r3, [sp, #4]
  10b892:	3b04      	subs	r3, #4
  10b894:	429e      	cmp	r6, r3
  10b896:	461a      	mov	r2, r3
  10b898:	d302      	bcc.n	10b8a0 <quorem+0x9c>
  10b89a:	f8c8 4010 	str.w	r4, [r8, #16]
  10b89e:	e005      	b.n	10b8ac <quorem+0xa8>
  10b8a0:	6812      	ldr	r2, [r2, #0]
  10b8a2:	3b04      	subs	r3, #4
  10b8a4:	2a00      	cmp	r2, #0
  10b8a6:	d1f8      	bne.n	10b89a <quorem+0x96>
  10b8a8:	3c01      	subs	r4, #1
  10b8aa:	e7f3      	b.n	10b894 <quorem+0x90>
  10b8ac:	4640      	mov	r0, r8
  10b8ae:	f001 fba4 	bl	10cffa <__mcmp>
  10b8b2:	2800      	cmp	r0, #0
  10b8b4:	db2b      	blt.n	10b90e <quorem+0x10a>
  10b8b6:	4630      	mov	r0, r6
  10b8b8:	3501      	adds	r5, #1
  10b8ba:	f04f 0e00 	mov.w	lr, #0
  10b8be:	f857 2b04 	ldr.w	r2, [r7], #4
  10b8c2:	6803      	ldr	r3, [r0, #0]
  10b8c4:	b291      	uxth	r1, r2
  10b8c6:	ebc1 0e0e 	rsb	lr, r1, lr
  10b8ca:	0c12      	lsrs	r2, r2, #16
  10b8cc:	b299      	uxth	r1, r3
  10b8ce:	4471      	add	r1, lr
  10b8d0:	ebc2 4313 	rsb	r3, r2, r3, lsr #16
  10b8d4:	eb03 4321 	add.w	r3, r3, r1, asr #16
  10b8d8:	b289      	uxth	r1, r1
  10b8da:	ea4f 4e23 	mov.w	lr, r3, asr #16
  10b8de:	45b9      	cmp	r9, r7
  10b8e0:	ea41 4303 	orr.w	r3, r1, r3, lsl #16
  10b8e4:	f840 3b04 	str.w	r3, [r0], #4
  10b8e8:	d2e9      	bcs.n	10b8be <quorem+0xba>
  10b8ea:	f856 2024 	ldr.w	r2, [r6, r4, lsl #2]
  10b8ee:	eb06 0384 	add.w	r3, r6, r4, lsl #2
  10b8f2:	b962      	cbnz	r2, 10b90e <quorem+0x10a>
  10b8f4:	3b04      	subs	r3, #4
  10b8f6:	429e      	cmp	r6, r3
  10b8f8:	461a      	mov	r2, r3
  10b8fa:	d302      	bcc.n	10b902 <quorem+0xfe>
  10b8fc:	f8c8 4010 	str.w	r4, [r8, #16]
  10b900:	e005      	b.n	10b90e <quorem+0x10a>
  10b902:	6812      	ldr	r2, [r2, #0]
  10b904:	3b04      	subs	r3, #4
  10b906:	2a00      	cmp	r2, #0
  10b908:	d1f8      	bne.n	10b8fc <quorem+0xf8>
  10b90a:	3c01      	subs	r4, #1
  10b90c:	e7f3      	b.n	10b8f6 <quorem+0xf2>
  10b90e:	4628      	mov	r0, r5
  10b910:	e000      	b.n	10b914 <quorem+0x110>
  10b912:	2000      	movs	r0, #0
  10b914:	b003      	add	sp, #12
  10b916:	e8bd 8ff0 	ldmia.w	sp!, {r4, r5, r6, r7, r8, r9, r10, r11, pc}
  10b91a:	0000      	movs	r0, r0
  10b91c:	0000      	movs	r0, r0
	...

0010b920 <_dtoa_r>:
  10b920:	e92d 4ff0 	stmdb	sp!, {r4, r5, r6, r7, r8, r9, r10, r11, lr}
  10b924:	6a45      	ldr	r5, [r0, #36]	; 0x24
  10b926:	b095      	sub	sp, #84	; 0x54
  10b928:	4682      	mov	r10, r0
  10b92a:	9c21      	ldr	r4, [sp, #132]	; 0x84
  10b92c:	e9cd 2302 	strd	r2, r3, [sp, #8]
  10b930:	b945      	cbnz	r5, 10b944 <_dtoa_r+0x24>
  10b932:	2010      	movs	r0, #16
  10b934:	f7f6 ff36 	bl	1027a4 <__wrap_malloc>
  10b938:	f8ca 0024 	str.w	r0, [r10, #36]	; 0x24
  10b93c:	6045      	str	r5, [r0, #4]
  10b93e:	6085      	str	r5, [r0, #8]
  10b940:	6005      	str	r5, [r0, #0]
  10b942:	60c5      	str	r5, [r0, #12]
  10b944:	f8da 3024 	ldr.w	r3, [r10, #36]	; 0x24
  10b948:	6819      	ldr	r1, [r3, #0]
  10b94a:	b159      	cbz	r1, 10b964 <_dtoa_r+0x44>
  10b94c:	685a      	ldr	r2, [r3, #4]
  10b94e:	2301      	movs	r3, #1
  10b950:	4093      	lsls	r3, r2
  10b952:	604a      	str	r2, [r1, #4]
  10b954:	608b      	str	r3, [r1, #8]
  10b956:	4650      	mov	r0, r10
  10b958:	f001 f939 	bl	10cbce <_Bfree>
  10b95c:	f8da 3024 	ldr.w	r3, [r10, #36]	; 0x24
  10b960:	2200      	movs	r2, #0
  10b962:	601a      	str	r2, [r3, #0]
  10b964:	9b03      	ldr	r3, [sp, #12]
  10b966:	4aa0      	ldr	r2, [pc, #640]	; (10bbe8 <_dtoa_r+0x2c8>)
  10b968:	2b00      	cmp	r3, #0
  10b96a:	bfbd      	ittte	lt
  10b96c:	2301      	movlt	r3, #1
  10b96e:	6023      	strlt	r3, [r4, #0]
  10b970:	9b03      	ldrlt	r3, [sp, #12]
  10b972:	2300      	movge	r3, #0
  10b974:	bfbc      	itt	lt
  10b976:	f023 4300 	biclt.w	r3, r3, #2147483648	; 0x80000000
  10b97a:	9303      	strlt	r3, [sp, #12]
  10b97c:	f8dd 800c 	ldr.w	r8, [sp, #12]
  10b980:	bfa8      	it	ge
  10b982:	6023      	strge	r3, [r4, #0]
  10b984:	f028 4300 	bic.w	r3, r8, #2147483648	; 0x80000000
  10b988:	0d1b      	lsrs	r3, r3, #20
  10b98a:	051b      	lsls	r3, r3, #20
  10b98c:	4293      	cmp	r3, r2
  10b98e:	d11d      	bne.n	10b9cc <_dtoa_r+0xac>
  10b990:	f242 730f 	movw	r3, #9999	; 0x270f
  10b994:	9a20      	ldr	r2, [sp, #128]	; 0x80
  10b996:	6013      	str	r3, [r2, #0]
  10b998:	9b02      	ldr	r3, [sp, #8]
  10b99a:	b943      	cbnz	r3, 10b9ae <_dtoa_r+0x8e>
  10b99c:	4a93      	ldr	r2, [pc, #588]	; (10bbec <_dtoa_r+0x2cc>)
  10b99e:	4b94      	ldr	r3, [pc, #592]	; (10bbf0 <_dtoa_r+0x2d0>)
  10b9a0:	f3c8 0013 	ubfx	r0, r8, #0, #20
  10b9a4:	2800      	cmp	r0, #0
  10b9a6:	bf14      	ite	ne
  10b9a8:	4618      	movne	r0, r3
  10b9aa:	4610      	moveq	r0, r2
  10b9ac:	e000      	b.n	10b9b0 <_dtoa_r+0x90>
  10b9ae:	4890      	ldr	r0, [pc, #576]	; (10bbf0 <_dtoa_r+0x2d0>)
  10b9b0:	9b22      	ldr	r3, [sp, #136]	; 0x88
  10b9b2:	2b00      	cmp	r3, #0
  10b9b4:	f000 8546 	beq.w	10c444 <_dtoa_r+0xb24>
  10b9b8:	78c3      	ldrb	r3, [r0, #3]
  10b9ba:	b113      	cbz	r3, 10b9c2 <_dtoa_r+0xa2>
  10b9bc:	f100 0308 	add.w	r3, r0, #8
  10b9c0:	e000      	b.n	10b9c4 <_dtoa_r+0xa4>
  10b9c2:	1cc3      	adds	r3, r0, #3
  10b9c4:	9a22      	ldr	r2, [sp, #136]	; 0x88
  10b9c6:	6013      	str	r3, [r2, #0]
  10b9c8:	f000 bd3c 	b.w	10c444 <_dtoa_r+0xb24>
  10b9cc:	e9dd 4502 	ldrd	r4, r5, [sp, #8]
  10b9d0:	2200      	movs	r2, #0
  10b9d2:	2300      	movs	r3, #0
  10b9d4:	4620      	mov	r0, r4
  10b9d6:	4629      	mov	r1, r5
  10b9d8:	f7fc fd34 	bl	108444 <__aeabi_dcmpeq>
  10b9dc:	4607      	mov	r7, r0
  10b9de:	b158      	cbz	r0, 10b9f8 <_dtoa_r+0xd8>
  10b9e0:	9a20      	ldr	r2, [sp, #128]	; 0x80
  10b9e2:	2301      	movs	r3, #1
  10b9e4:	6013      	str	r3, [r2, #0]
  10b9e6:	9b22      	ldr	r3, [sp, #136]	; 0x88
  10b9e8:	2b00      	cmp	r3, #0
  10b9ea:	f000 851e 	beq.w	10c42a <_dtoa_r+0xb0a>
  10b9ee:	4881      	ldr	r0, [pc, #516]	; (10bbf4 <_dtoa_r+0x2d4>)
  10b9f0:	6018      	str	r0, [r3, #0]
  10b9f2:	3801      	subs	r0, #1
  10b9f4:	f000 bd26 	b.w	10c444 <_dtoa_r+0xb24>
  10b9f8:	ab12      	add	r3, sp, #72	; 0x48
  10b9fa:	9301      	str	r3, [sp, #4]
  10b9fc:	ab13      	add	r3, sp, #76	; 0x4c
  10b9fe:	9300      	str	r3, [sp, #0]
  10ba00:	4622      	mov	r2, r4
  10ba02:	462b      	mov	r3, r5
  10ba04:	4650      	mov	r0, r10
  10ba06:	f001 fbe4 	bl	10d1d2 <__d2b>
  10ba0a:	f3c8 560a 	ubfx	r6, r8, #20, #11
  10ba0e:	9004      	str	r0, [sp, #16]
  10ba10:	b156      	cbz	r6, 10ba28 <_dtoa_r+0x108>
  10ba12:	f3c5 0313 	ubfx	r3, r5, #0, #20
  10ba16:	f043 517f 	orr.w	r1, r3, #1069547520	; 0x3fc00000
  10ba1a:	4620      	mov	r0, r4
  10ba1c:	f441 1140 	orr.w	r1, r1, #3145728	; 0x300000
  10ba20:	f2a6 36ff 	subw	r6, r6, #1023	; 0x3ff
  10ba24:	9711      	str	r7, [sp, #68]	; 0x44
  10ba26:	e01d      	b.n	10ba64 <_dtoa_r+0x144>
  10ba28:	9b13      	ldr	r3, [sp, #76]	; 0x4c
  10ba2a:	9e12      	ldr	r6, [sp, #72]	; 0x48
  10ba2c:	441e      	add	r6, r3
  10ba2e:	f206 4332 	addw	r3, r6, #1074	; 0x432
  10ba32:	2b20      	cmp	r3, #32
  10ba34:	dd0a      	ble.n	10ba4c <_dtoa_r+0x12c>
  10ba36:	9a02      	ldr	r2, [sp, #8]
  10ba38:	f206 4012 	addw	r0, r6, #1042	; 0x412
  10ba3c:	f1c3 0340 	rsb	r3, r3, #64	; 0x40
  10ba40:	fa22 f000 	lsr.w	r0, r2, r0
  10ba44:	fa08 f303 	lsl.w	r3, r8, r3
  10ba48:	4318      	orrs	r0, r3
  10ba4a:	e004      	b.n	10ba56 <_dtoa_r+0x136>
  10ba4c:	f1c3 0020 	rsb	r0, r3, #32
  10ba50:	9b02      	ldr	r3, [sp, #8]
  10ba52:	fa03 f000 	lsl.w	r0, r3, r0
  10ba56:	f7fc fc29 	bl	1082ac <__aeabi_ui2d>
  10ba5a:	2301      	movs	r3, #1
  10ba5c:	f1a1 71f8 	sub.w	r1, r1, #32505856	; 0x1f00000
  10ba60:	3e01      	subs	r6, #1
  10ba62:	9311      	str	r3, [sp, #68]	; 0x44
  10ba64:	2200      	movs	r2, #0
  10ba66:	4b64      	ldr	r3, [pc, #400]	; (10bbf8 <_dtoa_r+0x2d8>)
  10ba68:	f7fc fae2 	bl	108030 <__aeabi_dsub>
  10ba6c:	a358      	add	r3, pc, #352	; (adr r3, 10bbd0 <_dtoa_r+0x2b0>)
  10ba6e:	e9d3 2300 	ldrd	r2, r3, [r3]
  10ba72:	f001 ffa7 	bl	10d9c4 <__aeabi_dmul>
  10ba76:	a358      	add	r3, pc, #352	; (adr r3, 10bbd8 <_dtoa_r+0x2b8>)
  10ba78:	e9d3 2300 	ldrd	r2, r3, [r3]
  10ba7c:	f7fc fada 	bl	108034 <__adddf3>
  10ba80:	4604      	mov	r4, r0
  10ba82:	4630      	mov	r0, r6
  10ba84:	460d      	mov	r5, r1
  10ba86:	f7fc fc21 	bl	1082cc <__aeabi_i2d>
  10ba8a:	a355      	add	r3, pc, #340	; (adr r3, 10bbe0 <_dtoa_r+0x2c0>)
  10ba8c:	e9d3 2300 	ldrd	r2, r3, [r3]
  10ba90:	f001 ff98 	bl	10d9c4 <__aeabi_dmul>
  10ba94:	4602      	mov	r2, r0
  10ba96:	460b      	mov	r3, r1
  10ba98:	4620      	mov	r0, r4
  10ba9a:	4629      	mov	r1, r5
  10ba9c:	f7fc faca 	bl	108034 <__adddf3>
  10baa0:	4604      	mov	r4, r0
  10baa2:	460d      	mov	r5, r1
  10baa4:	f002 f9a0 	bl	10dde8 <__aeabi_d2iz>
  10baa8:	2200      	movs	r2, #0
  10baaa:	4683      	mov	r11, r0
  10baac:	2300      	movs	r3, #0
  10baae:	4620      	mov	r0, r4
  10bab0:	4629      	mov	r1, r5
  10bab2:	f7fc fcd1 	bl	108458 <__aeabi_dcmplt>
  10bab6:	b158      	cbz	r0, 10bad0 <_dtoa_r+0x1b0>
  10bab8:	4658      	mov	r0, r11
  10baba:	f7fc fc07 	bl	1082cc <__aeabi_i2d>
  10babe:	4602      	mov	r2, r0
  10bac0:	460b      	mov	r3, r1
  10bac2:	4620      	mov	r0, r4
  10bac4:	4629      	mov	r1, r5
  10bac6:	f7fc fcbd 	bl	108444 <__aeabi_dcmpeq>
  10baca:	b908      	cbnz	r0, 10bad0 <_dtoa_r+0x1b0>
  10bacc:	f10b 3bff 	add.w	r11, r11, #4294967295
  10bad0:	f1bb 0f16 	cmp.w	r11, #22
  10bad4:	d80d      	bhi.n	10baf2 <_dtoa_r+0x1d2>
  10bad6:	e9dd 2302 	ldrd	r2, r3, [sp, #8]
  10bada:	4948      	ldr	r1, [pc, #288]	; (10bbfc <_dtoa_r+0x2dc>)
  10badc:	eb01 01cb 	add.w	r1, r1, r11, lsl #3
  10bae0:	e9d1 0100 	ldrd	r0, r1, [r1]
  10bae4:	f7fc fcd6 	bl	108494 <__aeabi_dcmpgt>
  10bae8:	b130      	cbz	r0, 10baf8 <_dtoa_r+0x1d8>
  10baea:	f10b 3bff 	add.w	r11, r11, #4294967295
  10baee:	2300      	movs	r3, #0
  10baf0:	e000      	b.n	10baf4 <_dtoa_r+0x1d4>
  10baf2:	2301      	movs	r3, #1
  10baf4:	9310      	str	r3, [sp, #64]	; 0x40
  10baf6:	e000      	b.n	10bafa <_dtoa_r+0x1da>
  10baf8:	9010      	str	r0, [sp, #64]	; 0x40
  10bafa:	9b12      	ldr	r3, [sp, #72]	; 0x48
  10bafc:	1b9e      	subs	r6, r3, r6
  10bafe:	1e73      	subs	r3, r6, #1
  10bb00:	9307      	str	r3, [sp, #28]
  10bb02:	bf43      	ittte	mi
  10bb04:	f1c3 0800 	rsbmi	r8, r3, #0
  10bb08:	2300      	movmi	r3, #0
  10bb0a:	9307      	strmi	r3, [sp, #28]
  10bb0c:	f04f 0800 	movpl.w	r8, #0
  10bb10:	f1bb 0f00 	cmp.w	r11, #0
  10bb14:	db06      	blt.n	10bb24 <_dtoa_r+0x204>
  10bb16:	9b07      	ldr	r3, [sp, #28]
  10bb18:	f8cd b02c 	str.w	r11, [sp, #44]	; 0x2c
  10bb1c:	445b      	add	r3, r11
  10bb1e:	9307      	str	r3, [sp, #28]
  10bb20:	2700      	movs	r7, #0
  10bb22:	e005      	b.n	10bb30 <_dtoa_r+0x210>
  10bb24:	2300      	movs	r3, #0
  10bb26:	ebcb 0808 	rsb	r8, r11, r8
  10bb2a:	f1cb 0700 	rsb	r7, r11, #0
  10bb2e:	930b      	str	r3, [sp, #44]	; 0x2c
  10bb30:	9b1e      	ldr	r3, [sp, #120]	; 0x78
  10bb32:	2b09      	cmp	r3, #9
  10bb34:	d828      	bhi.n	10bb88 <_dtoa_r+0x268>
  10bb36:	2b05      	cmp	r3, #5
  10bb38:	bfc4      	itt	gt
  10bb3a:	3b04      	subgt	r3, #4
  10bb3c:	931e      	strgt	r3, [sp, #120]	; 0x78
  10bb3e:	9b1e      	ldr	r3, [sp, #120]	; 0x78
  10bb40:	bfc8      	it	gt
  10bb42:	2500      	movgt	r5, #0
  10bb44:	f1a3 0302 	sub.w	r3, r3, #2
  10bb48:	bfd8      	it	le
  10bb4a:	2501      	movle	r5, #1
  10bb4c:	2b03      	cmp	r3, #3
  10bb4e:	d820      	bhi.n	10bb92 <_dtoa_r+0x272>
  10bb50:	e8df f003 	tbb	[pc, r3]
  10bb54:	04020e06 	.word	0x04020e06
  10bb58:	2301      	movs	r3, #1
  10bb5a:	e002      	b.n	10bb62 <_dtoa_r+0x242>
  10bb5c:	2301      	movs	r3, #1
  10bb5e:	e008      	b.n	10bb72 <_dtoa_r+0x252>
  10bb60:	2300      	movs	r3, #0
  10bb62:	930a      	str	r3, [sp, #40]	; 0x28
  10bb64:	9b1f      	ldr	r3, [sp, #124]	; 0x7c
  10bb66:	2b00      	cmp	r3, #0
  10bb68:	dd1d      	ble.n	10bba6 <_dtoa_r+0x286>
  10bb6a:	4699      	mov	r9, r3
  10bb6c:	9305      	str	r3, [sp, #20]
  10bb6e:	e021      	b.n	10bbb4 <_dtoa_r+0x294>
  10bb70:	2300      	movs	r3, #0
  10bb72:	930a      	str	r3, [sp, #40]	; 0x28
  10bb74:	9b1f      	ldr	r3, [sp, #124]	; 0x7c
  10bb76:	eb0b 0903 	add.w	r9, r11, r3
  10bb7a:	f109 0301 	add.w	r3, r9, #1
  10bb7e:	2b01      	cmp	r3, #1
  10bb80:	9305      	str	r3, [sp, #20]
  10bb82:	bfb8      	it	lt
  10bb84:	2301      	movlt	r3, #1
  10bb86:	e015      	b.n	10bbb4 <_dtoa_r+0x294>
  10bb88:	2501      	movs	r5, #1
  10bb8a:	2300      	movs	r3, #0
  10bb8c:	931e      	str	r3, [sp, #120]	; 0x78
  10bb8e:	950a      	str	r5, [sp, #40]	; 0x28
  10bb90:	e001      	b.n	10bb96 <_dtoa_r+0x276>
  10bb92:	2301      	movs	r3, #1
  10bb94:	930a      	str	r3, [sp, #40]	; 0x28
  10bb96:	f04f 39ff 	mov.w	r9, #4294967295
  10bb9a:	2200      	movs	r2, #0
  10bb9c:	f8cd 9014 	str.w	r9, [sp, #20]
  10bba0:	2312      	movs	r3, #18
  10bba2:	921f      	str	r2, [sp, #124]	; 0x7c
  10bba4:	e006      	b.n	10bbb4 <_dtoa_r+0x294>
  10bba6:	f04f 0901 	mov.w	r9, #1
  10bbaa:	464b      	mov	r3, r9
  10bbac:	f8cd 9014 	str.w	r9, [sp, #20]
  10bbb0:	f8cd 907c 	str.w	r9, [sp, #124]	; 0x7c
  10bbb4:	f8da 4024 	ldr.w	r4, [r10, #36]	; 0x24
  10bbb8:	2200      	movs	r2, #0
  10bbba:	6062      	str	r2, [r4, #4]
  10bbbc:	2104      	movs	r1, #4
  10bbbe:	f101 0214 	add.w	r2, r1, #20
  10bbc2:	429a      	cmp	r2, r3
  10bbc4:	d81c      	bhi.n	10bc00 <_dtoa_r+0x2e0>
  10bbc6:	6862      	ldr	r2, [r4, #4]
  10bbc8:	0049      	lsls	r1, r1, #1
  10bbca:	3201      	adds	r2, #1
  10bbcc:	6062      	str	r2, [r4, #4]
  10bbce:	e7f6      	b.n	10bbbe <_dtoa_r+0x29e>
  10bbd0:	636f4361 	.word	0x636f4361
  10bbd4:	3fd287a7 	.word	0x3fd287a7
  10bbd8:	8b60c8b3 	.word	0x8b60c8b3
  10bbdc:	3fc68a28 	.word	0x3fc68a28
  10bbe0:	509f79fb 	.word	0x509f79fb
  10bbe4:	3fd34413 	.word	0x3fd34413
  10bbe8:	7ff00000 	.word	0x7ff00000
  10bbec:	0010e9b8 	.word	0x0010e9b8
  10bbf0:	0010e9c1 	.word	0x0010e9c1
  10bbf4:	0010e95f 	.word	0x0010e95f
  10bbf8:	3ff80000 	.word	0x3ff80000
  10bbfc:	0010e9c8 	.word	0x0010e9c8
  10bc00:	6861      	ldr	r1, [r4, #4]
  10bc02:	4650      	mov	r0, r10
  10bc04:	f000 ffae 	bl	10cb64 <_Balloc>
  10bc08:	f8da 3024 	ldr.w	r3, [r10, #36]	; 0x24
  10bc0c:	6020      	str	r0, [r4, #0]
  10bc0e:	681b      	ldr	r3, [r3, #0]
  10bc10:	9306      	str	r3, [sp, #24]
  10bc12:	9b05      	ldr	r3, [sp, #20]
  10bc14:	2b0e      	cmp	r3, #14
  10bc16:	f200 815b 	bhi.w	10bed0 <_dtoa_r+0x5b0>
  10bc1a:	2d00      	cmp	r5, #0
  10bc1c:	f000 8158 	beq.w	10bed0 <_dtoa_r+0x5b0>
  10bc20:	e9dd 3402 	ldrd	r3, r4, [sp, #8]
  10bc24:	f1bb 0f00 	cmp.w	r11, #0
  10bc28:	e9cd 340e 	strd	r3, r4, [sp, #56]	; 0x38
  10bc2c:	dd30      	ble.n	10bc90 <_dtoa_r+0x370>
  10bc2e:	4a9f      	ldr	r2, [pc, #636]	; (10beac <_dtoa_r+0x58c>)
  10bc30:	f00b 030f 	and.w	r3, r11, #15
  10bc34:	ea4f 152b 	mov.w	r5, r11, asr #4
  10bc38:	eb02 03c3 	add.w	r3, r2, r3, lsl #3
  10bc3c:	06e8      	lsls	r0, r5, #27
  10bc3e:	cb18      	ldmia	r3, {r3, r4}
  10bc40:	e9cd 3408 	strd	r3, r4, [sp, #32]
  10bc44:	d50c      	bpl.n	10bc60 <_dtoa_r+0x340>
  10bc46:	e9dd 010e 	ldrd	r0, r1, [sp, #56]	; 0x38
  10bc4a:	4b99      	ldr	r3, [pc, #612]	; (10beb0 <_dtoa_r+0x590>)
  10bc4c:	f005 050f 	and.w	r5, r5, #15
  10bc50:	e9d3 2308 	ldrd	r2, r3, [r3, #32]
  10bc54:	f001 ffe0 	bl	10dc18 <__aeabi_ddiv>
  10bc58:	2403      	movs	r4, #3
  10bc5a:	e9cd 0102 	strd	r0, r1, [sp, #8]
  10bc5e:	e000      	b.n	10bc62 <_dtoa_r+0x342>
  10bc60:	2402      	movs	r4, #2
  10bc62:	4e93      	ldr	r6, [pc, #588]	; (10beb0 <_dtoa_r+0x590>)
  10bc64:	b16d      	cbz	r5, 10bc82 <_dtoa_r+0x362>
  10bc66:	07e9      	lsls	r1, r5, #31
  10bc68:	d508      	bpl.n	10bc7c <_dtoa_r+0x35c>
  10bc6a:	e9dd 0108 	ldrd	r0, r1, [sp, #32]
  10bc6e:	e9d6 2300 	ldrd	r2, r3, [r6]
  10bc72:	f001 fea7 	bl	10d9c4 <__aeabi_dmul>
  10bc76:	e9cd 0108 	strd	r0, r1, [sp, #32]
  10bc7a:	3401      	adds	r4, #1
  10bc7c:	106d      	asrs	r5, r5, #1
  10bc7e:	3608      	adds	r6, #8
  10bc80:	e7f0      	b.n	10bc64 <_dtoa_r+0x344>
  10bc82:	e9dd 2308 	ldrd	r2, r3, [sp, #32]
  10bc86:	e9dd 0102 	ldrd	r0, r1, [sp, #8]
  10bc8a:	f001 ffc5 	bl	10dc18 <__aeabi_ddiv>
  10bc8e:	e020      	b.n	10bcd2 <_dtoa_r+0x3b2>
  10bc90:	f1cb 0500 	rsb	r5, r11, #0
  10bc94:	b305      	cbz	r5, 10bcd8 <_dtoa_r+0x3b8>
  10bc96:	e9dd 010e 	ldrd	r0, r1, [sp, #56]	; 0x38
  10bc9a:	4b84      	ldr	r3, [pc, #528]	; (10beac <_dtoa_r+0x58c>)
  10bc9c:	f005 020f 	and.w	r2, r5, #15
  10bca0:	eb03 03c2 	add.w	r3, r3, r2, lsl #3
  10bca4:	e9d3 2300 	ldrd	r2, r3, [r3]
  10bca8:	f001 fe8c 	bl	10d9c4 <__aeabi_dmul>
  10bcac:	e9cd 0102 	strd	r0, r1, [sp, #8]
  10bcb0:	4e7f      	ldr	r6, [pc, #508]	; (10beb0 <_dtoa_r+0x590>)
  10bcb2:	112d      	asrs	r5, r5, #4
  10bcb4:	2300      	movs	r3, #0
  10bcb6:	2402      	movs	r4, #2
  10bcb8:	b155      	cbz	r5, 10bcd0 <_dtoa_r+0x3b0>
  10bcba:	07ea      	lsls	r2, r5, #31
  10bcbc:	d505      	bpl.n	10bcca <_dtoa_r+0x3aa>
  10bcbe:	e9d6 2300 	ldrd	r2, r3, [r6]
  10bcc2:	f001 fe7f 	bl	10d9c4 <__aeabi_dmul>
  10bcc6:	3401      	adds	r4, #1
  10bcc8:	2301      	movs	r3, #1
  10bcca:	106d      	asrs	r5, r5, #1
  10bccc:	3608      	adds	r6, #8
  10bcce:	e7f3      	b.n	10bcb8 <_dtoa_r+0x398>
  10bcd0:	b11b      	cbz	r3, 10bcda <_dtoa_r+0x3ba>
  10bcd2:	e9cd 0102 	strd	r0, r1, [sp, #8]
  10bcd6:	e000      	b.n	10bcda <_dtoa_r+0x3ba>
  10bcd8:	2402      	movs	r4, #2
  10bcda:	9b10      	ldr	r3, [sp, #64]	; 0x40
  10bcdc:	b1e3      	cbz	r3, 10bd18 <_dtoa_r+0x3f8>
  10bcde:	e9dd 5602 	ldrd	r5, r6, [sp, #8]
  10bce2:	2200      	movs	r2, #0
  10bce4:	4b73      	ldr	r3, [pc, #460]	; (10beb4 <_dtoa_r+0x594>)
  10bce6:	4628      	mov	r0, r5
  10bce8:	4631      	mov	r1, r6
  10bcea:	f7fc fbb5 	bl	108458 <__aeabi_dcmplt>
  10bcee:	b198      	cbz	r0, 10bd18 <_dtoa_r+0x3f8>
  10bcf0:	9b05      	ldr	r3, [sp, #20]
  10bcf2:	b18b      	cbz	r3, 10bd18 <_dtoa_r+0x3f8>
  10bcf4:	f1b9 0f00 	cmp.w	r9, #0
  10bcf8:	f340 80e6 	ble.w	10bec8 <_dtoa_r+0x5a8>
  10bcfc:	f10b 33ff 	add.w	r3, r11, #4294967295
  10bd00:	9308      	str	r3, [sp, #32]
  10bd02:	4631      	mov	r1, r6
  10bd04:	2200      	movs	r2, #0
  10bd06:	4b6c      	ldr	r3, [pc, #432]	; (10beb8 <_dtoa_r+0x598>)
  10bd08:	4628      	mov	r0, r5
  10bd0a:	f001 fe5b 	bl	10d9c4 <__aeabi_dmul>
  10bd0e:	3401      	adds	r4, #1
  10bd10:	e9cd 0102 	strd	r0, r1, [sp, #8]
  10bd14:	464e      	mov	r6, r9
  10bd16:	e002      	b.n	10bd1e <_dtoa_r+0x3fe>
  10bd18:	9e05      	ldr	r6, [sp, #20]
  10bd1a:	f8cd b020 	str.w	r11, [sp, #32]
  10bd1e:	4620      	mov	r0, r4
  10bd20:	f7fc fad4 	bl	1082cc <__aeabi_i2d>
  10bd24:	e9dd 2302 	ldrd	r2, r3, [sp, #8]
  10bd28:	f001 fe4c 	bl	10d9c4 <__aeabi_dmul>
  10bd2c:	4b63      	ldr	r3, [pc, #396]	; (10bebc <_dtoa_r+0x59c>)
  10bd2e:	2200      	movs	r2, #0
  10bd30:	f7fc f980 	bl	108034 <__adddf3>
  10bd34:	f1a1 7350 	sub.w	r3, r1, #54525952	; 0x3400000
  10bd38:	4604      	mov	r4, r0
  10bd3a:	930c      	str	r3, [sp, #48]	; 0x30
  10bd3c:	461d      	mov	r5, r3
  10bd3e:	b9d6      	cbnz	r6, 10bd76 <_dtoa_r+0x456>
  10bd40:	e9dd 0102 	ldrd	r0, r1, [sp, #8]
  10bd44:	2200      	movs	r2, #0
  10bd46:	4b5e      	ldr	r3, [pc, #376]	; (10bec0 <_dtoa_r+0x5a0>)
  10bd48:	f7fc f972 	bl	108030 <__aeabi_dsub>
  10bd4c:	4622      	mov	r2, r4
  10bd4e:	9b0c      	ldr	r3, [sp, #48]	; 0x30
  10bd50:	e9cd 0102 	strd	r0, r1, [sp, #8]
  10bd54:	f7fc fb9e 	bl	108494 <__aeabi_dcmpgt>
  10bd58:	2800      	cmp	r0, #0
  10bd5a:	f040 823f 	bne.w	10c1dc <_dtoa_r+0x8bc>
  10bd5e:	990c      	ldr	r1, [sp, #48]	; 0x30
  10bd60:	4622      	mov	r2, r4
  10bd62:	f101 4300 	add.w	r3, r1, #2147483648	; 0x80000000
  10bd66:	e9dd 0102 	ldrd	r0, r1, [sp, #8]
  10bd6a:	f7fc fb75 	bl	108458 <__aeabi_dcmplt>
  10bd6e:	2800      	cmp	r0, #0
  10bd70:	f040 822b 	bne.w	10c1ca <_dtoa_r+0x8aa>
  10bd74:	e0a8      	b.n	10bec8 <_dtoa_r+0x5a8>
  10bd76:	9a0a      	ldr	r2, [sp, #40]	; 0x28
  10bd78:	4b4c      	ldr	r3, [pc, #304]	; (10beac <_dtoa_r+0x58c>)
  10bd7a:	1e71      	subs	r1, r6, #1
  10bd7c:	2a00      	cmp	r2, #0
  10bd7e:	d049      	beq.n	10be14 <_dtoa_r+0x4f4>
  10bd80:	eb03 03c1 	add.w	r3, r3, r1, lsl #3
  10bd84:	e9d3 2300 	ldrd	r2, r3, [r3]
  10bd88:	2000      	movs	r0, #0
  10bd8a:	494e      	ldr	r1, [pc, #312]	; (10bec4 <_dtoa_r+0x5a4>)
  10bd8c:	f001 ff44 	bl	10dc18 <__aeabi_ddiv>
  10bd90:	4622      	mov	r2, r4
  10bd92:	462b      	mov	r3, r5
  10bd94:	f7fc f94c 	bl	108030 <__aeabi_dsub>
  10bd98:	e9cd 010c 	strd	r0, r1, [sp, #48]	; 0x30
  10bd9c:	9c06      	ldr	r4, [sp, #24]
  10bd9e:	e9dd 0102 	ldrd	r0, r1, [sp, #8]
  10bda2:	f002 f821 	bl	10dde8 <__aeabi_d2iz>
  10bda6:	4605      	mov	r5, r0
  10bda8:	f7fc fa90 	bl	1082cc <__aeabi_i2d>
  10bdac:	4602      	mov	r2, r0
  10bdae:	460b      	mov	r3, r1
  10bdb0:	e9dd 0102 	ldrd	r0, r1, [sp, #8]
  10bdb4:	f7fc f93c 	bl	108030 <__aeabi_dsub>
  10bdb8:	e9dd 230c 	ldrd	r2, r3, [sp, #48]	; 0x30
  10bdbc:	3530      	adds	r5, #48	; 0x30
  10bdbe:	f804 5b01 	strb.w	r5, [r4], #1
  10bdc2:	e9cd 0102 	strd	r0, r1, [sp, #8]
  10bdc6:	f7fc fb47 	bl	108458 <__aeabi_dcmplt>
  10bdca:	2800      	cmp	r0, #0
  10bdcc:	f040 831d 	bne.w	10c40a <_dtoa_r+0xaea>
  10bdd0:	e9dd 2302 	ldrd	r2, r3, [sp, #8]
  10bdd4:	2000      	movs	r0, #0
  10bdd6:	4937      	ldr	r1, [pc, #220]	; (10beb4 <_dtoa_r+0x594>)
  10bdd8:	f7fc f92a 	bl	108030 <__aeabi_dsub>
  10bddc:	e9dd 230c 	ldrd	r2, r3, [sp, #48]	; 0x30
  10bde0:	f7fc fb3a 	bl	108458 <__aeabi_dcmplt>
  10bde4:	2800      	cmp	r0, #0
  10bde6:	f040 80d1 	bne.w	10bf8c <_dtoa_r+0x66c>
  10bdea:	9b06      	ldr	r3, [sp, #24]
  10bdec:	1ae3      	subs	r3, r4, r3
  10bdee:	42b3      	cmp	r3, r6
  10bdf0:	da6a      	bge.n	10bec8 <_dtoa_r+0x5a8>
  10bdf2:	e9dd 010c 	ldrd	r0, r1, [sp, #48]	; 0x30
  10bdf6:	2200      	movs	r2, #0
  10bdf8:	4b2f      	ldr	r3, [pc, #188]	; (10beb8 <_dtoa_r+0x598>)
  10bdfa:	f001 fde3 	bl	10d9c4 <__aeabi_dmul>
  10bdfe:	2200      	movs	r2, #0
  10be00:	e9cd 010c 	strd	r0, r1, [sp, #48]	; 0x30
  10be04:	e9dd 0102 	ldrd	r0, r1, [sp, #8]
  10be08:	4b2b      	ldr	r3, [pc, #172]	; (10beb8 <_dtoa_r+0x598>)
  10be0a:	f001 fddb 	bl	10d9c4 <__aeabi_dmul>
  10be0e:	e9cd 0102 	strd	r0, r1, [sp, #8]
  10be12:	e7c4      	b.n	10bd9e <_dtoa_r+0x47e>
  10be14:	eb03 01c1 	add.w	r1, r3, r1, lsl #3
  10be18:	4622      	mov	r2, r4
  10be1a:	e9d1 0100 	ldrd	r0, r1, [r1]
  10be1e:	462b      	mov	r3, r5
  10be20:	f001 fdd0 	bl	10d9c4 <__aeabi_dmul>
  10be24:	9b06      	ldr	r3, [sp, #24]
  10be26:	e9cd 010c 	strd	r0, r1, [sp, #48]	; 0x30
  10be2a:	461d      	mov	r5, r3
  10be2c:	199c      	adds	r4, r3, r6
  10be2e:	e9dd 0102 	ldrd	r0, r1, [sp, #8]
  10be32:	f001 ffd9 	bl	10dde8 <__aeabi_d2iz>
  10be36:	4606      	mov	r6, r0
  10be38:	f7fc fa48 	bl	1082cc <__aeabi_i2d>
  10be3c:	4602      	mov	r2, r0
  10be3e:	460b      	mov	r3, r1
  10be40:	e9dd 0102 	ldrd	r0, r1, [sp, #8]
  10be44:	f7fc f8f4 	bl	108030 <__aeabi_dsub>
  10be48:	3630      	adds	r6, #48	; 0x30
  10be4a:	f805 6b01 	strb.w	r6, [r5], #1
  10be4e:	42ac      	cmp	r4, r5
  10be50:	e9cd 0102 	strd	r0, r1, [sp, #8]
  10be54:	f04f 0200 	mov.w	r2, #0
  10be58:	d122      	bne.n	10bea0 <_dtoa_r+0x580>
  10be5a:	4b1a      	ldr	r3, [pc, #104]	; (10bec4 <_dtoa_r+0x5a4>)
  10be5c:	e9dd 010c 	ldrd	r0, r1, [sp, #48]	; 0x30
  10be60:	f7fc f8e8 	bl	108034 <__adddf3>
  10be64:	4602      	mov	r2, r0
  10be66:	460b      	mov	r3, r1
  10be68:	e9dd 0102 	ldrd	r0, r1, [sp, #8]
  10be6c:	f7fc fb12 	bl	108494 <__aeabi_dcmpgt>
  10be70:	2800      	cmp	r0, #0
  10be72:	f040 808b 	bne.w	10bf8c <_dtoa_r+0x66c>
  10be76:	e9dd 230c 	ldrd	r2, r3, [sp, #48]	; 0x30
  10be7a:	2000      	movs	r0, #0
  10be7c:	4911      	ldr	r1, [pc, #68]	; (10bec4 <_dtoa_r+0x5a4>)
  10be7e:	f7fc f8d7 	bl	108030 <__aeabi_dsub>
  10be82:	4602      	mov	r2, r0
  10be84:	460b      	mov	r3, r1
  10be86:	e9dd 0102 	ldrd	r0, r1, [sp, #8]
  10be8a:	f7fc fae5 	bl	108458 <__aeabi_dcmplt>
  10be8e:	b1d8      	cbz	r0, 10bec8 <_dtoa_r+0x5a8>
  10be90:	f814 3c01 	ldrb.w	r3, [r4, #-1]
  10be94:	1e62      	subs	r2, r4, #1
  10be96:	2b30      	cmp	r3, #48	; 0x30
  10be98:	f040 82b7 	bne.w	10c40a <_dtoa_r+0xaea>
  10be9c:	4614      	mov	r4, r2
  10be9e:	e7f7      	b.n	10be90 <_dtoa_r+0x570>
  10bea0:	4b05      	ldr	r3, [pc, #20]	; (10beb8 <_dtoa_r+0x598>)
  10bea2:	f001 fd8f 	bl	10d9c4 <__aeabi_dmul>
  10bea6:	e9cd 0102 	strd	r0, r1, [sp, #8]
  10beaa:	e7c0      	b.n	10be2e <_dtoa_r+0x50e>
  10beac:	0010e9c8 	.word	0x0010e9c8
  10beb0:	0010eaa0 	.word	0x0010eaa0
  10beb4:	3ff00000 	.word	0x3ff00000
  10beb8:	40240000 	.word	0x40240000
  10bebc:	401c0000 	.word	0x401c0000
  10bec0:	40140000 	.word	0x40140000
  10bec4:	3fe00000 	.word	0x3fe00000
  10bec8:	e9dd 340e 	ldrd	r3, r4, [sp, #56]	; 0x38
  10becc:	e9cd 3402 	strd	r3, r4, [sp, #8]
  10bed0:	9b13      	ldr	r3, [sp, #76]	; 0x4c
  10bed2:	2b00      	cmp	r3, #0
  10bed4:	db7c      	blt.n	10bfd0 <_dtoa_r+0x6b0>
  10bed6:	f1bb 0f0e 	cmp.w	r11, #14
  10beda:	dc79      	bgt.n	10bfd0 <_dtoa_r+0x6b0>
  10bedc:	4bab      	ldr	r3, [pc, #684]	; (10c18c <_dtoa_r+0x86c>)
  10bede:	eb03 03cb 	add.w	r3, r3, r11, lsl #3
  10bee2:	e9d3 6700 	ldrd	r6, r7, [r3]
  10bee6:	9b1f      	ldr	r3, [sp, #124]	; 0x7c
  10bee8:	2b00      	cmp	r3, #0
  10beea:	da14      	bge.n	10bf16 <_dtoa_r+0x5f6>
  10beec:	9b05      	ldr	r3, [sp, #20]
  10beee:	2b00      	cmp	r3, #0
  10bef0:	dc11      	bgt.n	10bf16 <_dtoa_r+0x5f6>
  10bef2:	f040 816c 	bne.w	10c1ce <_dtoa_r+0x8ae>
  10bef6:	2200      	movs	r2, #0
  10bef8:	4ba5      	ldr	r3, [pc, #660]	; (10c190 <_dtoa_r+0x870>)
  10befa:	4630      	mov	r0, r6
  10befc:	4639      	mov	r1, r7
  10befe:	f001 fd61 	bl	10d9c4 <__aeabi_dmul>
  10bf02:	e9dd 2302 	ldrd	r2, r3, [sp, #8]
  10bf06:	f7fc fabb 	bl	108480 <__aeabi_dcmpge>
  10bf0a:	9d05      	ldr	r5, [sp, #20]
  10bf0c:	462e      	mov	r6, r5
  10bf0e:	2800      	cmp	r0, #0
  10bf10:	f040 815f 	bne.w	10c1d2 <_dtoa_r+0x8b2>
  10bf14:	e165      	b.n	10c1e2 <_dtoa_r+0x8c2>
  10bf16:	9c06      	ldr	r4, [sp, #24]
  10bf18:	e9dd 8902 	ldrd	r8, r9, [sp, #8]
  10bf1c:	4632      	mov	r2, r6
  10bf1e:	463b      	mov	r3, r7
  10bf20:	4640      	mov	r0, r8
  10bf22:	4649      	mov	r1, r9
  10bf24:	f001 fe78 	bl	10dc18 <__aeabi_ddiv>
  10bf28:	f001 ff5e 	bl	10dde8 <__aeabi_d2iz>
  10bf2c:	4605      	mov	r5, r0
  10bf2e:	f7fc f9cd 	bl	1082cc <__aeabi_i2d>
  10bf32:	4632      	mov	r2, r6
  10bf34:	463b      	mov	r3, r7
  10bf36:	f001 fd45 	bl	10d9c4 <__aeabi_dmul>
  10bf3a:	460b      	mov	r3, r1
  10bf3c:	4602      	mov	r2, r0
  10bf3e:	4649      	mov	r1, r9
  10bf40:	4640      	mov	r0, r8
  10bf42:	f7fc f875 	bl	108030 <__aeabi_dsub>
  10bf46:	f105 0e30 	add.w	lr, r5, #48	; 0x30
  10bf4a:	9b06      	ldr	r3, [sp, #24]
  10bf4c:	f804 eb01 	strb.w	lr, [r4], #1
  10bf50:	ebc3 0e04 	rsb	lr, r3, r4
  10bf54:	9b05      	ldr	r3, [sp, #20]
  10bf56:	4573      	cmp	r3, lr
  10bf58:	d12d      	bne.n	10bfb6 <_dtoa_r+0x696>
  10bf5a:	4602      	mov	r2, r0
  10bf5c:	460b      	mov	r3, r1
  10bf5e:	f7fc f869 	bl	108034 <__adddf3>
  10bf62:	4680      	mov	r8, r0
  10bf64:	4689      	mov	r9, r1
  10bf66:	4602      	mov	r2, r0
  10bf68:	460b      	mov	r3, r1
  10bf6a:	4630      	mov	r0, r6
  10bf6c:	4639      	mov	r1, r7
  10bf6e:	f7fc fa73 	bl	108458 <__aeabi_dcmplt>
  10bf72:	b978      	cbnz	r0, 10bf94 <_dtoa_r+0x674>
  10bf74:	4642      	mov	r2, r8
  10bf76:	464b      	mov	r3, r9
  10bf78:	4630      	mov	r0, r6
  10bf7a:	4639      	mov	r1, r7
  10bf7c:	f7fc fa62 	bl	108444 <__aeabi_dcmpeq>
  10bf80:	2800      	cmp	r0, #0
  10bf82:	f000 8244 	beq.w	10c40e <_dtoa_r+0xaee>
  10bf86:	07eb      	lsls	r3, r5, #31
  10bf88:	d404      	bmi.n	10bf94 <_dtoa_r+0x674>
  10bf8a:	e240      	b.n	10c40e <_dtoa_r+0xaee>
  10bf8c:	f8dd b020 	ldr.w	r11, [sp, #32]
  10bf90:	e000      	b.n	10bf94 <_dtoa_r+0x674>
  10bf92:	461c      	mov	r4, r3
  10bf94:	f814 2c01 	ldrb.w	r2, [r4, #-1]
  10bf98:	1e63      	subs	r3, r4, #1
  10bf9a:	2a39      	cmp	r2, #57	; 0x39
  10bf9c:	d107      	bne.n	10bfae <_dtoa_r+0x68e>
  10bf9e:	9a06      	ldr	r2, [sp, #24]
  10bfa0:	429a      	cmp	r2, r3
  10bfa2:	d1f6      	bne.n	10bf92 <_dtoa_r+0x672>
  10bfa4:	9906      	ldr	r1, [sp, #24]
  10bfa6:	2230      	movs	r2, #48	; 0x30
  10bfa8:	f10b 0b01 	add.w	r11, r11, #1
  10bfac:	700a      	strb	r2, [r1, #0]
  10bfae:	781a      	ldrb	r2, [r3, #0]
  10bfb0:	3201      	adds	r2, #1
  10bfb2:	701a      	strb	r2, [r3, #0]
  10bfb4:	e22b      	b.n	10c40e <_dtoa_r+0xaee>
  10bfb6:	2200      	movs	r2, #0
  10bfb8:	4b76      	ldr	r3, [pc, #472]	; (10c194 <_dtoa_r+0x874>)
  10bfba:	f001 fd03 	bl	10d9c4 <__aeabi_dmul>
  10bfbe:	2200      	movs	r2, #0
  10bfc0:	2300      	movs	r3, #0
  10bfc2:	4680      	mov	r8, r0
  10bfc4:	4689      	mov	r9, r1
  10bfc6:	f7fc fa3d 	bl	108444 <__aeabi_dcmpeq>
  10bfca:	2800      	cmp	r0, #0
  10bfcc:	d0a6      	beq.n	10bf1c <_dtoa_r+0x5fc>
  10bfce:	e21e      	b.n	10c40e <_dtoa_r+0xaee>
  10bfd0:	9a0a      	ldr	r2, [sp, #40]	; 0x28
  10bfd2:	2a00      	cmp	r2, #0
  10bfd4:	d02b      	beq.n	10c02e <_dtoa_r+0x70e>
  10bfd6:	9a1e      	ldr	r2, [sp, #120]	; 0x78
  10bfd8:	2a01      	cmp	r2, #1
  10bfda:	dc0a      	bgt.n	10bff2 <_dtoa_r+0x6d2>
  10bfdc:	9a11      	ldr	r2, [sp, #68]	; 0x44
  10bfde:	b112      	cbz	r2, 10bfe6 <_dtoa_r+0x6c6>
  10bfe0:	f203 4333 	addw	r3, r3, #1075	; 0x433
  10bfe4:	e002      	b.n	10bfec <_dtoa_r+0x6cc>
  10bfe6:	9b12      	ldr	r3, [sp, #72]	; 0x48
  10bfe8:	f1c3 0336 	rsb	r3, r3, #54	; 0x36
  10bfec:	463d      	mov	r5, r7
  10bfee:	4644      	mov	r4, r8
  10bff0:	e013      	b.n	10c01a <_dtoa_r+0x6fa>
  10bff2:	9b05      	ldr	r3, [sp, #20]
  10bff4:	1e5d      	subs	r5, r3, #1
  10bff6:	42af      	cmp	r7, r5
  10bff8:	bfbf      	itttt	lt
  10bffa:	9b0b      	ldrlt	r3, [sp, #44]	; 0x2c
  10bffc:	1bea      	sublt	r2, r5, r7
  10bffe:	189b      	addlt	r3, r3, r2
  10c000:	930b      	strlt	r3, [sp, #44]	; 0x2c
  10c002:	9b05      	ldr	r3, [sp, #20]
  10c004:	bfb6      	itet	lt
  10c006:	462f      	movlt	r7, r5
  10c008:	1b7d      	subge	r5, r7, r5
  10c00a:	2500      	movlt	r5, #0
  10c00c:	2b00      	cmp	r3, #0
  10c00e:	bfa7      	ittee	ge
  10c010:	4644      	movge	r4, r8
  10c012:	9b05      	ldrge	r3, [sp, #20]
  10c014:	ebc3 0408 	rsblt	r4, r3, r8
  10c018:	2300      	movlt	r3, #0
  10c01a:	9a07      	ldr	r2, [sp, #28]
  10c01c:	2101      	movs	r1, #1
  10c01e:	441a      	add	r2, r3
  10c020:	4650      	mov	r0, r10
  10c022:	4498      	add	r8, r3
  10c024:	9207      	str	r2, [sp, #28]
  10c026:	f000 feaf 	bl	10cd88 <__i2b>
  10c02a:	4606      	mov	r6, r0
  10c02c:	e002      	b.n	10c034 <_dtoa_r+0x714>
  10c02e:	463d      	mov	r5, r7
  10c030:	4644      	mov	r4, r8
  10c032:	9e0a      	ldr	r6, [sp, #40]	; 0x28
  10c034:	b15c      	cbz	r4, 10c04e <_dtoa_r+0x72e>
  10c036:	9b07      	ldr	r3, [sp, #28]
  10c038:	2b00      	cmp	r3, #0
  10c03a:	dd08      	ble.n	10c04e <_dtoa_r+0x72e>
  10c03c:	42a3      	cmp	r3, r4
  10c03e:	bfa8      	it	ge
  10c040:	4623      	movge	r3, r4
  10c042:	9a07      	ldr	r2, [sp, #28]
  10c044:	ebc3 0808 	rsb	r8, r3, r8
  10c048:	1ae4      	subs	r4, r4, r3
  10c04a:	1ad3      	subs	r3, r2, r3
  10c04c:	9307      	str	r3, [sp, #28]
  10c04e:	2f00      	cmp	r7, #0
  10c050:	dd1d      	ble.n	10c08e <_dtoa_r+0x76e>
  10c052:	9b0a      	ldr	r3, [sp, #40]	; 0x28
  10c054:	b1ab      	cbz	r3, 10c082 <_dtoa_r+0x762>
  10c056:	b18d      	cbz	r5, 10c07c <_dtoa_r+0x75c>
  10c058:	4631      	mov	r1, r6
  10c05a:	462a      	mov	r2, r5
  10c05c:	4650      	mov	r0, r10
  10c05e:	f000 ff2d 	bl	10cebc <__pow5mult>
  10c062:	9a04      	ldr	r2, [sp, #16]
  10c064:	4601      	mov	r1, r0
  10c066:	4606      	mov	r6, r0
  10c068:	4650      	mov	r0, r10
  10c06a:	f000 fe96 	bl	10cd9a <__multiply>
  10c06e:	9904      	ldr	r1, [sp, #16]
  10c070:	9008      	str	r0, [sp, #32]
  10c072:	4650      	mov	r0, r10
  10c074:	f000 fdab 	bl	10cbce <_Bfree>
  10c078:	9b08      	ldr	r3, [sp, #32]
  10c07a:	9304      	str	r3, [sp, #16]
  10c07c:	1b7a      	subs	r2, r7, r5
  10c07e:	d006      	beq.n	10c08e <_dtoa_r+0x76e>
  10c080:	e000      	b.n	10c084 <_dtoa_r+0x764>
  10c082:	463a      	mov	r2, r7
  10c084:	9904      	ldr	r1, [sp, #16]
  10c086:	4650      	mov	r0, r10
  10c088:	f000 ff18 	bl	10cebc <__pow5mult>
  10c08c:	9004      	str	r0, [sp, #16]
  10c08e:	2101      	movs	r1, #1
  10c090:	4650      	mov	r0, r10
  10c092:	f000 fe79 	bl	10cd88 <__i2b>
  10c096:	9b0b      	ldr	r3, [sp, #44]	; 0x2c
  10c098:	4605      	mov	r5, r0
  10c09a:	b35b      	cbz	r3, 10c0f4 <_dtoa_r+0x7d4>
  10c09c:	461a      	mov	r2, r3
  10c09e:	4601      	mov	r1, r0
  10c0a0:	4650      	mov	r0, r10
  10c0a2:	f000 ff0b 	bl	10cebc <__pow5mult>
  10c0a6:	9b1e      	ldr	r3, [sp, #120]	; 0x78
  10c0a8:	4605      	mov	r5, r0
  10c0aa:	2b01      	cmp	r3, #1
  10c0ac:	dc18      	bgt.n	10c0e0 <_dtoa_r+0x7c0>
  10c0ae:	9b02      	ldr	r3, [sp, #8]
  10c0b0:	b983      	cbnz	r3, 10c0d4 <_dtoa_r+0x7b4>
  10c0b2:	9b03      	ldr	r3, [sp, #12]
  10c0b4:	f3c3 0313 	ubfx	r3, r3, #0, #20
  10c0b8:	b973      	cbnz	r3, 10c0d8 <_dtoa_r+0x7b8>
  10c0ba:	9b03      	ldr	r3, [sp, #12]
  10c0bc:	f023 4700 	bic.w	r7, r3, #2147483648	; 0x80000000
  10c0c0:	0d3f      	lsrs	r7, r7, #20
  10c0c2:	053f      	lsls	r7, r7, #20
  10c0c4:	b14f      	cbz	r7, 10c0da <_dtoa_r+0x7ba>
  10c0c6:	9b07      	ldr	r3, [sp, #28]
  10c0c8:	f108 0801 	add.w	r8, r8, #1
  10c0cc:	3301      	adds	r3, #1
  10c0ce:	9307      	str	r3, [sp, #28]
  10c0d0:	2701      	movs	r7, #1
  10c0d2:	e002      	b.n	10c0da <_dtoa_r+0x7ba>
  10c0d4:	2700      	movs	r7, #0
  10c0d6:	e000      	b.n	10c0da <_dtoa_r+0x7ba>
  10c0d8:	9f02      	ldr	r7, [sp, #8]
  10c0da:	9b0b      	ldr	r3, [sp, #44]	; 0x2c
  10c0dc:	b173      	cbz	r3, 10c0fc <_dtoa_r+0x7dc>
  10c0de:	e000      	b.n	10c0e2 <_dtoa_r+0x7c2>
  10c0e0:	2700      	movs	r7, #0
  10c0e2:	692b      	ldr	r3, [r5, #16]
  10c0e4:	eb05 0383 	add.w	r3, r5, r3, lsl #2
  10c0e8:	6918      	ldr	r0, [r3, #16]
  10c0ea:	f000 fe00 	bl	10ccee <__hi0bits>
  10c0ee:	f1c0 0020 	rsb	r0, r0, #32
  10c0f2:	e004      	b.n	10c0fe <_dtoa_r+0x7de>
  10c0f4:	9b1e      	ldr	r3, [sp, #120]	; 0x78
  10c0f6:	2b01      	cmp	r3, #1
  10c0f8:	ddd9      	ble.n	10c0ae <_dtoa_r+0x78e>
  10c0fa:	9f0b      	ldr	r7, [sp, #44]	; 0x2c
  10c0fc:	2001      	movs	r0, #1
  10c0fe:	9b07      	ldr	r3, [sp, #28]
  10c100:	4418      	add	r0, r3
  10c102:	f010 001f 	ands.w	r0, r0, #31
  10c106:	d008      	beq.n	10c11a <_dtoa_r+0x7fa>
  10c108:	f1c0 0320 	rsb	r3, r0, #32
  10c10c:	2b04      	cmp	r3, #4
  10c10e:	dd02      	ble.n	10c116 <_dtoa_r+0x7f6>
  10c110:	f1c0 001c 	rsb	r0, r0, #28
  10c114:	e002      	b.n	10c11c <_dtoa_r+0x7fc>
  10c116:	d006      	beq.n	10c126 <_dtoa_r+0x806>
  10c118:	4618      	mov	r0, r3
  10c11a:	301c      	adds	r0, #28
  10c11c:	9b07      	ldr	r3, [sp, #28]
  10c11e:	4480      	add	r8, r0
  10c120:	4403      	add	r3, r0
  10c122:	4404      	add	r4, r0
  10c124:	9307      	str	r3, [sp, #28]
  10c126:	f1b8 0f00 	cmp.w	r8, #0
  10c12a:	dd05      	ble.n	10c138 <_dtoa_r+0x818>
  10c12c:	4642      	mov	r2, r8
  10c12e:	9904      	ldr	r1, [sp, #16]
  10c130:	4650      	mov	r0, r10
  10c132:	f000 ff11 	bl	10cf58 <__lshift>
  10c136:	9004      	str	r0, [sp, #16]
  10c138:	9b07      	ldr	r3, [sp, #28]
  10c13a:	2b00      	cmp	r3, #0
  10c13c:	dd05      	ble.n	10c14a <_dtoa_r+0x82a>
  10c13e:	4629      	mov	r1, r5
  10c140:	461a      	mov	r2, r3
  10c142:	4650      	mov	r0, r10
  10c144:	f000 ff08 	bl	10cf58 <__lshift>
  10c148:	4605      	mov	r5, r0
  10c14a:	9b10      	ldr	r3, [sp, #64]	; 0x40
  10c14c:	b323      	cbz	r3, 10c198 <_dtoa_r+0x878>
  10c14e:	4629      	mov	r1, r5
  10c150:	9804      	ldr	r0, [sp, #16]
  10c152:	f000 ff52 	bl	10cffa <__mcmp>
  10c156:	2800      	cmp	r0, #0
  10c158:	da1e      	bge.n	10c198 <_dtoa_r+0x878>
  10c15a:	2300      	movs	r3, #0
  10c15c:	220a      	movs	r2, #10
  10c15e:	9904      	ldr	r1, [sp, #16]
  10c160:	4650      	mov	r0, r10
  10c162:	f000 fd4b 	bl	10cbfc <__multadd>
  10c166:	9b0a      	ldr	r3, [sp, #40]	; 0x28
  10c168:	f10b 3bff 	add.w	r11, r11, #4294967295
  10c16c:	9004      	str	r0, [sp, #16]
  10c16e:	2b00      	cmp	r3, #0
  10c170:	f000 815f 	beq.w	10c432 <_dtoa_r+0xb12>
  10c174:	4631      	mov	r1, r6
  10c176:	2300      	movs	r3, #0
  10c178:	220a      	movs	r2, #10
  10c17a:	4650      	mov	r0, r10
  10c17c:	f000 fd3e 	bl	10cbfc <__multadd>
  10c180:	f1b9 0f00 	cmp.w	r9, #0
  10c184:	4606      	mov	r6, r0
  10c186:	dc3f      	bgt.n	10c208 <_dtoa_r+0x8e8>
  10c188:	e03b      	b.n	10c202 <_dtoa_r+0x8e2>
  10c18a:	bf00      	nop
  10c18c:	0010e9c8 	.word	0x0010e9c8
  10c190:	40140000 	.word	0x40140000
  10c194:	40240000 	.word	0x40240000
  10c198:	9b05      	ldr	r3, [sp, #20]
  10c19a:	2b00      	cmp	r3, #0
  10c19c:	dc2b      	bgt.n	10c1f6 <_dtoa_r+0x8d6>
  10c19e:	9b1e      	ldr	r3, [sp, #120]	; 0x78
  10c1a0:	2b02      	cmp	r3, #2
  10c1a2:	dd28      	ble.n	10c1f6 <_dtoa_r+0x8d6>
  10c1a4:	f8dd 9014 	ldr.w	r9, [sp, #20]
  10c1a8:	f1b9 0f00 	cmp.w	r9, #0
  10c1ac:	d111      	bne.n	10c1d2 <_dtoa_r+0x8b2>
  10c1ae:	4629      	mov	r1, r5
  10c1b0:	464b      	mov	r3, r9
  10c1b2:	2205      	movs	r2, #5
  10c1b4:	4650      	mov	r0, r10
  10c1b6:	f000 fd21 	bl	10cbfc <__multadd>
  10c1ba:	4601      	mov	r1, r0
  10c1bc:	4605      	mov	r5, r0
  10c1be:	9804      	ldr	r0, [sp, #16]
  10c1c0:	f000 ff1b 	bl	10cffa <__mcmp>
  10c1c4:	2800      	cmp	r0, #0
  10c1c6:	dc0c      	bgt.n	10c1e2 <_dtoa_r+0x8c2>
  10c1c8:	e003      	b.n	10c1d2 <_dtoa_r+0x8b2>
  10c1ca:	4635      	mov	r5, r6
  10c1cc:	e000      	b.n	10c1d0 <_dtoa_r+0x8b0>
  10c1ce:	2500      	movs	r5, #0
  10c1d0:	462e      	mov	r6, r5
  10c1d2:	9b1f      	ldr	r3, [sp, #124]	; 0x7c
  10c1d4:	9c06      	ldr	r4, [sp, #24]
  10c1d6:	ea6f 0b03 	mvn.w	r11, r3
  10c1da:	e009      	b.n	10c1f0 <_dtoa_r+0x8d0>
  10c1dc:	4635      	mov	r5, r6
  10c1de:	f8dd b020 	ldr.w	r11, [sp, #32]
  10c1e2:	9b06      	ldr	r3, [sp, #24]
  10c1e4:	9a06      	ldr	r2, [sp, #24]
  10c1e6:	1c5c      	adds	r4, r3, #1
  10c1e8:	2331      	movs	r3, #49	; 0x31
  10c1ea:	7013      	strb	r3, [r2, #0]
  10c1ec:	f10b 0b01 	add.w	r11, r11, #1
  10c1f0:	9605      	str	r6, [sp, #20]
  10c1f2:	2600      	movs	r6, #0
  10c1f4:	e0f7      	b.n	10c3e6 <_dtoa_r+0xac6>
  10c1f6:	9b0a      	ldr	r3, [sp, #40]	; 0x28
  10c1f8:	f8dd 9014 	ldr.w	r9, [sp, #20]
  10c1fc:	b923      	cbnz	r3, 10c208 <_dtoa_r+0x8e8>
  10c1fe:	9c06      	ldr	r4, [sp, #24]
  10c200:	e0b2      	b.n	10c368 <_dtoa_r+0xa48>
  10c202:	9b1e      	ldr	r3, [sp, #120]	; 0x78
  10c204:	2b02      	cmp	r3, #2
  10c206:	dccf      	bgt.n	10c1a8 <_dtoa_r+0x888>
  10c208:	2c00      	cmp	r4, #0
  10c20a:	dd05      	ble.n	10c218 <_dtoa_r+0x8f8>
  10c20c:	4631      	mov	r1, r6
  10c20e:	4622      	mov	r2, r4
  10c210:	4650      	mov	r0, r10
  10c212:	f000 fea1 	bl	10cf58 <__lshift>
  10c216:	4606      	mov	r6, r0
  10c218:	b19f      	cbz	r7, 10c242 <_dtoa_r+0x922>
  10c21a:	6871      	ldr	r1, [r6, #4]
  10c21c:	4650      	mov	r0, r10
  10c21e:	f000 fca1 	bl	10cb64 <_Balloc>
  10c222:	4604      	mov	r4, r0
  10c224:	6932      	ldr	r2, [r6, #16]
  10c226:	f106 010c 	add.w	r1, r6, #12
  10c22a:	3202      	adds	r2, #2
  10c22c:	0092      	lsls	r2, r2, #2
  10c22e:	300c      	adds	r0, #12
  10c230:	f7fc fec0 	bl	108fb4 <memcpy>
  10c234:	2201      	movs	r2, #1
  10c236:	4621      	mov	r1, r4
  10c238:	4650      	mov	r0, r10
  10c23a:	f000 fe8d 	bl	10cf58 <__lshift>
  10c23e:	9005      	str	r0, [sp, #20]
  10c240:	e000      	b.n	10c244 <_dtoa_r+0x924>
  10c242:	9605      	str	r6, [sp, #20]
  10c244:	9b02      	ldr	r3, [sp, #8]
  10c246:	9f06      	ldr	r7, [sp, #24]
  10c248:	f003 0301 	and.w	r3, r3, #1
  10c24c:	9307      	str	r3, [sp, #28]
  10c24e:	4629      	mov	r1, r5
  10c250:	9804      	ldr	r0, [sp, #16]
  10c252:	f7ff fad7 	bl	10b804 <quorem>
  10c256:	4631      	mov	r1, r6
  10c258:	4604      	mov	r4, r0
  10c25a:	f100 0830 	add.w	r8, r0, #48	; 0x30
  10c25e:	9804      	ldr	r0, [sp, #16]
  10c260:	f000 fecb 	bl	10cffa <__mcmp>
  10c264:	9a05      	ldr	r2, [sp, #20]
  10c266:	9002      	str	r0, [sp, #8]
  10c268:	4629      	mov	r1, r5
  10c26a:	4650      	mov	r0, r10
  10c26c:	f000 fee1 	bl	10d032 <__mdiff>
  10c270:	68c3      	ldr	r3, [r0, #12]
  10c272:	4602      	mov	r2, r0
  10c274:	b93b      	cbnz	r3, 10c286 <_dtoa_r+0x966>
  10c276:	4601      	mov	r1, r0
  10c278:	900a      	str	r0, [sp, #40]	; 0x28
  10c27a:	9804      	ldr	r0, [sp, #16]
  10c27c:	f000 febd 	bl	10cffa <__mcmp>
  10c280:	9a0a      	ldr	r2, [sp, #40]	; 0x28
  10c282:	4603      	mov	r3, r0
  10c284:	e000      	b.n	10c288 <_dtoa_r+0x968>
  10c286:	2301      	movs	r3, #1
  10c288:	4611      	mov	r1, r2
  10c28a:	4650      	mov	r0, r10
  10c28c:	930a      	str	r3, [sp, #40]	; 0x28
  10c28e:	f000 fc9e 	bl	10cbce <_Bfree>
  10c292:	9b0a      	ldr	r3, [sp, #40]	; 0x28
  10c294:	b953      	cbnz	r3, 10c2ac <_dtoa_r+0x98c>
  10c296:	9a1e      	ldr	r2, [sp, #120]	; 0x78
  10c298:	b942      	cbnz	r2, 10c2ac <_dtoa_r+0x98c>
  10c29a:	9a07      	ldr	r2, [sp, #28]
  10c29c:	b932      	cbnz	r2, 10c2ac <_dtoa_r+0x98c>
  10c29e:	f1b8 0f39 	cmp.w	r8, #57	; 0x39
  10c2a2:	d02a      	beq.n	10c2fa <_dtoa_r+0x9da>
  10c2a4:	9b02      	ldr	r3, [sp, #8]
  10c2a6:	2b00      	cmp	r3, #0
  10c2a8:	dc1c      	bgt.n	10c2e4 <_dtoa_r+0x9c4>
  10c2aa:	e01d      	b.n	10c2e8 <_dtoa_r+0x9c8>
  10c2ac:	9a02      	ldr	r2, [sp, #8]
  10c2ae:	2a00      	cmp	r2, #0
  10c2b0:	db04      	blt.n	10c2bc <_dtoa_r+0x99c>
  10c2b2:	d11b      	bne.n	10c2ec <_dtoa_r+0x9cc>
  10c2b4:	9a1e      	ldr	r2, [sp, #120]	; 0x78
  10c2b6:	b9ca      	cbnz	r2, 10c2ec <_dtoa_r+0x9cc>
  10c2b8:	9a07      	ldr	r2, [sp, #28]
  10c2ba:	b9ba      	cbnz	r2, 10c2ec <_dtoa_r+0x9cc>
  10c2bc:	2b00      	cmp	r3, #0
  10c2be:	dd13      	ble.n	10c2e8 <_dtoa_r+0x9c8>
  10c2c0:	2201      	movs	r2, #1
  10c2c2:	9904      	ldr	r1, [sp, #16]
  10c2c4:	4650      	mov	r0, r10
  10c2c6:	f000 fe47 	bl	10cf58 <__lshift>
  10c2ca:	4629      	mov	r1, r5
  10c2cc:	9004      	str	r0, [sp, #16]
  10c2ce:	f000 fe94 	bl	10cffa <__mcmp>
  10c2d2:	2800      	cmp	r0, #0
  10c2d4:	dc03      	bgt.n	10c2de <_dtoa_r+0x9be>
  10c2d6:	d107      	bne.n	10c2e8 <_dtoa_r+0x9c8>
  10c2d8:	f018 0f01 	tst.w	r8, #1
  10c2dc:	d004      	beq.n	10c2e8 <_dtoa_r+0x9c8>
  10c2de:	f1b8 0f39 	cmp.w	r8, #57	; 0x39
  10c2e2:	d00a      	beq.n	10c2fa <_dtoa_r+0x9da>
  10c2e4:	f104 0831 	add.w	r8, r4, #49	; 0x31
  10c2e8:	1c7c      	adds	r4, r7, #1
  10c2ea:	e00c      	b.n	10c306 <_dtoa_r+0x9e6>
  10c2ec:	2b00      	cmp	r3, #0
  10c2ee:	f107 0401 	add.w	r4, r7, #1
  10c2f2:	dd0b      	ble.n	10c30c <_dtoa_r+0x9ec>
  10c2f4:	f1b8 0f39 	cmp.w	r8, #57	; 0x39
  10c2f8:	d103      	bne.n	10c302 <_dtoa_r+0x9e2>
  10c2fa:	2339      	movs	r3, #57	; 0x39
  10c2fc:	703b      	strb	r3, [r7, #0]
  10c2fe:	3701      	adds	r7, #1
  10c300:	e056      	b.n	10c3b0 <_dtoa_r+0xa90>
  10c302:	f108 0801 	add.w	r8, r8, #1
  10c306:	f887 8000 	strb.w	r8, [r7]
  10c30a:	e06c      	b.n	10c3e6 <_dtoa_r+0xac6>
  10c30c:	9b06      	ldr	r3, [sp, #24]
  10c30e:	4627      	mov	r7, r4
  10c310:	1ae3      	subs	r3, r4, r3
  10c312:	454b      	cmp	r3, r9
  10c314:	f804 8c01 	strb.w	r8, [r4, #-1]
  10c318:	d03b      	beq.n	10c392 <_dtoa_r+0xa72>
  10c31a:	2300      	movs	r3, #0
  10c31c:	220a      	movs	r2, #10
  10c31e:	9904      	ldr	r1, [sp, #16]
  10c320:	4650      	mov	r0, r10
  10c322:	f000 fc6b 	bl	10cbfc <__multadd>
  10c326:	9b05      	ldr	r3, [sp, #20]
  10c328:	9004      	str	r0, [sp, #16]
  10c32a:	429e      	cmp	r6, r3
  10c32c:	f04f 020a 	mov.w	r2, #10
  10c330:	f04f 0300 	mov.w	r3, #0
  10c334:	4631      	mov	r1, r6
  10c336:	4650      	mov	r0, r10
  10c338:	d104      	bne.n	10c344 <_dtoa_r+0xa24>
  10c33a:	f000 fc5f 	bl	10cbfc <__multadd>
  10c33e:	4606      	mov	r6, r0
  10c340:	9005      	str	r0, [sp, #20]
  10c342:	e784      	b.n	10c24e <_dtoa_r+0x92e>
  10c344:	f000 fc5a 	bl	10cbfc <__multadd>
  10c348:	2300      	movs	r3, #0
  10c34a:	4606      	mov	r6, r0
  10c34c:	220a      	movs	r2, #10
  10c34e:	9905      	ldr	r1, [sp, #20]
  10c350:	4650      	mov	r0, r10
  10c352:	f000 fc53 	bl	10cbfc <__multadd>
  10c356:	9005      	str	r0, [sp, #20]
  10c358:	e779      	b.n	10c24e <_dtoa_r+0x92e>
  10c35a:	2300      	movs	r3, #0
  10c35c:	220a      	movs	r2, #10
  10c35e:	9904      	ldr	r1, [sp, #16]
  10c360:	4650      	mov	r0, r10
  10c362:	f000 fc4b 	bl	10cbfc <__multadd>
  10c366:	9004      	str	r0, [sp, #16]
  10c368:	4629      	mov	r1, r5
  10c36a:	9804      	ldr	r0, [sp, #16]
  10c36c:	f7ff fa4a 	bl	10b804 <quorem>
  10c370:	9b06      	ldr	r3, [sp, #24]
  10c372:	f100 0830 	add.w	r8, r0, #48	; 0x30
  10c376:	f804 8b01 	strb.w	r8, [r4], #1
  10c37a:	1ae3      	subs	r3, r4, r3
  10c37c:	454b      	cmp	r3, r9
  10c37e:	dbec      	blt.n	10c35a <_dtoa_r+0xa3a>
  10c380:	9b06      	ldr	r3, [sp, #24]
  10c382:	9605      	str	r6, [sp, #20]
  10c384:	f1b9 0f01 	cmp.w	r9, #1
  10c388:	bfac      	ite	ge
  10c38a:	444b      	addge	r3, r9
  10c38c:	3301      	addlt	r3, #1
  10c38e:	461f      	mov	r7, r3
  10c390:	2600      	movs	r6, #0
  10c392:	2201      	movs	r2, #1
  10c394:	9904      	ldr	r1, [sp, #16]
  10c396:	4650      	mov	r0, r10
  10c398:	f000 fdde 	bl	10cf58 <__lshift>
  10c39c:	4629      	mov	r1, r5
  10c39e:	9004      	str	r0, [sp, #16]
  10c3a0:	f000 fe2b 	bl	10cffa <__mcmp>
  10c3a4:	2800      	cmp	r0, #0
  10c3a6:	dc03      	bgt.n	10c3b0 <_dtoa_r+0xa90>
  10c3a8:	d115      	bne.n	10c3d6 <_dtoa_r+0xab6>
  10c3aa:	f018 0f01 	tst.w	r8, #1
  10c3ae:	d012      	beq.n	10c3d6 <_dtoa_r+0xab6>
  10c3b0:	463c      	mov	r4, r7
  10c3b2:	f814 3c01 	ldrb.w	r3, [r4, #-1]
  10c3b6:	1e62      	subs	r2, r4, #1
  10c3b8:	2b39      	cmp	r3, #57	; 0x39
  10c3ba:	d109      	bne.n	10c3d0 <_dtoa_r+0xab0>
  10c3bc:	9b06      	ldr	r3, [sp, #24]
  10c3be:	4293      	cmp	r3, r2
  10c3c0:	d104      	bne.n	10c3cc <_dtoa_r+0xaac>
  10c3c2:	f10b 0b01 	add.w	r11, r11, #1
  10c3c6:	2331      	movs	r3, #49	; 0x31
  10c3c8:	9a06      	ldr	r2, [sp, #24]
  10c3ca:	e002      	b.n	10c3d2 <_dtoa_r+0xab2>
  10c3cc:	4614      	mov	r4, r2
  10c3ce:	e7f0      	b.n	10c3b2 <_dtoa_r+0xa92>
  10c3d0:	3301      	adds	r3, #1
  10c3d2:	7013      	strb	r3, [r2, #0]
  10c3d4:	e007      	b.n	10c3e6 <_dtoa_r+0xac6>
  10c3d6:	463c      	mov	r4, r7
  10c3d8:	f814 3c01 	ldrb.w	r3, [r4, #-1]
  10c3dc:	1e62      	subs	r2, r4, #1
  10c3de:	2b30      	cmp	r3, #48	; 0x30
  10c3e0:	d101      	bne.n	10c3e6 <_dtoa_r+0xac6>
  10c3e2:	4614      	mov	r4, r2
  10c3e4:	e7f8      	b.n	10c3d8 <_dtoa_r+0xab8>
  10c3e6:	4629      	mov	r1, r5
  10c3e8:	4650      	mov	r0, r10
  10c3ea:	f000 fbf0 	bl	10cbce <_Bfree>
  10c3ee:	9b05      	ldr	r3, [sp, #20]
  10c3f0:	b16b      	cbz	r3, 10c40e <_dtoa_r+0xaee>
  10c3f2:	b12e      	cbz	r6, 10c400 <_dtoa_r+0xae0>
  10c3f4:	429e      	cmp	r6, r3
  10c3f6:	d003      	beq.n	10c400 <_dtoa_r+0xae0>
  10c3f8:	4631      	mov	r1, r6
  10c3fa:	4650      	mov	r0, r10
  10c3fc:	f000 fbe7 	bl	10cbce <_Bfree>
  10c400:	9905      	ldr	r1, [sp, #20]
  10c402:	4650      	mov	r0, r10
  10c404:	f000 fbe3 	bl	10cbce <_Bfree>
  10c408:	e001      	b.n	10c40e <_dtoa_r+0xaee>
  10c40a:	f8dd b020 	ldr.w	r11, [sp, #32]
  10c40e:	9904      	ldr	r1, [sp, #16]
  10c410:	4650      	mov	r0, r10
  10c412:	f000 fbdc 	bl	10cbce <_Bfree>
  10c416:	2300      	movs	r3, #0
  10c418:	9a20      	ldr	r2, [sp, #128]	; 0x80
  10c41a:	7023      	strb	r3, [r4, #0]
  10c41c:	f10b 0301 	add.w	r3, r11, #1
  10c420:	6013      	str	r3, [r2, #0]
  10c422:	9b22      	ldr	r3, [sp, #136]	; 0x88
  10c424:	b11b      	cbz	r3, 10c42e <_dtoa_r+0xb0e>
  10c426:	601c      	str	r4, [r3, #0]
  10c428:	e001      	b.n	10c42e <_dtoa_r+0xb0e>
  10c42a:	4808      	ldr	r0, [pc, #32]	; (10c44c <_dtoa_r+0xb2c>)
  10c42c:	e00a      	b.n	10c444 <_dtoa_r+0xb24>
  10c42e:	9806      	ldr	r0, [sp, #24]
  10c430:	e008      	b.n	10c444 <_dtoa_r+0xb24>
  10c432:	f1b9 0f00 	cmp.w	r9, #0
  10c436:	f73f aee2 	bgt.w	10c1fe <_dtoa_r+0x8de>
  10c43a:	9b1e      	ldr	r3, [sp, #120]	; 0x78
  10c43c:	2b02      	cmp	r3, #2
  10c43e:	f77f aede 	ble.w	10c1fe <_dtoa_r+0x8de>
  10c442:	e6b1      	b.n	10c1a8 <_dtoa_r+0x888>
  10c444:	b015      	add	sp, #84	; 0x54
  10c446:	e8bd 8ff0 	ldmia.w	sp!, {r4, r5, r6, r7, r8, r9, r10, r11, pc}
  10c44a:	bf00      	nop
  10c44c:	0010e95e 	.word	0x0010e95e

0010c450 <__sflags>:
  10c450:	780b      	ldrb	r3, [r1, #0]
  10c452:	b530      	push	{r4, r5, lr}
  10c454:	2b72      	cmp	r3, #114	; 0x72
  10c456:	d00e      	beq.n	10c476 <__sflags+0x26>
  10c458:	2b77      	cmp	r3, #119	; 0x77
  10c45a:	d007      	beq.n	10c46c <__sflags+0x1c>
  10c45c:	2b61      	cmp	r3, #97	; 0x61
  10c45e:	d10e      	bne.n	10c47e <__sflags+0x2e>
  10c460:	f44f 7402 	mov.w	r4, #520	; 0x208
  10c464:	2301      	movs	r3, #1
  10c466:	f44f 7084 	mov.w	r0, #264	; 0x108
  10c46a:	e01a      	b.n	10c4a2 <__sflags+0x52>
  10c46c:	f44f 64c0 	mov.w	r4, #1536	; 0x600
  10c470:	2301      	movs	r3, #1
  10c472:	2008      	movs	r0, #8
  10c474:	e015      	b.n	10c4a2 <__sflags+0x52>
  10c476:	2400      	movs	r4, #0
  10c478:	4623      	mov	r3, r4
  10c47a:	2004      	movs	r0, #4
  10c47c:	e011      	b.n	10c4a2 <__sflags+0x52>
  10c47e:	2316      	movs	r3, #22
  10c480:	6003      	str	r3, [r0, #0]
  10c482:	2000      	movs	r0, #0
  10c484:	bd30      	pop	{r4, r5, pc}
  10c486:	2d62      	cmp	r5, #98	; 0x62
  10c488:	d010      	beq.n	10c4ac <__sflags+0x5c>
  10c48a:	2d78      	cmp	r5, #120	; 0x78
  10c48c:	d011      	beq.n	10c4b2 <__sflags+0x62>
  10c48e:	2d2b      	cmp	r5, #43	; 0x2b
  10c490:	d107      	bne.n	10c4a2 <__sflags+0x52>
  10c492:	f020 001c 	bic.w	r0, r0, #28
  10c496:	f023 0303 	bic.w	r3, r3, #3
  10c49a:	f040 0010 	orr.w	r0, r0, #16
  10c49e:	f043 0302 	orr.w	r3, r3, #2
  10c4a2:	f811 5f01 	ldrb.w	r5, [r1, #1]!
  10c4a6:	2d00      	cmp	r5, #0
  10c4a8:	d1ed      	bne.n	10c486 <__sflags+0x36>
  10c4aa:	e005      	b.n	10c4b8 <__sflags+0x68>
  10c4ac:	f443 3380 	orr.w	r3, r3, #65536	; 0x10000
  10c4b0:	e7f7      	b.n	10c4a2 <__sflags+0x52>
  10c4b2:	f443 6300 	orr.w	r3, r3, #2048	; 0x800
  10c4b6:	e7f4      	b.n	10c4a2 <__sflags+0x52>
  10c4b8:	4323      	orrs	r3, r4
  10c4ba:	6013      	str	r3, [r2, #0]
  10c4bc:	bd30      	pop	{r4, r5, pc}
	...

0010c4c0 <_fstat_r>:
  10c4c0:	b538      	push	{r3, r4, r5, lr}
  10c4c2:	4c07      	ldr	r4, [pc, #28]	; (10c4e0 <_fstat_r+0x20>)
  10c4c4:	2300      	movs	r3, #0
  10c4c6:	4605      	mov	r5, r0
  10c4c8:	4608      	mov	r0, r1
  10c4ca:	4611      	mov	r1, r2
  10c4cc:	6023      	str	r3, [r4, #0]
  10c4ce:	f7fb f8bd 	bl	10764c <_fstat>
  10c4d2:	1c43      	adds	r3, r0, #1
  10c4d4:	d102      	bne.n	10c4dc <_fstat_r+0x1c>
  10c4d6:	6823      	ldr	r3, [r4, #0]
  10c4d8:	b103      	cbz	r3, 10c4dc <_fstat_r+0x1c>
  10c4da:	602b      	str	r3, [r5, #0]
  10c4dc:	bd38      	pop	{r3, r4, r5, pc}
  10c4de:	bf00      	nop
  10c4e0:	3fff5398 	.word	0x3fff5398

0010c4e4 <rshift>:
  10c4e4:	b5f0      	push	{r4, r5, r6, r7, lr}
  10c4e6:	6906      	ldr	r6, [r0, #16]
  10c4e8:	114b      	asrs	r3, r1, #5
  10c4ea:	42b3      	cmp	r3, r6
  10c4ec:	f100 0514 	add.w	r5, r0, #20
  10c4f0:	da27      	bge.n	10c542 <rshift+0x5e>
  10c4f2:	f011 011f 	ands.w	r1, r1, #31
  10c4f6:	eb05 0686 	add.w	r6, r5, r6, lsl #2
  10c4fa:	eb05 0283 	add.w	r2, r5, r3, lsl #2
  10c4fe:	d101      	bne.n	10c504 <rshift+0x20>
  10c500:	4629      	mov	r1, r5
  10c502:	e016      	b.n	10c532 <rshift+0x4e>
  10c504:	1d14      	adds	r4, r2, #4
  10c506:	f855 2023 	ldr.w	r2, [r5, r3, lsl #2]
  10c50a:	462b      	mov	r3, r5
  10c50c:	f1c1 0e20 	rsb	lr, r1, #32
  10c510:	40ca      	lsrs	r2, r1
  10c512:	42b4      	cmp	r4, r6
  10c514:	d209      	bcs.n	10c52a <rshift+0x46>
  10c516:	6827      	ldr	r7, [r4, #0]
  10c518:	fa07 f70e 	lsl.w	r7, r7, lr
  10c51c:	433a      	orrs	r2, r7
  10c51e:	f843 2b04 	str.w	r2, [r3], #4
  10c522:	f854 2b04 	ldr.w	r2, [r4], #4
  10c526:	40ca      	lsrs	r2, r1
  10c528:	e7f3      	b.n	10c512 <rshift+0x2e>
  10c52a:	601a      	str	r2, [r3, #0]
  10c52c:	b152      	cbz	r2, 10c544 <rshift+0x60>
  10c52e:	3304      	adds	r3, #4
  10c530:	e008      	b.n	10c544 <rshift+0x60>
  10c532:	42b2      	cmp	r2, r6
  10c534:	460b      	mov	r3, r1
  10c536:	d205      	bcs.n	10c544 <rshift+0x60>
  10c538:	f852 3b04 	ldr.w	r3, [r2], #4
  10c53c:	f841 3b04 	str.w	r3, [r1], #4
  10c540:	e7f7      	b.n	10c532 <rshift+0x4e>
  10c542:	462b      	mov	r3, r5
  10c544:	1b5b      	subs	r3, r3, r5
  10c546:	109b      	asrs	r3, r3, #2
  10c548:	6103      	str	r3, [r0, #16]
  10c54a:	b903      	cbnz	r3, 10c54e <rshift+0x6a>
  10c54c:	6143      	str	r3, [r0, #20]
  10c54e:	bdf0      	pop	{r4, r5, r6, r7, pc}

0010c550 <__hexdig_fun>:
  10c550:	f1a0 0330 	sub.w	r3, r0, #48	; 0x30
  10c554:	2b09      	cmp	r3, #9
  10c556:	d801      	bhi.n	10c55c <__hexdig_fun+0xc>
  10c558:	3820      	subs	r0, #32
  10c55a:	e00a      	b.n	10c572 <__hexdig_fun+0x22>
  10c55c:	f1a0 0361 	sub.w	r3, r0, #97	; 0x61
  10c560:	2b05      	cmp	r3, #5
  10c562:	d801      	bhi.n	10c568 <__hexdig_fun+0x18>
  10c564:	3847      	subs	r0, #71	; 0x47
  10c566:	e004      	b.n	10c572 <__hexdig_fun+0x22>
  10c568:	f1a0 0341 	sub.w	r3, r0, #65	; 0x41
  10c56c:	2b05      	cmp	r3, #5
  10c56e:	d802      	bhi.n	10c576 <__hexdig_fun+0x26>
  10c570:	3827      	subs	r0, #39	; 0x27
  10c572:	b2c0      	uxtb	r0, r0
  10c574:	4770      	bx	lr
  10c576:	2000      	movs	r0, #0
  10c578:	4770      	bx	lr

0010c57a <__gethex>:
  10c57a:	e92d 4ff0 	stmdb	sp!, {r4, r5, r6, r7, r8, r9, r10, r11, lr}
  10c57e:	b08b      	sub	sp, #44	; 0x2c
  10c580:	468a      	mov	r10, r1
  10c582:	4690      	mov	r8, r2
  10c584:	9306      	str	r3, [sp, #24]
  10c586:	9002      	str	r0, [sp, #8]
  10c588:	f7fc fca6 	bl	108ed8 <_localeconv_r>
  10c58c:	6803      	ldr	r3, [r0, #0]
  10c58e:	f04f 0b00 	mov.w	r11, #0
  10c592:	4618      	mov	r0, r3
  10c594:	9303      	str	r3, [sp, #12]
  10c596:	f7fe f80e 	bl	10a5b6 <strlen>
  10c59a:	9b03      	ldr	r3, [sp, #12]
  10c59c:	9001      	str	r0, [sp, #4]
  10c59e:	4403      	add	r3, r0
  10c5a0:	f813 3c01 	ldrb.w	r3, [r3, #-1]
  10c5a4:	9307      	str	r3, [sp, #28]
  10c5a6:	f8da 3000 	ldr.w	r3, [r10]
  10c5aa:	3302      	adds	r3, #2
  10c5ac:	461f      	mov	r7, r3
  10c5ae:	f813 0b01 	ldrb.w	r0, [r3], #1
  10c5b2:	2830      	cmp	r0, #48	; 0x30
  10c5b4:	d102      	bne.n	10c5bc <__gethex+0x42>
  10c5b6:	f10b 0b01 	add.w	r11, r11, #1
  10c5ba:	e7f7      	b.n	10c5ac <__gethex+0x32>
  10c5bc:	f7ff ffc8 	bl	10c550 <__hexdig_fun>
  10c5c0:	4604      	mov	r4, r0
  10c5c2:	b9e0      	cbnz	r0, 10c5fe <__gethex+0x84>
  10c5c4:	9a01      	ldr	r2, [sp, #4]
  10c5c6:	9903      	ldr	r1, [sp, #12]
  10c5c8:	4638      	mov	r0, r7
  10c5ca:	f7fd fffc 	bl	10a5c6 <strncmp>
  10c5ce:	2800      	cmp	r0, #0
  10c5d0:	d134      	bne.n	10c63c <__gethex+0xc2>
  10c5d2:	9b01      	ldr	r3, [sp, #4]
  10c5d4:	5cf8      	ldrb	r0, [r7, r3]
  10c5d6:	18fe      	adds	r6, r7, r3
  10c5d8:	f7ff ffba 	bl	10c550 <__hexdig_fun>
  10c5dc:	b380      	cbz	r0, 10c640 <__gethex+0xc6>
  10c5de:	4633      	mov	r3, r6
  10c5e0:	7818      	ldrb	r0, [r3, #0]
  10c5e2:	461f      	mov	r7, r3
  10c5e4:	2830      	cmp	r0, #48	; 0x30
  10c5e6:	f103 0301 	add.w	r3, r3, #1
  10c5ea:	d0f9      	beq.n	10c5e0 <__gethex+0x66>
  10c5ec:	f7ff ffb0 	bl	10c550 <__hexdig_fun>
  10c5f0:	fab0 f580 	clz	r5, r0
  10c5f4:	4634      	mov	r4, r6
  10c5f6:	096d      	lsrs	r5, r5, #5
  10c5f8:	f04f 0b01 	mov.w	r11, #1
  10c5fc:	e001      	b.n	10c602 <__gethex+0x88>
  10c5fe:	2500      	movs	r5, #0
  10c600:	462c      	mov	r4, r5
  10c602:	463a      	mov	r2, r7
  10c604:	4616      	mov	r6, r2
  10c606:	7830      	ldrb	r0, [r6, #0]
  10c608:	3201      	adds	r2, #1
  10c60a:	f7ff ffa1 	bl	10c550 <__hexdig_fun>
  10c60e:	2800      	cmp	r0, #0
  10c610:	d1f8      	bne.n	10c604 <__gethex+0x8a>
  10c612:	9a01      	ldr	r2, [sp, #4]
  10c614:	9903      	ldr	r1, [sp, #12]
  10c616:	4630      	mov	r0, r6
  10c618:	f7fd ffd5 	bl	10a5c6 <strncmp>
  10c61c:	b950      	cbnz	r0, 10c634 <__gethex+0xba>
  10c61e:	b954      	cbnz	r4, 10c636 <__gethex+0xbc>
  10c620:	9b01      	ldr	r3, [sp, #4]
  10c622:	18f4      	adds	r4, r6, r3
  10c624:	4622      	mov	r2, r4
  10c626:	4616      	mov	r6, r2
  10c628:	7830      	ldrb	r0, [r6, #0]
  10c62a:	3201      	adds	r2, #1
  10c62c:	f7ff ff90 	bl	10c550 <__hexdig_fun>
  10c630:	2800      	cmp	r0, #0
  10c632:	d1f8      	bne.n	10c626 <__gethex+0xac>
  10c634:	b134      	cbz	r4, 10c644 <__gethex+0xca>
  10c636:	1ba4      	subs	r4, r4, r6
  10c638:	00a4      	lsls	r4, r4, #2
  10c63a:	e003      	b.n	10c644 <__gethex+0xca>
  10c63c:	463e      	mov	r6, r7
  10c63e:	e000      	b.n	10c642 <__gethex+0xc8>
  10c640:	4604      	mov	r4, r0
  10c642:	2501      	movs	r5, #1
  10c644:	7833      	ldrb	r3, [r6, #0]
  10c646:	2b50      	cmp	r3, #80	; 0x50
  10c648:	d001      	beq.n	10c64e <__gethex+0xd4>
  10c64a:	2b70      	cmp	r3, #112	; 0x70
  10c64c:	d12a      	bne.n	10c6a4 <__gethex+0x12a>
  10c64e:	7873      	ldrb	r3, [r6, #1]
  10c650:	2b2b      	cmp	r3, #43	; 0x2b
  10c652:	d008      	beq.n	10c666 <__gethex+0xec>
  10c654:	2b2d      	cmp	r3, #45	; 0x2d
  10c656:	d003      	beq.n	10c660 <__gethex+0xe6>
  10c658:	1c71      	adds	r1, r6, #1
  10c65a:	f04f 0900 	mov.w	r9, #0
  10c65e:	e005      	b.n	10c66c <__gethex+0xf2>
  10c660:	f04f 0901 	mov.w	r9, #1
  10c664:	e001      	b.n	10c66a <__gethex+0xf0>
  10c666:	f04f 0900 	mov.w	r9, #0
  10c66a:	1cb1      	adds	r1, r6, #2
  10c66c:	7808      	ldrb	r0, [r1, #0]
  10c66e:	f7ff ff6f 	bl	10c550 <__hexdig_fun>
  10c672:	1e43      	subs	r3, r0, #1
  10c674:	b2db      	uxtb	r3, r3
  10c676:	2b18      	cmp	r3, #24
  10c678:	d814      	bhi.n	10c6a4 <__gethex+0x12a>
  10c67a:	f1a0 0210 	sub.w	r2, r0, #16
  10c67e:	f811 0f01 	ldrb.w	r0, [r1, #1]!
  10c682:	f7ff ff65 	bl	10c550 <__hexdig_fun>
  10c686:	1e43      	subs	r3, r0, #1
  10c688:	b2db      	uxtb	r3, r3
  10c68a:	2b18      	cmp	r3, #24
  10c68c:	d804      	bhi.n	10c698 <__gethex+0x11e>
  10c68e:	230a      	movs	r3, #10
  10c690:	fb03 0202 	mla	r2, r3, r2, r0
  10c694:	3a10      	subs	r2, #16
  10c696:	e7f2      	b.n	10c67e <__gethex+0x104>
  10c698:	f1b9 0f00 	cmp.w	r9, #0
  10c69c:	d000      	beq.n	10c6a0 <__gethex+0x126>
  10c69e:	4252      	negs	r2, r2
  10c6a0:	4414      	add	r4, r2
  10c6a2:	e000      	b.n	10c6a6 <__gethex+0x12c>
  10c6a4:	4631      	mov	r1, r6
  10c6a6:	f8ca 1000 	str.w	r1, [r10]
  10c6aa:	b12d      	cbz	r5, 10c6b8 <__gethex+0x13e>
  10c6ac:	f1bb 0f00 	cmp.w	r11, #0
  10c6b0:	bf14      	ite	ne
  10c6b2:	2000      	movne	r0, #0
  10c6b4:	2006      	moveq	r0, #6
  10c6b6:	e17c      	b.n	10c9b2 <__gethex+0x438>
  10c6b8:	4629      	mov	r1, r5
  10c6ba:	1bf3      	subs	r3, r6, r7
  10c6bc:	3b01      	subs	r3, #1
  10c6be:	2b07      	cmp	r3, #7
  10c6c0:	dd02      	ble.n	10c6c8 <__gethex+0x14e>
  10c6c2:	3101      	adds	r1, #1
  10c6c4:	105b      	asrs	r3, r3, #1
  10c6c6:	e7fa      	b.n	10c6be <__gethex+0x144>
  10c6c8:	9802      	ldr	r0, [sp, #8]
  10c6ca:	f000 fa4b 	bl	10cb64 <_Balloc>
  10c6ce:	f04f 0900 	mov.w	r9, #0
  10c6d2:	4605      	mov	r5, r0
  10c6d4:	46cb      	mov	r11, r9
  10c6d6:	9b01      	ldr	r3, [sp, #4]
  10c6d8:	f100 0a14 	add.w	r10, r0, #20
  10c6dc:	f1c3 0301 	rsb	r3, r3, #1
  10c6e0:	f8cd a010 	str.w	r10, [sp, #16]
  10c6e4:	9308      	str	r3, [sp, #32]
  10c6e6:	42b7      	cmp	r7, r6
  10c6e8:	d22f      	bcs.n	10c74a <__gethex+0x1d0>
  10c6ea:	1e73      	subs	r3, r6, #1
  10c6ec:	9305      	str	r3, [sp, #20]
  10c6ee:	9a07      	ldr	r2, [sp, #28]
  10c6f0:	f816 3c01 	ldrb.w	r3, [r6, #-1]
  10c6f4:	4293      	cmp	r3, r2
  10c6f6:	d00b      	beq.n	10c710 <__gethex+0x196>
  10c6f8:	f1bb 0f20 	cmp.w	r11, #32
  10c6fc:	d116      	bne.n	10c72c <__gethex+0x1b2>
  10c6fe:	9b04      	ldr	r3, [sp, #16]
  10c700:	f8c3 9000 	str.w	r9, [r3]
  10c704:	3304      	adds	r3, #4
  10c706:	f04f 0900 	mov.w	r9, #0
  10c70a:	9304      	str	r3, [sp, #16]
  10c70c:	46cb      	mov	r11, r9
  10c70e:	e00d      	b.n	10c72c <__gethex+0x1b2>
  10c710:	9b05      	ldr	r3, [sp, #20]
  10c712:	9a08      	ldr	r2, [sp, #32]
  10c714:	4413      	add	r3, r2
  10c716:	429f      	cmp	r7, r3
  10c718:	d8ee      	bhi.n	10c6f8 <__gethex+0x17e>
  10c71a:	4618      	mov	r0, r3
  10c71c:	9a01      	ldr	r2, [sp, #4]
  10c71e:	9903      	ldr	r1, [sp, #12]
  10c720:	9309      	str	r3, [sp, #36]	; 0x24
  10c722:	f7fd ff50 	bl	10a5c6 <strncmp>
  10c726:	9b09      	ldr	r3, [sp, #36]	; 0x24
  10c728:	b168      	cbz	r0, 10c746 <__gethex+0x1cc>
  10c72a:	e7e5      	b.n	10c6f8 <__gethex+0x17e>
  10c72c:	f816 0c01 	ldrb.w	r0, [r6, #-1]
  10c730:	f7ff ff0e 	bl	10c550 <__hexdig_fun>
  10c734:	f000 000f 	and.w	r0, r0, #15
  10c738:	fa00 f00b 	lsl.w	r0, r0, r11
  10c73c:	9b05      	ldr	r3, [sp, #20]
  10c73e:	ea49 0900 	orr.w	r9, r9, r0
  10c742:	f10b 0b04 	add.w	r11, r11, #4
  10c746:	461e      	mov	r6, r3
  10c748:	e7cd      	b.n	10c6e6 <__gethex+0x16c>
  10c74a:	9804      	ldr	r0, [sp, #16]
  10c74c:	f840 9b04 	str.w	r9, [r0], #4
  10c750:	ebca 0000 	rsb	r0, r10, r0
  10c754:	1080      	asrs	r0, r0, #2
  10c756:	6128      	str	r0, [r5, #16]
  10c758:	0147      	lsls	r7, r0, #5
  10c75a:	4648      	mov	r0, r9
  10c75c:	f000 fac7 	bl	10ccee <__hi0bits>
  10c760:	f8d8 6000 	ldr.w	r6, [r8]
  10c764:	1a38      	subs	r0, r7, r0
  10c766:	42b0      	cmp	r0, r6
  10c768:	dd26      	ble.n	10c7b8 <__gethex+0x23e>
  10c76a:	1b87      	subs	r7, r0, r6
  10c76c:	4639      	mov	r1, r7
  10c76e:	4628      	mov	r0, r5
  10c770:	f000 fdbf 	bl	10d2f2 <__any_on>
  10c774:	b1c8      	cbz	r0, 10c7aa <__gethex+0x230>
  10c776:	1e7b      	subs	r3, r7, #1
  10c778:	1159      	asrs	r1, r3, #5
  10c77a:	f003 021f 	and.w	r2, r3, #31
  10c77e:	f04f 0901 	mov.w	r9, #1
  10c782:	f85a 1021 	ldr.w	r1, [r10, r1, lsl #2]
  10c786:	fa09 f202 	lsl.w	r2, r9, r2
  10c78a:	420a      	tst	r2, r1
  10c78c:	d00e      	beq.n	10c7ac <__gethex+0x232>
  10c78e:	454b      	cmp	r3, r9
  10c790:	dc02      	bgt.n	10c798 <__gethex+0x21e>
  10c792:	f04f 0902 	mov.w	r9, #2
  10c796:	e009      	b.n	10c7ac <__gethex+0x232>
  10c798:	1eb9      	subs	r1, r7, #2
  10c79a:	4628      	mov	r0, r5
  10c79c:	f000 fda9 	bl	10d2f2 <__any_on>
  10c7a0:	2800      	cmp	r0, #0
  10c7a2:	d0f6      	beq.n	10c792 <__gethex+0x218>
  10c7a4:	f04f 0903 	mov.w	r9, #3
  10c7a8:	e000      	b.n	10c7ac <__gethex+0x232>
  10c7aa:	4681      	mov	r9, r0
  10c7ac:	4639      	mov	r1, r7
  10c7ae:	4628      	mov	r0, r5
  10c7b0:	f7ff fe98 	bl	10c4e4 <rshift>
  10c7b4:	443c      	add	r4, r7
  10c7b6:	e00c      	b.n	10c7d2 <__gethex+0x258>
  10c7b8:	da09      	bge.n	10c7ce <__gethex+0x254>
  10c7ba:	1a37      	subs	r7, r6, r0
  10c7bc:	4629      	mov	r1, r5
  10c7be:	463a      	mov	r2, r7
  10c7c0:	9802      	ldr	r0, [sp, #8]
  10c7c2:	f000 fbc9 	bl	10cf58 <__lshift>
  10c7c6:	4605      	mov	r5, r0
  10c7c8:	1be4      	subs	r4, r4, r7
  10c7ca:	f100 0a14 	add.w	r10, r0, #20
  10c7ce:	f04f 0900 	mov.w	r9, #0
  10c7d2:	f8d8 3008 	ldr.w	r3, [r8, #8]
  10c7d6:	429c      	cmp	r4, r3
  10c7d8:	dd08      	ble.n	10c7ec <__gethex+0x272>
  10c7da:	9802      	ldr	r0, [sp, #8]
  10c7dc:	4629      	mov	r1, r5
  10c7de:	f000 f9f6 	bl	10cbce <_Bfree>
  10c7e2:	9a14      	ldr	r2, [sp, #80]	; 0x50
  10c7e4:	2300      	movs	r3, #0
  10c7e6:	6013      	str	r3, [r2, #0]
  10c7e8:	20a3      	movs	r0, #163	; 0xa3
  10c7ea:	e0e2      	b.n	10c9b2 <__gethex+0x438>
  10c7ec:	f8d8 0004 	ldr.w	r0, [r8, #4]
  10c7f0:	4284      	cmp	r4, r0
  10c7f2:	da53      	bge.n	10c89c <__gethex+0x322>
  10c7f4:	1b04      	subs	r4, r0, r4
  10c7f6:	42a6      	cmp	r6, r4
  10c7f8:	dc2e      	bgt.n	10c858 <__gethex+0x2de>
  10c7fa:	f8d8 300c 	ldr.w	r3, [r8, #12]
  10c7fe:	2b02      	cmp	r3, #2
  10c800:	d01a      	beq.n	10c838 <__gethex+0x2be>
  10c802:	2b03      	cmp	r3, #3
  10c804:	d01c      	beq.n	10c840 <__gethex+0x2c6>
  10c806:	2b01      	cmp	r3, #1
  10c808:	d11d      	bne.n	10c846 <__gethex+0x2cc>
  10c80a:	42a6      	cmp	r6, r4
  10c80c:	d11b      	bne.n	10c846 <__gethex+0x2cc>
  10c80e:	2e01      	cmp	r6, #1
  10c810:	dc0b      	bgt.n	10c82a <__gethex+0x2b0>
  10c812:	f8d8 3004 	ldr.w	r3, [r8, #4]
  10c816:	9a06      	ldr	r2, [sp, #24]
  10c818:	2062      	movs	r0, #98	; 0x62
  10c81a:	6013      	str	r3, [r2, #0]
  10c81c:	2301      	movs	r3, #1
  10c81e:	612b      	str	r3, [r5, #16]
  10c820:	f8ca 3000 	str.w	r3, [r10]
  10c824:	9b14      	ldr	r3, [sp, #80]	; 0x50
  10c826:	601d      	str	r5, [r3, #0]
  10c828:	e0c3      	b.n	10c9b2 <__gethex+0x438>
  10c82a:	1e71      	subs	r1, r6, #1
  10c82c:	4628      	mov	r0, r5
  10c82e:	f000 fd60 	bl	10d2f2 <__any_on>
  10c832:	2800      	cmp	r0, #0
  10c834:	d1ed      	bne.n	10c812 <__gethex+0x298>
  10c836:	e006      	b.n	10c846 <__gethex+0x2cc>
  10c838:	9b15      	ldr	r3, [sp, #84]	; 0x54
  10c83a:	2b00      	cmp	r3, #0
  10c83c:	d0e9      	beq.n	10c812 <__gethex+0x298>
  10c83e:	e002      	b.n	10c846 <__gethex+0x2cc>
  10c840:	9b15      	ldr	r3, [sp, #84]	; 0x54
  10c842:	2b00      	cmp	r3, #0
  10c844:	d1e5      	bne.n	10c812 <__gethex+0x298>
  10c846:	9802      	ldr	r0, [sp, #8]
  10c848:	4629      	mov	r1, r5
  10c84a:	f000 f9c0 	bl	10cbce <_Bfree>
  10c84e:	9a14      	ldr	r2, [sp, #80]	; 0x50
  10c850:	2300      	movs	r3, #0
  10c852:	6013      	str	r3, [r2, #0]
  10c854:	2050      	movs	r0, #80	; 0x50
  10c856:	e0ac      	b.n	10c9b2 <__gethex+0x438>
  10c858:	1e67      	subs	r7, r4, #1
  10c85a:	f1b9 0f00 	cmp.w	r9, #0
  10c85e:	d106      	bne.n	10c86e <__gethex+0x2f4>
  10c860:	b13f      	cbz	r7, 10c872 <__gethex+0x2f8>
  10c862:	4639      	mov	r1, r7
  10c864:	4628      	mov	r0, r5
  10c866:	f000 fd44 	bl	10d2f2 <__any_on>
  10c86a:	4681      	mov	r9, r0
  10c86c:	e001      	b.n	10c872 <__gethex+0x2f8>
  10c86e:	f04f 0901 	mov.w	r9, #1
  10c872:	117a      	asrs	r2, r7, #5
  10c874:	2301      	movs	r3, #1
  10c876:	f007 071f 	and.w	r7, r7, #31
  10c87a:	fa03 f707 	lsl.w	r7, r3, r7
  10c87e:	f85a 3022 	ldr.w	r3, [r10, r2, lsl #2]
  10c882:	4621      	mov	r1, r4
  10c884:	421f      	tst	r7, r3
  10c886:	4628      	mov	r0, r5
  10c888:	bf18      	it	ne
  10c88a:	f049 0902 	orrne.w	r9, r9, #2
  10c88e:	1b36      	subs	r6, r6, r4
  10c890:	f7ff fe28 	bl	10c4e4 <rshift>
  10c894:	2702      	movs	r7, #2
  10c896:	f8d8 4004 	ldr.w	r4, [r8, #4]
  10c89a:	e000      	b.n	10c89e <__gethex+0x324>
  10c89c:	2701      	movs	r7, #1
  10c89e:	f1b9 0f00 	cmp.w	r9, #0
  10c8a2:	f000 8081 	beq.w	10c9a8 <__gethex+0x42e>
  10c8a6:	f8d8 300c 	ldr.w	r3, [r8, #12]
  10c8aa:	2b02      	cmp	r3, #2
  10c8ac:	d00e      	beq.n	10c8cc <__gethex+0x352>
  10c8ae:	2b03      	cmp	r3, #3
  10c8b0:	d010      	beq.n	10c8d4 <__gethex+0x35a>
  10c8b2:	2b01      	cmp	r3, #1
  10c8b4:	d176      	bne.n	10c9a4 <__gethex+0x42a>
  10c8b6:	f019 0f02 	tst.w	r9, #2
  10c8ba:	d073      	beq.n	10c9a4 <__gethex+0x42a>
  10c8bc:	f8da 0000 	ldr.w	r0, [r10]
  10c8c0:	ea49 0900 	orr.w	r9, r9, r0
  10c8c4:	f019 0f01 	tst.w	r9, #1
  10c8c8:	d107      	bne.n	10c8da <__gethex+0x360>
  10c8ca:	e06b      	b.n	10c9a4 <__gethex+0x42a>
  10c8cc:	9b15      	ldr	r3, [sp, #84]	; 0x54
  10c8ce:	f1c3 0301 	rsb	r3, r3, #1
  10c8d2:	9315      	str	r3, [sp, #84]	; 0x54
  10c8d4:	9b15      	ldr	r3, [sp, #84]	; 0x54
  10c8d6:	2b00      	cmp	r3, #0
  10c8d8:	d064      	beq.n	10c9a4 <__gethex+0x42a>
  10c8da:	f8d5 a010 	ldr.w	r10, [r5, #16]
  10c8de:	f105 0314 	add.w	r3, r5, #20
  10c8e2:	ea4f 098a 	mov.w	r9, r10, lsl #2
  10c8e6:	eb03 0109 	add.w	r1, r3, r9
  10c8ea:	2000      	movs	r0, #0
  10c8ec:	681a      	ldr	r2, [r3, #0]
  10c8ee:	f1b2 3fff 	cmp.w	r2, #4294967295
  10c8f2:	d002      	beq.n	10c8fa <__gethex+0x380>
  10c8f4:	3201      	adds	r2, #1
  10c8f6:	601a      	str	r2, [r3, #0]
  10c8f8:	e020      	b.n	10c93c <__gethex+0x3c2>
  10c8fa:	f843 0b04 	str.w	r0, [r3], #4
  10c8fe:	4299      	cmp	r1, r3
  10c900:	d8f4      	bhi.n	10c8ec <__gethex+0x372>
  10c902:	68ab      	ldr	r3, [r5, #8]
  10c904:	459a      	cmp	r10, r3
  10c906:	db12      	blt.n	10c92e <__gethex+0x3b4>
  10c908:	6869      	ldr	r1, [r5, #4]
  10c90a:	9802      	ldr	r0, [sp, #8]
  10c90c:	3101      	adds	r1, #1
  10c90e:	f000 f929 	bl	10cb64 <_Balloc>
  10c912:	4683      	mov	r11, r0
  10c914:	692a      	ldr	r2, [r5, #16]
  10c916:	f105 010c 	add.w	r1, r5, #12
  10c91a:	3202      	adds	r2, #2
  10c91c:	0092      	lsls	r2, r2, #2
  10c91e:	300c      	adds	r0, #12
  10c920:	f7fc fb48 	bl	108fb4 <memcpy>
  10c924:	4629      	mov	r1, r5
  10c926:	9802      	ldr	r0, [sp, #8]
  10c928:	f000 f951 	bl	10cbce <_Bfree>
  10c92c:	465d      	mov	r5, r11
  10c92e:	692b      	ldr	r3, [r5, #16]
  10c930:	1c5a      	adds	r2, r3, #1
  10c932:	612a      	str	r2, [r5, #16]
  10c934:	eb05 0383 	add.w	r3, r5, r3, lsl #2
  10c938:	2201      	movs	r2, #1
  10c93a:	615a      	str	r2, [r3, #20]
  10c93c:	2f02      	cmp	r7, #2
  10c93e:	f105 0214 	add.w	r2, r5, #20
  10c942:	d111      	bne.n	10c968 <__gethex+0x3ee>
  10c944:	f8d8 3000 	ldr.w	r3, [r8]
  10c948:	3b01      	subs	r3, #1
  10c94a:	429e      	cmp	r6, r3
  10c94c:	d127      	bne.n	10c99e <__gethex+0x424>
  10c94e:	1171      	asrs	r1, r6, #5
  10c950:	2301      	movs	r3, #1
  10c952:	f006 061f 	and.w	r6, r6, #31
  10c956:	fa03 f606 	lsl.w	r6, r3, r6
  10c95a:	f852 3021 	ldr.w	r3, [r2, r1, lsl #2]
  10c95e:	421e      	tst	r6, r3
  10c960:	bf0c      	ite	eq
  10c962:	2702      	moveq	r7, #2
  10c964:	2701      	movne	r7, #1
  10c966:	e01a      	b.n	10c99e <__gethex+0x424>
  10c968:	692b      	ldr	r3, [r5, #16]
  10c96a:	459a      	cmp	r10, r3
  10c96c:	da0a      	bge.n	10c984 <__gethex+0x40a>
  10c96e:	2101      	movs	r1, #1
  10c970:	4628      	mov	r0, r5
  10c972:	f7ff fdb7 	bl	10c4e4 <rshift>
  10c976:	f8d8 3008 	ldr.w	r3, [r8, #8]
  10c97a:	3401      	adds	r4, #1
  10c97c:	429c      	cmp	r4, r3
  10c97e:	f73f af2c 	bgt.w	10c7da <__gethex+0x260>
  10c982:	e00b      	b.n	10c99c <__gethex+0x422>
  10c984:	f016 061f 	ands.w	r6, r6, #31
  10c988:	d008      	beq.n	10c99c <__gethex+0x422>
  10c98a:	4491      	add	r9, r2
  10c98c:	f859 0c04 	ldr.w	r0, [r9, #-4]
  10c990:	f000 f9ad 	bl	10ccee <__hi0bits>
  10c994:	f1c6 0620 	rsb	r6, r6, #32
  10c998:	42b0      	cmp	r0, r6
  10c99a:	dbe8      	blt.n	10c96e <__gethex+0x3f4>
  10c99c:	2701      	movs	r7, #1
  10c99e:	f047 0720 	orr.w	r7, r7, #32
  10c9a2:	e001      	b.n	10c9a8 <__gethex+0x42e>
  10c9a4:	f047 0710 	orr.w	r7, r7, #16
  10c9a8:	4638      	mov	r0, r7
  10c9aa:	9b14      	ldr	r3, [sp, #80]	; 0x50
  10c9ac:	601d      	str	r5, [r3, #0]
  10c9ae:	9b06      	ldr	r3, [sp, #24]
  10c9b0:	601c      	str	r4, [r3, #0]
  10c9b2:	b00b      	add	sp, #44	; 0x2c
  10c9b4:	e8bd 8ff0 	ldmia.w	sp!, {r4, r5, r6, r7, r8, r9, r10, r11, pc}

0010c9b8 <L_shift>:
  10c9b8:	f1c2 0208 	rsb	r2, r2, #8
  10c9bc:	0092      	lsls	r2, r2, #2
  10c9be:	b570      	push	{r4, r5, r6, lr}
  10c9c0:	f1c2 0620 	rsb	r6, r2, #32
  10c9c4:	6843      	ldr	r3, [r0, #4]
  10c9c6:	6805      	ldr	r5, [r0, #0]
  10c9c8:	fa03 f406 	lsl.w	r4, r3, r6
  10c9cc:	432c      	orrs	r4, r5
  10c9ce:	40d3      	lsrs	r3, r2
  10c9d0:	6004      	str	r4, [r0, #0]
  10c9d2:	f840 3f04 	str.w	r3, [r0, #4]!
  10c9d6:	4288      	cmp	r0, r1
  10c9d8:	d3f4      	bcc.n	10c9c4 <L_shift+0xc>
  10c9da:	bd70      	pop	{r4, r5, r6, pc}

0010c9dc <__match>:
  10c9dc:	b530      	push	{r4, r5, lr}
  10c9de:	6803      	ldr	r3, [r0, #0]
  10c9e0:	f811 4b01 	ldrb.w	r4, [r1], #1
  10c9e4:	3301      	adds	r3, #1
  10c9e6:	b14c      	cbz	r4, 10c9fc <__match+0x20>
  10c9e8:	781a      	ldrb	r2, [r3, #0]
  10c9ea:	f1a2 0541 	sub.w	r5, r2, #65	; 0x41
  10c9ee:	2d19      	cmp	r5, #25
  10c9f0:	bf98      	it	ls
  10c9f2:	3220      	addls	r2, #32
  10c9f4:	42a2      	cmp	r2, r4
  10c9f6:	d0f3      	beq.n	10c9e0 <__match+0x4>
  10c9f8:	2000      	movs	r0, #0
  10c9fa:	bd30      	pop	{r4, r5, pc}
  10c9fc:	6003      	str	r3, [r0, #0]
  10c9fe:	2001      	movs	r0, #1
  10ca00:	bd30      	pop	{r4, r5, pc}

0010ca02 <__hexnan>:
  10ca02:	680b      	ldr	r3, [r1, #0]
  10ca04:	e92d 4ff0 	stmdb	sp!, {r4, r5, r6, r7, r8, r9, r10, r11, lr}
  10ca08:	115e      	asrs	r6, r3, #5
  10ca0a:	eb02 0686 	add.w	r6, r2, r6, lsl #2
  10ca0e:	f013 031f 	ands.w	r3, r3, #31
  10ca12:	bf18      	it	ne
  10ca14:	3604      	addne	r6, #4
  10ca16:	1f35      	subs	r5, r6, #4
  10ca18:	4617      	mov	r7, r2
  10ca1a:	2200      	movs	r2, #0
  10ca1c:	4682      	mov	r10, r0
  10ca1e:	46a8      	mov	r8, r5
  10ca20:	462c      	mov	r4, r5
  10ca22:	4691      	mov	r9, r2
  10ca24:	b085      	sub	sp, #20
  10ca26:	f8d0 b000 	ldr.w	r11, [r0]
  10ca2a:	9301      	str	r3, [sp, #4]
  10ca2c:	f846 2c04 	str.w	r2, [r6, #-4]
  10ca30:	9200      	str	r2, [sp, #0]
  10ca32:	f81b 1f01 	ldrb.w	r1, [r11, #1]!
  10ca36:	2900      	cmp	r1, #0
  10ca38:	d03c      	beq.n	10cab4 <__hexnan+0xb2>
  10ca3a:	4608      	mov	r0, r1
  10ca3c:	9203      	str	r2, [sp, #12]
  10ca3e:	9102      	str	r1, [sp, #8]
  10ca40:	f7ff fd86 	bl	10c550 <__hexdig_fun>
  10ca44:	9a03      	ldr	r2, [sp, #12]
  10ca46:	bb00      	cbnz	r0, 10ca8a <__hexnan+0x88>
  10ca48:	9902      	ldr	r1, [sp, #8]
  10ca4a:	2920      	cmp	r1, #32
  10ca4c:	d816      	bhi.n	10ca7c <__hexnan+0x7a>
  10ca4e:	9b00      	ldr	r3, [sp, #0]
  10ca50:	4599      	cmp	r9, r3
  10ca52:	ddee      	ble.n	10ca32 <__hexnan+0x30>
  10ca54:	4544      	cmp	r4, r8
  10ca56:	d205      	bcs.n	10ca64 <__hexnan+0x62>
  10ca58:	2a07      	cmp	r2, #7
  10ca5a:	dc03      	bgt.n	10ca64 <__hexnan+0x62>
  10ca5c:	4641      	mov	r1, r8
  10ca5e:	4620      	mov	r0, r4
  10ca60:	f7ff ffaa 	bl	10c9b8 <L_shift>
  10ca64:	42bc      	cmp	r4, r7
  10ca66:	d923      	bls.n	10cab0 <__hexnan+0xae>
  10ca68:	2300      	movs	r3, #0
  10ca6a:	f1a4 0804 	sub.w	r8, r4, #4
  10ca6e:	f844 3c04 	str.w	r3, [r4, #-4]
  10ca72:	f8cd 9000 	str.w	r9, [sp]
  10ca76:	4644      	mov	r4, r8
  10ca78:	461a      	mov	r2, r3
  10ca7a:	e7da      	b.n	10ca32 <__hexnan+0x30>
  10ca7c:	2929      	cmp	r1, #41	; 0x29
  10ca7e:	d148      	bne.n	10cb12 <__hexnan+0x110>
  10ca80:	f10b 0301 	add.w	r3, r11, #1
  10ca84:	f8ca 3000 	str.w	r3, [r10]
  10ca88:	e014      	b.n	10cab4 <__hexnan+0xb2>
  10ca8a:	3201      	adds	r2, #1
  10ca8c:	2a08      	cmp	r2, #8
  10ca8e:	f109 0901 	add.w	r9, r9, #1
  10ca92:	dd06      	ble.n	10caa2 <__hexnan+0xa0>
  10ca94:	42bc      	cmp	r4, r7
  10ca96:	d9cc      	bls.n	10ca32 <__hexnan+0x30>
  10ca98:	2300      	movs	r3, #0
  10ca9a:	f844 3c04 	str.w	r3, [r4, #-4]
  10ca9e:	2201      	movs	r2, #1
  10caa0:	3c04      	subs	r4, #4
  10caa2:	6821      	ldr	r1, [r4, #0]
  10caa4:	f000 000f 	and.w	r0, r0, #15
  10caa8:	ea40 1001 	orr.w	r0, r0, r1, lsl #4
  10caac:	6020      	str	r0, [r4, #0]
  10caae:	e7c0      	b.n	10ca32 <__hexnan+0x30>
  10cab0:	2208      	movs	r2, #8
  10cab2:	e7be      	b.n	10ca32 <__hexnan+0x30>
  10cab4:	f1b9 0f00 	cmp.w	r9, #0
  10cab8:	d02b      	beq.n	10cb12 <__hexnan+0x110>
  10caba:	4544      	cmp	r4, r8
  10cabc:	d205      	bcs.n	10caca <__hexnan+0xc8>
  10cabe:	2a07      	cmp	r2, #7
  10cac0:	dc03      	bgt.n	10caca <__hexnan+0xc8>
  10cac2:	4641      	mov	r1, r8
  10cac4:	4620      	mov	r0, r4
  10cac6:	f7ff ff77 	bl	10c9b8 <L_shift>
  10caca:	42bc      	cmp	r4, r7
  10cacc:	d90c      	bls.n	10cae8 <__hexnan+0xe6>
  10cace:	463b      	mov	r3, r7
  10cad0:	f854 2b04 	ldr.w	r2, [r4], #4
  10cad4:	42a5      	cmp	r5, r4
  10cad6:	f843 2b04 	str.w	r2, [r3], #4
  10cada:	d2f9      	bcs.n	10cad0 <__hexnan+0xce>
  10cadc:	2200      	movs	r2, #0
  10cade:	f843 2b04 	str.w	r2, [r3], #4
  10cae2:	429d      	cmp	r5, r3
  10cae4:	d2fb      	bcs.n	10cade <__hexnan+0xdc>
  10cae6:	e00b      	b.n	10cb00 <__hexnan+0xfe>
  10cae8:	9b01      	ldr	r3, [sp, #4]
  10caea:	b14b      	cbz	r3, 10cb00 <__hexnan+0xfe>
  10caec:	f1c3 0220 	rsb	r2, r3, #32
  10caf0:	f04f 33ff 	mov.w	r3, #4294967295
  10caf4:	40d3      	lsrs	r3, r2
  10caf6:	f856 2c04 	ldr.w	r2, [r6, #-4]
  10cafa:	4013      	ands	r3, r2
  10cafc:	f846 3c04 	str.w	r3, [r6, #-4]
  10cb00:	682b      	ldr	r3, [r5, #0]
  10cb02:	b943      	cbnz	r3, 10cb16 <__hexnan+0x114>
  10cb04:	42bd      	cmp	r5, r7
  10cb06:	d102      	bne.n	10cb0e <__hexnan+0x10c>
  10cb08:	2301      	movs	r3, #1
  10cb0a:	602b      	str	r3, [r5, #0]
  10cb0c:	e003      	b.n	10cb16 <__hexnan+0x114>
  10cb0e:	3d04      	subs	r5, #4
  10cb10:	e7f6      	b.n	10cb00 <__hexnan+0xfe>
  10cb12:	2004      	movs	r0, #4
  10cb14:	e000      	b.n	10cb18 <__hexnan+0x116>
  10cb16:	2005      	movs	r0, #5
  10cb18:	b005      	add	sp, #20
  10cb1a:	e8bd 8ff0 	ldmia.w	sp!, {r4, r5, r6, r7, r8, r9, r10, r11, pc}
	...

0010cb20 <_isatty_r>:
  10cb20:	b538      	push	{r3, r4, r5, lr}
  10cb22:	4c06      	ldr	r4, [pc, #24]	; (10cb3c <_isatty_r+0x1c>)
  10cb24:	2300      	movs	r3, #0
  10cb26:	4605      	mov	r5, r0
  10cb28:	4608      	mov	r0, r1
  10cb2a:	6023      	str	r3, [r4, #0]
  10cb2c:	f7f5 fe1e 	bl	10276c <__wrap__isatty>
  10cb30:	1c43      	adds	r3, r0, #1
  10cb32:	d102      	bne.n	10cb3a <_isatty_r+0x1a>
  10cb34:	6823      	ldr	r3, [r4, #0]
  10cb36:	b103      	cbz	r3, 10cb3a <_isatty_r+0x1a>
  10cb38:	602b      	str	r3, [r5, #0]
  10cb3a:	bd38      	pop	{r3, r4, r5, pc}
  10cb3c:	3fff5398 	.word	0x3fff5398

0010cb40 <_lseek_r>:
  10cb40:	b538      	push	{r3, r4, r5, lr}
  10cb42:	4c07      	ldr	r4, [pc, #28]	; (10cb60 <_lseek_r+0x20>)
  10cb44:	4605      	mov	r5, r0
  10cb46:	4608      	mov	r0, r1
  10cb48:	4611      	mov	r1, r2
  10cb4a:	2200      	movs	r2, #0
  10cb4c:	6022      	str	r2, [r4, #0]
  10cb4e:	461a      	mov	r2, r3
  10cb50:	f7fa fd56 	bl	107600 <_lseek>
  10cb54:	1c43      	adds	r3, r0, #1
  10cb56:	d102      	bne.n	10cb5e <_lseek_r+0x1e>
  10cb58:	6823      	ldr	r3, [r4, #0]
  10cb5a:	b103      	cbz	r3, 10cb5e <_lseek_r+0x1e>
  10cb5c:	602b      	str	r3, [r5, #0]
  10cb5e:	bd38      	pop	{r3, r4, r5, pc}
  10cb60:	3fff5398 	.word	0x3fff5398

0010cb64 <_Balloc>:
  10cb64:	b570      	push	{r4, r5, r6, lr}
  10cb66:	6a45      	ldr	r5, [r0, #36]	; 0x24
  10cb68:	4604      	mov	r4, r0
  10cb6a:	460e      	mov	r6, r1
  10cb6c:	b93d      	cbnz	r5, 10cb7e <_Balloc+0x1a>
  10cb6e:	2010      	movs	r0, #16
  10cb70:	f7f5 fe18 	bl	1027a4 <__wrap_malloc>
  10cb74:	6260      	str	r0, [r4, #36]	; 0x24
  10cb76:	6045      	str	r5, [r0, #4]
  10cb78:	6085      	str	r5, [r0, #8]
  10cb7a:	6005      	str	r5, [r0, #0]
  10cb7c:	60c5      	str	r5, [r0, #12]
  10cb7e:	6a65      	ldr	r5, [r4, #36]	; 0x24
  10cb80:	68eb      	ldr	r3, [r5, #12]
  10cb82:	b143      	cbz	r3, 10cb96 <_Balloc+0x32>
  10cb84:	6a63      	ldr	r3, [r4, #36]	; 0x24
  10cb86:	68db      	ldr	r3, [r3, #12]
  10cb88:	f853 0026 	ldr.w	r0, [r3, r6, lsl #2]
  10cb8c:	b178      	cbz	r0, 10cbae <_Balloc+0x4a>
  10cb8e:	6802      	ldr	r2, [r0, #0]
  10cb90:	f843 2026 	str.w	r2, [r3, r6, lsl #2]
  10cb94:	e017      	b.n	10cbc6 <_Balloc+0x62>
  10cb96:	2221      	movs	r2, #33	; 0x21
  10cb98:	2104      	movs	r1, #4
  10cb9a:	4620      	mov	r0, r4
  10cb9c:	f000 fbcb 	bl	10d336 <_calloc_r>
  10cba0:	6a63      	ldr	r3, [r4, #36]	; 0x24
  10cba2:	60e8      	str	r0, [r5, #12]
  10cba4:	68db      	ldr	r3, [r3, #12]
  10cba6:	2b00      	cmp	r3, #0
  10cba8:	d1ec      	bne.n	10cb84 <_Balloc+0x20>
  10cbaa:	2000      	movs	r0, #0
  10cbac:	bd70      	pop	{r4, r5, r6, pc}
  10cbae:	2101      	movs	r1, #1
  10cbb0:	fa01 f506 	lsl.w	r5, r1, r6
  10cbb4:	1d6a      	adds	r2, r5, #5
  10cbb6:	0092      	lsls	r2, r2, #2
  10cbb8:	4620      	mov	r0, r4
  10cbba:	f000 fbbc 	bl	10d336 <_calloc_r>
  10cbbe:	2800      	cmp	r0, #0
  10cbc0:	d0f3      	beq.n	10cbaa <_Balloc+0x46>
  10cbc2:	6046      	str	r6, [r0, #4]
  10cbc4:	6085      	str	r5, [r0, #8]
  10cbc6:	2300      	movs	r3, #0
  10cbc8:	6103      	str	r3, [r0, #16]
  10cbca:	60c3      	str	r3, [r0, #12]
  10cbcc:	bd70      	pop	{r4, r5, r6, pc}

0010cbce <_Bfree>:
  10cbce:	b570      	push	{r4, r5, r6, lr}
  10cbd0:	6a44      	ldr	r4, [r0, #36]	; 0x24
  10cbd2:	4606      	mov	r6, r0
  10cbd4:	460d      	mov	r5, r1
  10cbd6:	b93c      	cbnz	r4, 10cbe8 <_Bfree+0x1a>
  10cbd8:	2010      	movs	r0, #16
  10cbda:	f7f5 fde3 	bl	1027a4 <__wrap_malloc>
  10cbde:	6270      	str	r0, [r6, #36]	; 0x24
  10cbe0:	6044      	str	r4, [r0, #4]
  10cbe2:	6084      	str	r4, [r0, #8]
  10cbe4:	6004      	str	r4, [r0, #0]
  10cbe6:	60c4      	str	r4, [r0, #12]
  10cbe8:	b13d      	cbz	r5, 10cbfa <_Bfree+0x2c>
  10cbea:	6a73      	ldr	r3, [r6, #36]	; 0x24
  10cbec:	686a      	ldr	r2, [r5, #4]
  10cbee:	68db      	ldr	r3, [r3, #12]
  10cbf0:	f853 1022 	ldr.w	r1, [r3, r2, lsl #2]
  10cbf4:	6029      	str	r1, [r5, #0]
  10cbf6:	f843 5022 	str.w	r5, [r3, r2, lsl #2]
  10cbfa:	bd70      	pop	{r4, r5, r6, pc}

0010cbfc <__multadd>:
  10cbfc:	e92d 41f0 	stmdb	sp!, {r4, r5, r6, r7, r8, lr}
  10cc00:	4606      	mov	r6, r0
  10cc02:	460c      	mov	r4, r1
  10cc04:	690d      	ldr	r5, [r1, #16]
  10cc06:	461f      	mov	r7, r3
  10cc08:	f101 0e14 	add.w	lr, r1, #20
  10cc0c:	2300      	movs	r3, #0
  10cc0e:	f8de 0000 	ldr.w	r0, [lr]
  10cc12:	3301      	adds	r3, #1
  10cc14:	b281      	uxth	r1, r0
  10cc16:	fb02 7101 	mla	r1, r2, r1, r7
  10cc1a:	0c00      	lsrs	r0, r0, #16
  10cc1c:	0c0f      	lsrs	r7, r1, #16
  10cc1e:	fb02 7000 	mla	r0, r2, r0, r7
  10cc22:	b289      	uxth	r1, r1
  10cc24:	eb01 4100 	add.w	r1, r1, r0, lsl #16
  10cc28:	429d      	cmp	r5, r3
  10cc2a:	ea4f 4710 	mov.w	r7, r0, lsr #16
  10cc2e:	f84e 1b04 	str.w	r1, [lr], #4
  10cc32:	dcec      	bgt.n	10cc0e <__multadd+0x12>
  10cc34:	b1d7      	cbz	r7, 10cc6c <__multadd+0x70>
  10cc36:	68a3      	ldr	r3, [r4, #8]
  10cc38:	429d      	cmp	r5, r3
  10cc3a:	db12      	blt.n	10cc62 <__multadd+0x66>
  10cc3c:	6861      	ldr	r1, [r4, #4]
  10cc3e:	4630      	mov	r0, r6
  10cc40:	3101      	adds	r1, #1
  10cc42:	f7ff ff8f 	bl	10cb64 <_Balloc>
  10cc46:	4680      	mov	r8, r0
  10cc48:	6922      	ldr	r2, [r4, #16]
  10cc4a:	f104 010c 	add.w	r1, r4, #12
  10cc4e:	3202      	adds	r2, #2
  10cc50:	0092      	lsls	r2, r2, #2
  10cc52:	300c      	adds	r0, #12
  10cc54:	f7fc f9ae 	bl	108fb4 <memcpy>
  10cc58:	4621      	mov	r1, r4
  10cc5a:	4630      	mov	r0, r6
  10cc5c:	f7ff ffb7 	bl	10cbce <_Bfree>
  10cc60:	4644      	mov	r4, r8
  10cc62:	eb04 0385 	add.w	r3, r4, r5, lsl #2
  10cc66:	3501      	adds	r5, #1
  10cc68:	615f      	str	r7, [r3, #20]
  10cc6a:	6125      	str	r5, [r4, #16]
  10cc6c:	4620      	mov	r0, r4
  10cc6e:	e8bd 81f0 	ldmia.w	sp!, {r4, r5, r6, r7, r8, pc}

0010cc72 <__s2b>:
  10cc72:	e92d 43f8 	stmdb	sp!, {r3, r4, r5, r6, r7, r8, r9, lr}
  10cc76:	4606      	mov	r6, r0
  10cc78:	4615      	mov	r5, r2
  10cc7a:	461f      	mov	r7, r3
  10cc7c:	2209      	movs	r2, #9
  10cc7e:	3308      	adds	r3, #8
  10cc80:	460c      	mov	r4, r1
  10cc82:	fb93 f3f2 	sdiv	r3, r3, r2
  10cc86:	2100      	movs	r1, #0
  10cc88:	2201      	movs	r2, #1
  10cc8a:	429a      	cmp	r2, r3
  10cc8c:	da02      	bge.n	10cc94 <__s2b+0x22>
  10cc8e:	0052      	lsls	r2, r2, #1
  10cc90:	3101      	adds	r1, #1
  10cc92:	e7fa      	b.n	10cc8a <__s2b+0x18>
  10cc94:	4630      	mov	r0, r6
  10cc96:	f7ff ff65 	bl	10cb64 <_Balloc>
  10cc9a:	9b08      	ldr	r3, [sp, #32]
  10cc9c:	2d09      	cmp	r5, #9
  10cc9e:	6143      	str	r3, [r0, #20]
  10cca0:	f04f 0301 	mov.w	r3, #1
  10cca4:	6103      	str	r3, [r0, #16]
  10cca6:	dd11      	ble.n	10cccc <__s2b+0x5a>
  10cca8:	f104 0809 	add.w	r8, r4, #9
  10ccac:	46c1      	mov	r9, r8
  10ccae:	442c      	add	r4, r5
  10ccb0:	f819 3b01 	ldrb.w	r3, [r9], #1
  10ccb4:	4601      	mov	r1, r0
  10ccb6:	3b30      	subs	r3, #48	; 0x30
  10ccb8:	220a      	movs	r2, #10
  10ccba:	4630      	mov	r0, r6
  10ccbc:	f7ff ff9e 	bl	10cbfc <__multadd>
  10ccc0:	45a1      	cmp	r9, r4
  10ccc2:	d1f5      	bne.n	10ccb0 <__s2b+0x3e>
  10ccc4:	eb08 0405 	add.w	r4, r8, r5
  10ccc8:	3c08      	subs	r4, #8
  10ccca:	e001      	b.n	10ccd0 <__s2b+0x5e>
  10cccc:	340a      	adds	r4, #10
  10ccce:	2509      	movs	r5, #9
  10ccd0:	1b2d      	subs	r5, r5, r4
  10ccd2:	1963      	adds	r3, r4, r5
  10ccd4:	429f      	cmp	r7, r3
  10ccd6:	dd08      	ble.n	10ccea <__s2b+0x78>
  10ccd8:	f814 3b01 	ldrb.w	r3, [r4], #1
  10ccdc:	4601      	mov	r1, r0
  10ccde:	3b30      	subs	r3, #48	; 0x30
  10cce0:	220a      	movs	r2, #10
  10cce2:	4630      	mov	r0, r6
  10cce4:	f7ff ff8a 	bl	10cbfc <__multadd>
  10cce8:	e7f3      	b.n	10ccd2 <__s2b+0x60>
  10ccea:	e8bd 83f8 	ldmia.w	sp!, {r3, r4, r5, r6, r7, r8, r9, pc}

0010ccee <__hi0bits>:
  10ccee:	0c03      	lsrs	r3, r0, #16
  10ccf0:	041b      	lsls	r3, r3, #16
  10ccf2:	b913      	cbnz	r3, 10ccfa <__hi0bits+0xc>
  10ccf4:	0400      	lsls	r0, r0, #16
  10ccf6:	2310      	movs	r3, #16
  10ccf8:	e000      	b.n	10ccfc <__hi0bits+0xe>
  10ccfa:	2300      	movs	r3, #0
  10ccfc:	f010 4f7f 	tst.w	r0, #4278190080	; 0xff000000
  10cd00:	bf04      	itt	eq
  10cd02:	0200      	lsleq	r0, r0, #8
  10cd04:	3308      	addeq	r3, #8
  10cd06:	f010 4f70 	tst.w	r0, #4026531840	; 0xf0000000
  10cd0a:	bf04      	itt	eq
  10cd0c:	0100      	lsleq	r0, r0, #4
  10cd0e:	3304      	addeq	r3, #4
  10cd10:	f010 4f40 	tst.w	r0, #3221225472	; 0xc0000000
  10cd14:	bf04      	itt	eq
  10cd16:	0080      	lsleq	r0, r0, #2
  10cd18:	3302      	addeq	r3, #2
  10cd1a:	2800      	cmp	r0, #0
  10cd1c:	db03      	blt.n	10cd26 <__hi0bits+0x38>
  10cd1e:	0042      	lsls	r2, r0, #1
  10cd20:	d503      	bpl.n	10cd2a <__hi0bits+0x3c>
  10cd22:	1c58      	adds	r0, r3, #1
  10cd24:	4770      	bx	lr
  10cd26:	4618      	mov	r0, r3
  10cd28:	4770      	bx	lr
  10cd2a:	2020      	movs	r0, #32
  10cd2c:	4770      	bx	lr

0010cd2e <__lo0bits>:
  10cd2e:	6803      	ldr	r3, [r0, #0]
  10cd30:	f013 0207 	ands.w	r2, r3, #7
  10cd34:	d00b      	beq.n	10cd4e <__lo0bits+0x20>
  10cd36:	07d9      	lsls	r1, r3, #31
  10cd38:	d422      	bmi.n	10cd80 <__lo0bits+0x52>
  10cd3a:	079a      	lsls	r2, r3, #30
  10cd3c:	bf4b      	itete	mi
  10cd3e:	085b      	lsrmi	r3, r3, #1
  10cd40:	089b      	lsrpl	r3, r3, #2
  10cd42:	6003      	strmi	r3, [r0, #0]
  10cd44:	6003      	strpl	r3, [r0, #0]
  10cd46:	bf4c      	ite	mi
  10cd48:	2001      	movmi	r0, #1
  10cd4a:	2002      	movpl	r0, #2
  10cd4c:	4770      	bx	lr
  10cd4e:	b299      	uxth	r1, r3
  10cd50:	b909      	cbnz	r1, 10cd56 <__lo0bits+0x28>
  10cd52:	0c1b      	lsrs	r3, r3, #16
  10cd54:	2210      	movs	r2, #16
  10cd56:	f013 0fff 	tst.w	r3, #255	; 0xff
  10cd5a:	bf04      	itt	eq
  10cd5c:	0a1b      	lsreq	r3, r3, #8
  10cd5e:	3208      	addeq	r2, #8
  10cd60:	0719      	lsls	r1, r3, #28
  10cd62:	bf04      	itt	eq
  10cd64:	091b      	lsreq	r3, r3, #4
  10cd66:	3204      	addeq	r2, #4
  10cd68:	0799      	lsls	r1, r3, #30
  10cd6a:	bf04      	itt	eq
  10cd6c:	089b      	lsreq	r3, r3, #2
  10cd6e:	3202      	addeq	r2, #2
  10cd70:	07d9      	lsls	r1, r3, #31
  10cd72:	d402      	bmi.n	10cd7a <__lo0bits+0x4c>
  10cd74:	085b      	lsrs	r3, r3, #1
  10cd76:	d005      	beq.n	10cd84 <__lo0bits+0x56>
  10cd78:	3201      	adds	r2, #1
  10cd7a:	6003      	str	r3, [r0, #0]
  10cd7c:	4610      	mov	r0, r2
  10cd7e:	4770      	bx	lr
  10cd80:	2000      	movs	r0, #0
  10cd82:	4770      	bx	lr
  10cd84:	2020      	movs	r0, #32
  10cd86:	4770      	bx	lr

0010cd88 <__i2b>:
  10cd88:	b510      	push	{r4, lr}
  10cd8a:	460c      	mov	r4, r1
  10cd8c:	2101      	movs	r1, #1
  10cd8e:	f7ff fee9 	bl	10cb64 <_Balloc>
  10cd92:	2201      	movs	r2, #1
  10cd94:	6144      	str	r4, [r0, #20]
  10cd96:	6102      	str	r2, [r0, #16]
  10cd98:	bd10      	pop	{r4, pc}

0010cd9a <__multiply>:
  10cd9a:	e92d 4ff7 	stmdb	sp!, {r0, r1, r2, r4, r5, r6, r7, r8, r9, r10, r11, lr}
  10cd9e:	4614      	mov	r4, r2
  10cda0:	690a      	ldr	r2, [r1, #16]
  10cda2:	6923      	ldr	r3, [r4, #16]
  10cda4:	4688      	mov	r8, r1
  10cda6:	429a      	cmp	r2, r3
  10cda8:	bfbe      	ittt	lt
  10cdaa:	460b      	movlt	r3, r1
  10cdac:	46a0      	movlt	r8, r4
  10cdae:	461c      	movlt	r4, r3
  10cdb0:	f8d8 7010 	ldr.w	r7, [r8, #16]
  10cdb4:	f8d4 9010 	ldr.w	r9, [r4, #16]
  10cdb8:	f8d8 3008 	ldr.w	r3, [r8, #8]
  10cdbc:	f8d8 1004 	ldr.w	r1, [r8, #4]
  10cdc0:	eb07 0609 	add.w	r6, r7, r9
  10cdc4:	429e      	cmp	r6, r3
  10cdc6:	bfc8      	it	gt
  10cdc8:	3101      	addgt	r1, #1
  10cdca:	f7ff fecb 	bl	10cb64 <_Balloc>
  10cdce:	f100 0514 	add.w	r5, r0, #20
  10cdd2:	462b      	mov	r3, r5
  10cdd4:	eb05 0c86 	add.w	r12, r5, r6, lsl #2
  10cdd8:	2200      	movs	r2, #0
  10cdda:	4563      	cmp	r3, r12
  10cddc:	d202      	bcs.n	10cde4 <__multiply+0x4a>
  10cdde:	f843 2b04 	str.w	r2, [r3], #4
  10cde2:	e7fa      	b.n	10cdda <__multiply+0x40>
  10cde4:	f104 0214 	add.w	r2, r4, #20
  10cde8:	f108 0114 	add.w	r1, r8, #20
  10cdec:	eb02 0389 	add.w	r3, r2, r9, lsl #2
  10cdf0:	eb01 0787 	add.w	r7, r1, r7, lsl #2
  10cdf4:	9300      	str	r3, [sp, #0]
  10cdf6:	9b00      	ldr	r3, [sp, #0]
  10cdf8:	9201      	str	r2, [sp, #4]
  10cdfa:	4293      	cmp	r3, r2
  10cdfc:	d957      	bls.n	10ceae <__multiply+0x114>
  10cdfe:	f8b2 b000 	ldrh.w	r11, [r2]
  10ce02:	f1bb 0f00 	cmp.w	r11, #0
  10ce06:	d023      	beq.n	10ce50 <__multiply+0xb6>
  10ce08:	4689      	mov	r9, r1
  10ce0a:	46ae      	mov	lr, r5
  10ce0c:	f04f 0800 	mov.w	r8, #0
  10ce10:	f859 4b04 	ldr.w	r4, [r9], #4
  10ce14:	f8be a000 	ldrh.w	r10, [lr]
  10ce18:	b2a3      	uxth	r3, r4
  10ce1a:	fb0b a303 	mla	r3, r11, r3, r10
  10ce1e:	ea4f 4a14 	mov.w	r10, r4, lsr #16
  10ce22:	f8de 4000 	ldr.w	r4, [lr]
  10ce26:	4443      	add	r3, r8
  10ce28:	ea4f 4814 	mov.w	r8, r4, lsr #16
  10ce2c:	fb0b 840a 	mla	r4, r11, r10, r8
  10ce30:	46f2      	mov	r10, lr
  10ce32:	eb04 4413 	add.w	r4, r4, r3, lsr #16
  10ce36:	b29b      	uxth	r3, r3
  10ce38:	ea43 4304 	orr.w	r3, r3, r4, lsl #16
  10ce3c:	454f      	cmp	r7, r9
  10ce3e:	ea4f 4814 	mov.w	r8, r4, lsr #16
  10ce42:	f84a 3b04 	str.w	r3, [r10], #4
  10ce46:	d901      	bls.n	10ce4c <__multiply+0xb2>
  10ce48:	46d6      	mov	lr, r10
  10ce4a:	e7e1      	b.n	10ce10 <__multiply+0x76>
  10ce4c:	f8ce 8004 	str.w	r8, [lr, #4]
  10ce50:	9b01      	ldr	r3, [sp, #4]
  10ce52:	3204      	adds	r2, #4
  10ce54:	f8b3 a002 	ldrh.w	r10, [r3, #2]
  10ce58:	f1ba 0f00 	cmp.w	r10, #0
  10ce5c:	d021      	beq.n	10cea2 <__multiply+0x108>
  10ce5e:	462c      	mov	r4, r5
  10ce60:	4689      	mov	r9, r1
  10ce62:	682b      	ldr	r3, [r5, #0]
  10ce64:	f04f 0800 	mov.w	r8, #0
  10ce68:	f8b9 e000 	ldrh.w	lr, [r9]
  10ce6c:	f8b4 b002 	ldrh.w	r11, [r4, #2]
  10ce70:	b29b      	uxth	r3, r3
  10ce72:	fb0a be0e 	mla	lr, r10, lr, r11
  10ce76:	46a3      	mov	r11, r4
  10ce78:	44f0      	add	r8, lr
  10ce7a:	ea43 4308 	orr.w	r3, r3, r8, lsl #16
  10ce7e:	f84b 3b04 	str.w	r3, [r11], #4
  10ce82:	f859 3b04 	ldr.w	r3, [r9], #4
  10ce86:	f8b4 e004 	ldrh.w	lr, [r4, #4]
  10ce8a:	0c1b      	lsrs	r3, r3, #16
  10ce8c:	fb0a e303 	mla	r3, r10, r3, lr
  10ce90:	454f      	cmp	r7, r9
  10ce92:	eb03 4318 	add.w	r3, r3, r8, lsr #16
  10ce96:	ea4f 4813 	mov.w	r8, r3, lsr #16
  10ce9a:	d901      	bls.n	10cea0 <__multiply+0x106>
  10ce9c:	465c      	mov	r4, r11
  10ce9e:	e7e3      	b.n	10ce68 <__multiply+0xce>
  10cea0:	6063      	str	r3, [r4, #4]
  10cea2:	3504      	adds	r5, #4
  10cea4:	e7a7      	b.n	10cdf6 <__multiply+0x5c>
  10cea6:	f85c 3d04 	ldr.w	r3, [r12, #-4]!
  10ceaa:	b913      	cbnz	r3, 10ceb2 <__multiply+0x118>
  10ceac:	3e01      	subs	r6, #1
  10ceae:	2e00      	cmp	r6, #0
  10ceb0:	dcf9      	bgt.n	10cea6 <__multiply+0x10c>
  10ceb2:	6106      	str	r6, [r0, #16]
  10ceb4:	b003      	add	sp, #12
  10ceb6:	e8bd 8ff0 	ldmia.w	sp!, {r4, r5, r6, r7, r8, r9, r10, r11, pc}
	...

0010cebc <__pow5mult>:
  10cebc:	e92d 43f8 	stmdb	sp!, {r3, r4, r5, r6, r7, r8, r9, lr}
  10cec0:	4615      	mov	r5, r2
  10cec2:	f012 0203 	ands.w	r2, r2, #3
  10cec6:	4606      	mov	r6, r0
  10cec8:	460f      	mov	r7, r1
  10ceca:	d007      	beq.n	10cedc <__pow5mult+0x20>
  10cecc:	4c21      	ldr	r4, [pc, #132]	; (10cf54 <__pow5mult+0x98>)
  10cece:	3a01      	subs	r2, #1
  10ced0:	2300      	movs	r3, #0
  10ced2:	f854 2022 	ldr.w	r2, [r4, r2, lsl #2]
  10ced6:	f7ff fe91 	bl	10cbfc <__multadd>
  10ceda:	4607      	mov	r7, r0
  10cedc:	10ad      	asrs	r5, r5, #2
  10cede:	d036      	beq.n	10cf4e <__pow5mult+0x92>
  10cee0:	6a74      	ldr	r4, [r6, #36]	; 0x24
  10cee2:	b93c      	cbnz	r4, 10cef4 <__pow5mult+0x38>
  10cee4:	2010      	movs	r0, #16
  10cee6:	f7f5 fc5d 	bl	1027a4 <__wrap_malloc>
  10ceea:	6270      	str	r0, [r6, #36]	; 0x24
  10ceec:	6044      	str	r4, [r0, #4]
  10ceee:	6084      	str	r4, [r0, #8]
  10cef0:	6004      	str	r4, [r0, #0]
  10cef2:	60c4      	str	r4, [r0, #12]
  10cef4:	f8d6 8024 	ldr.w	r8, [r6, #36]	; 0x24
  10cef8:	f8d8 4008 	ldr.w	r4, [r8, #8]
  10cefc:	b94c      	cbnz	r4, 10cf12 <__pow5mult+0x56>
  10cefe:	f240 2171 	movw	r1, #625	; 0x271
  10cf02:	4630      	mov	r0, r6
  10cf04:	f7ff ff40 	bl	10cd88 <__i2b>
  10cf08:	4604      	mov	r4, r0
  10cf0a:	2300      	movs	r3, #0
  10cf0c:	f8c8 0008 	str.w	r0, [r8, #8]
  10cf10:	6003      	str	r3, [r0, #0]
  10cf12:	f04f 0800 	mov.w	r8, #0
  10cf16:	07eb      	lsls	r3, r5, #31
  10cf18:	d50a      	bpl.n	10cf30 <__pow5mult+0x74>
  10cf1a:	4639      	mov	r1, r7
  10cf1c:	4622      	mov	r2, r4
  10cf1e:	4630      	mov	r0, r6
  10cf20:	f7ff ff3b 	bl	10cd9a <__multiply>
  10cf24:	4681      	mov	r9, r0
  10cf26:	4639      	mov	r1, r7
  10cf28:	4630      	mov	r0, r6
  10cf2a:	f7ff fe50 	bl	10cbce <_Bfree>
  10cf2e:	464f      	mov	r7, r9
  10cf30:	106d      	asrs	r5, r5, #1
  10cf32:	d00c      	beq.n	10cf4e <__pow5mult+0x92>
  10cf34:	6820      	ldr	r0, [r4, #0]
  10cf36:	b108      	cbz	r0, 10cf3c <__pow5mult+0x80>
  10cf38:	4604      	mov	r4, r0
  10cf3a:	e7ec      	b.n	10cf16 <__pow5mult+0x5a>
  10cf3c:	4622      	mov	r2, r4
  10cf3e:	4621      	mov	r1, r4
  10cf40:	4630      	mov	r0, r6
  10cf42:	f7ff ff2a 	bl	10cd9a <__multiply>
  10cf46:	6020      	str	r0, [r4, #0]
  10cf48:	f8c0 8000 	str.w	r8, [r0]
  10cf4c:	e7f4      	b.n	10cf38 <__pow5mult+0x7c>
  10cf4e:	4638      	mov	r0, r7
  10cf50:	e8bd 83f8 	ldmia.w	sp!, {r3, r4, r5, r6, r7, r8, r9, pc}
  10cf54:	0010ea90 	.word	0x0010ea90

0010cf58 <__lshift>:
  10cf58:	e92d 47f0 	stmdb	sp!, {r4, r5, r6, r7, r8, r9, r10, lr}
  10cf5c:	460c      	mov	r4, r1
  10cf5e:	4607      	mov	r7, r0
  10cf60:	4691      	mov	r9, r2
  10cf62:	6926      	ldr	r6, [r4, #16]
  10cf64:	ea4f 1a62 	mov.w	r10, r2, asr #5
  10cf68:	4456      	add	r6, r10
  10cf6a:	6849      	ldr	r1, [r1, #4]
  10cf6c:	68a3      	ldr	r3, [r4, #8]
  10cf6e:	1c75      	adds	r5, r6, #1
  10cf70:	42ab      	cmp	r3, r5
  10cf72:	da02      	bge.n	10cf7a <__lshift+0x22>
  10cf74:	3101      	adds	r1, #1
  10cf76:	005b      	lsls	r3, r3, #1
  10cf78:	e7fa      	b.n	10cf70 <__lshift+0x18>
  10cf7a:	4638      	mov	r0, r7
  10cf7c:	f7ff fdf2 	bl	10cb64 <_Balloc>
  10cf80:	2300      	movs	r3, #0
  10cf82:	4680      	mov	r8, r0
  10cf84:	461a      	mov	r2, r3
  10cf86:	f100 0114 	add.w	r1, r0, #20
  10cf8a:	4553      	cmp	r3, r10
  10cf8c:	da03      	bge.n	10cf96 <__lshift+0x3e>
  10cf8e:	f841 2023 	str.w	r2, [r1, r3, lsl #2]
  10cf92:	3301      	adds	r3, #1
  10cf94:	e7f9      	b.n	10cf8a <__lshift+0x32>
  10cf96:	ea2a 73ea 	bic.w	r3, r10, r10, asr #31
  10cf9a:	6920      	ldr	r0, [r4, #16]
  10cf9c:	eb01 0383 	add.w	r3, r1, r3, lsl #2
  10cfa0:	f019 091f 	ands.w	r9, r9, #31
  10cfa4:	f104 0114 	add.w	r1, r4, #20
  10cfa8:	eb01 0e80 	add.w	lr, r1, r0, lsl #2
  10cfac:	d014      	beq.n	10cfd8 <__lshift+0x80>
  10cfae:	f1c9 0c20 	rsb	r12, r9, #32
  10cfb2:	2200      	movs	r2, #0
  10cfb4:	6808      	ldr	r0, [r1, #0]
  10cfb6:	469a      	mov	r10, r3
  10cfb8:	fa00 f009 	lsl.w	r0, r0, r9
  10cfbc:	4302      	orrs	r2, r0
  10cfbe:	f843 2b04 	str.w	r2, [r3], #4
  10cfc2:	f851 2b04 	ldr.w	r2, [r1], #4
  10cfc6:	458e      	cmp	lr, r1
  10cfc8:	fa22 f20c 	lsr.w	r2, r2, r12
  10cfcc:	d8f2      	bhi.n	10cfb4 <__lshift+0x5c>
  10cfce:	f8ca 2004 	str.w	r2, [r10, #4]
  10cfd2:	b142      	cbz	r2, 10cfe6 <__lshift+0x8e>
  10cfd4:	1cb5      	adds	r5, r6, #2
  10cfd6:	e006      	b.n	10cfe6 <__lshift+0x8e>
  10cfd8:	3b04      	subs	r3, #4
  10cfda:	f851 2b04 	ldr.w	r2, [r1], #4
  10cfde:	458e      	cmp	lr, r1
  10cfe0:	f843 2f04 	str.w	r2, [r3, #4]!
  10cfe4:	d8f9      	bhi.n	10cfda <__lshift+0x82>
  10cfe6:	3d01      	subs	r5, #1
  10cfe8:	4638      	mov	r0, r7
  10cfea:	f8c8 5010 	str.w	r5, [r8, #16]
  10cfee:	4621      	mov	r1, r4
  10cff0:	f7ff fded 	bl	10cbce <_Bfree>
  10cff4:	4640      	mov	r0, r8
  10cff6:	e8bd 87f0 	ldmia.w	sp!, {r4, r5, r6, r7, r8, r9, r10, pc}

0010cffa <__mcmp>:
  10cffa:	6903      	ldr	r3, [r0, #16]
  10cffc:	690a      	ldr	r2, [r1, #16]
  10cffe:	b510      	push	{r4, lr}
  10d000:	1a9b      	subs	r3, r3, r2
  10d002:	d111      	bne.n	10d028 <__mcmp+0x2e>
  10d004:	0092      	lsls	r2, r2, #2
  10d006:	3014      	adds	r0, #20
  10d008:	3114      	adds	r1, #20
  10d00a:	1883      	adds	r3, r0, r2
  10d00c:	440a      	add	r2, r1
  10d00e:	f853 4d04 	ldr.w	r4, [r3, #-4]!
  10d012:	f852 1d04 	ldr.w	r1, [r2, #-4]!
  10d016:	428c      	cmp	r4, r1
  10d018:	d002      	beq.n	10d020 <__mcmp+0x26>
  10d01a:	d307      	bcc.n	10d02c <__mcmp+0x32>
  10d01c:	2001      	movs	r0, #1
  10d01e:	bd10      	pop	{r4, pc}
  10d020:	4298      	cmp	r0, r3
  10d022:	d3f4      	bcc.n	10d00e <__mcmp+0x14>
  10d024:	2000      	movs	r0, #0
  10d026:	bd10      	pop	{r4, pc}
  10d028:	4618      	mov	r0, r3
  10d02a:	bd10      	pop	{r4, pc}
  10d02c:	f04f 30ff 	mov.w	r0, #4294967295
  10d030:	bd10      	pop	{r4, pc}

0010d032 <__mdiff>:
  10d032:	e92d 43f8 	stmdb	sp!, {r3, r4, r5, r6, r7, r8, r9, lr}
  10d036:	460c      	mov	r4, r1
  10d038:	4607      	mov	r7, r0
  10d03a:	4611      	mov	r1, r2
  10d03c:	4620      	mov	r0, r4
  10d03e:	4615      	mov	r5, r2
  10d040:	f7ff ffdb 	bl	10cffa <__mcmp>
  10d044:	1e06      	subs	r6, r0, #0
  10d046:	d108      	bne.n	10d05a <__mdiff+0x28>
  10d048:	4631      	mov	r1, r6
  10d04a:	4638      	mov	r0, r7
  10d04c:	f7ff fd8a 	bl	10cb64 <_Balloc>
  10d050:	2301      	movs	r3, #1
  10d052:	6103      	str	r3, [r0, #16]
  10d054:	6146      	str	r6, [r0, #20]
  10d056:	e8bd 83f8 	ldmia.w	sp!, {r3, r4, r5, r6, r7, r8, r9, pc}
  10d05a:	bfbc      	itt	lt
  10d05c:	4623      	movlt	r3, r4
  10d05e:	462c      	movlt	r4, r5
  10d060:	4638      	mov	r0, r7
  10d062:	6861      	ldr	r1, [r4, #4]
  10d064:	bfba      	itte	lt
  10d066:	461d      	movlt	r5, r3
  10d068:	2601      	movlt	r6, #1
  10d06a:	2600      	movge	r6, #0
  10d06c:	f7ff fd7a 	bl	10cb64 <_Balloc>
  10d070:	692b      	ldr	r3, [r5, #16]
  10d072:	60c6      	str	r6, [r0, #12]
  10d074:	6926      	ldr	r6, [r4, #16]
  10d076:	f105 0914 	add.w	r9, r5, #20
  10d07a:	f104 0114 	add.w	r1, r4, #20
  10d07e:	eb01 0786 	add.w	r7, r1, r6, lsl #2
  10d082:	eb09 0883 	add.w	r8, r9, r3, lsl #2
  10d086:	f100 0514 	add.w	r5, r0, #20
  10d08a:	f04f 0c00 	mov.w	r12, #0
  10d08e:	f851 2b04 	ldr.w	r2, [r1], #4
  10d092:	f859 4b04 	ldr.w	r4, [r9], #4
  10d096:	b293      	uxth	r3, r2
  10d098:	449c      	add	r12, r3
  10d09a:	b2a3      	uxth	r3, r4
  10d09c:	0c24      	lsrs	r4, r4, #16
  10d09e:	ebc3 030c 	rsb	r3, r3, r12
  10d0a2:	ebc4 4212 	rsb	r2, r4, r2, lsr #16
  10d0a6:	eb02 4223 	add.w	r2, r2, r3, asr #16
  10d0aa:	b29b      	uxth	r3, r3
  10d0ac:	ea4f 4c22 	mov.w	r12, r2, asr #16
  10d0b0:	45c8      	cmp	r8, r9
  10d0b2:	ea43 4202 	orr.w	r2, r3, r2, lsl #16
  10d0b6:	468e      	mov	lr, r1
  10d0b8:	f845 2b04 	str.w	r2, [r5], #4
  10d0bc:	d8e7      	bhi.n	10d08e <__mdiff+0x5c>
  10d0be:	45be      	cmp	lr, r7
  10d0c0:	d20e      	bcs.n	10d0e0 <__mdiff+0xae>
  10d0c2:	f85e 1b04 	ldr.w	r1, [lr], #4
  10d0c6:	b28a      	uxth	r2, r1
  10d0c8:	4462      	add	r2, r12
  10d0ca:	1413      	asrs	r3, r2, #16
  10d0cc:	eb03 4311 	add.w	r3, r3, r1, lsr #16
  10d0d0:	b292      	uxth	r2, r2
  10d0d2:	ea42 4203 	orr.w	r2, r2, r3, lsl #16
  10d0d6:	ea4f 4c23 	mov.w	r12, r3, asr #16
  10d0da:	f845 2b04 	str.w	r2, [r5], #4
  10d0de:	e7ee      	b.n	10d0be <__mdiff+0x8c>
  10d0e0:	f855 3d04 	ldr.w	r3, [r5, #-4]!
  10d0e4:	b90b      	cbnz	r3, 10d0ea <__mdiff+0xb8>
  10d0e6:	3e01      	subs	r6, #1
  10d0e8:	e7fa      	b.n	10d0e0 <__mdiff+0xae>
  10d0ea:	6106      	str	r6, [r0, #16]
  10d0ec:	e8bd 83f8 	ldmia.w	sp!, {r3, r4, r5, r6, r7, r8, r9, pc}

0010d0f0 <__ulp>:
  10d0f0:	4b10      	ldr	r3, [pc, #64]	; (10d134 <__ulp+0x44>)
  10d0f2:	400b      	ands	r3, r1
  10d0f4:	f1a3 7350 	sub.w	r3, r3, #54525952	; 0x3400000
  10d0f8:	2b00      	cmp	r3, #0
  10d0fa:	dd02      	ble.n	10d102 <__ulp+0x12>
  10d0fc:	2000      	movs	r0, #0
  10d0fe:	4619      	mov	r1, r3
  10d100:	4770      	bx	lr
  10d102:	425b      	negs	r3, r3
  10d104:	151b      	asrs	r3, r3, #20
  10d106:	2b13      	cmp	r3, #19
  10d108:	f04f 0000 	mov.w	r0, #0
  10d10c:	f04f 0100 	mov.w	r1, #0
  10d110:	dc04      	bgt.n	10d11c <__ulp+0x2c>
  10d112:	f44f 2200 	mov.w	r2, #524288	; 0x80000
  10d116:	fa42 f103 	asr.w	r1, r2, r3
  10d11a:	4770      	bx	lr
  10d11c:	3b14      	subs	r3, #20
  10d11e:	2b1e      	cmp	r3, #30
  10d120:	f04f 0201 	mov.w	r2, #1
  10d124:	bfce      	itee	gt
  10d126:	4613      	movgt	r3, r2
  10d128:	f1c3 031f 	rsble	r3, r3, #31
  10d12c:	fa02 f303 	lslle.w	r3, r2, r3
  10d130:	4618      	mov	r0, r3
  10d132:	4770      	bx	lr
  10d134:	7ff00000 	.word	0x7ff00000

0010d138 <__b2d>:
  10d138:	b5f8      	push	{r3, r4, r5, r6, r7, lr}
  10d13a:	6905      	ldr	r5, [r0, #16]
  10d13c:	f100 0614 	add.w	r6, r0, #20
  10d140:	eb06 0585 	add.w	r5, r6, r5, lsl #2
  10d144:	f855 4c04 	ldr.w	r4, [r5, #-4]
  10d148:	1f2f      	subs	r7, r5, #4
  10d14a:	4620      	mov	r0, r4
  10d14c:	f7ff fdcf 	bl	10ccee <__hi0bits>
  10d150:	f1c0 0320 	rsb	r3, r0, #32
  10d154:	280a      	cmp	r0, #10
  10d156:	600b      	str	r3, [r1, #0]
  10d158:	dc14      	bgt.n	10d184 <__b2d+0x4c>
  10d15a:	f1c0 0e0b 	rsb	lr, r0, #11
  10d15e:	fa24 f10e 	lsr.w	r1, r4, lr
  10d162:	42be      	cmp	r6, r7
  10d164:	f041 537f 	orr.w	r3, r1, #1069547520	; 0x3fc00000
  10d168:	bf34      	ite	cc
  10d16a:	f855 1c08 	ldrcc.w	r1, [r5, #-8]
  10d16e:	2100      	movcs	r1, #0
  10d170:	3015      	adds	r0, #21
  10d172:	fa04 f000 	lsl.w	r0, r4, r0
  10d176:	fa21 f10e 	lsr.w	r1, r1, lr
  10d17a:	f443 1340 	orr.w	r3, r3, #3145728	; 0x300000
  10d17e:	ea40 0201 	orr.w	r2, r0, r1
  10d182:	e023      	b.n	10d1cc <__b2d+0x94>
  10d184:	42be      	cmp	r6, r7
  10d186:	bf3a      	itte	cc
  10d188:	f1a5 0708 	subcc.w	r7, r5, #8
  10d18c:	f855 1c08 	ldrcc.w	r1, [r5, #-8]
  10d190:	2100      	movcs	r1, #0
  10d192:	380b      	subs	r0, #11
  10d194:	d015      	beq.n	10d1c2 <__b2d+0x8a>
  10d196:	4084      	lsls	r4, r0
  10d198:	f1c0 0520 	rsb	r5, r0, #32
  10d19c:	f044 547f 	orr.w	r4, r4, #1069547520	; 0x3fc00000
  10d1a0:	f444 1440 	orr.w	r4, r4, #3145728	; 0x300000
  10d1a4:	42b7      	cmp	r7, r6
  10d1a6:	fa21 fe05 	lsr.w	lr, r1, r5
  10d1aa:	ea44 030e 	orr.w	r3, r4, lr
  10d1ae:	bf8c      	ite	hi
  10d1b0:	f857 4c04 	ldrhi.w	r4, [r7, #-4]
  10d1b4:	2400      	movls	r4, #0
  10d1b6:	fa01 f000 	lsl.w	r0, r1, r0
  10d1ba:	40ec      	lsrs	r4, r5
  10d1bc:	ea40 0204 	orr.w	r2, r0, r4
  10d1c0:	e004      	b.n	10d1cc <__b2d+0x94>
  10d1c2:	460a      	mov	r2, r1
  10d1c4:	f044 537f 	orr.w	r3, r4, #1069547520	; 0x3fc00000
  10d1c8:	f443 1340 	orr.w	r3, r3, #3145728	; 0x300000
  10d1cc:	4610      	mov	r0, r2
  10d1ce:	4619      	mov	r1, r3
  10d1d0:	bdf8      	pop	{r3, r4, r5, r6, r7, pc}

0010d1d2 <__d2b>:
  10d1d2:	e92d 41f3 	stmdb	sp!, {r0, r1, r4, r5, r6, r7, r8, lr}
  10d1d6:	461c      	mov	r4, r3
  10d1d8:	2101      	movs	r1, #1
  10d1da:	4690      	mov	r8, r2
  10d1dc:	9e08      	ldr	r6, [sp, #32]
  10d1de:	9d09      	ldr	r5, [sp, #36]	; 0x24
  10d1e0:	f7ff fcc0 	bl	10cb64 <_Balloc>
  10d1e4:	f3c4 0213 	ubfx	r2, r4, #0, #20
  10d1e8:	f3c4 540a 	ubfx	r4, r4, #20, #11
  10d1ec:	4607      	mov	r7, r0
  10d1ee:	b10c      	cbz	r4, 10d1f4 <__d2b+0x22>
  10d1f0:	f442 1280 	orr.w	r2, r2, #1048576	; 0x100000
  10d1f4:	9201      	str	r2, [sp, #4]
  10d1f6:	f1b8 0f00 	cmp.w	r8, #0
  10d1fa:	d019      	beq.n	10d230 <__d2b+0x5e>
  10d1fc:	a802      	add	r0, sp, #8
  10d1fe:	f840 8d08 	str.w	r8, [r0, #-8]!
  10d202:	f7ff fd94 	bl	10cd2e <__lo0bits>
  10d206:	9b00      	ldr	r3, [sp, #0]
  10d208:	b148      	cbz	r0, 10d21e <__d2b+0x4c>
  10d20a:	9a01      	ldr	r2, [sp, #4]
  10d20c:	f1c0 0120 	rsb	r1, r0, #32
  10d210:	fa02 f101 	lsl.w	r1, r2, r1
  10d214:	430b      	orrs	r3, r1
  10d216:	40c2      	lsrs	r2, r0
  10d218:	617b      	str	r3, [r7, #20]
  10d21a:	9201      	str	r2, [sp, #4]
  10d21c:	e000      	b.n	10d220 <__d2b+0x4e>
  10d21e:	617b      	str	r3, [r7, #20]
  10d220:	9b01      	ldr	r3, [sp, #4]
  10d222:	2b00      	cmp	r3, #0
  10d224:	bf14      	ite	ne
  10d226:	2102      	movne	r1, #2
  10d228:	2101      	moveq	r1, #1
  10d22a:	61bb      	str	r3, [r7, #24]
  10d22c:	6139      	str	r1, [r7, #16]
  10d22e:	e007      	b.n	10d240 <__d2b+0x6e>
  10d230:	a801      	add	r0, sp, #4
  10d232:	f7ff fd7c 	bl	10cd2e <__lo0bits>
  10d236:	9b01      	ldr	r3, [sp, #4]
  10d238:	2101      	movs	r1, #1
  10d23a:	617b      	str	r3, [r7, #20]
  10d23c:	6139      	str	r1, [r7, #16]
  10d23e:	3020      	adds	r0, #32
  10d240:	b134      	cbz	r4, 10d250 <__d2b+0x7e>
  10d242:	f2a4 4433 	subw	r4, r4, #1075	; 0x433
  10d246:	4404      	add	r4, r0
  10d248:	6034      	str	r4, [r6, #0]
  10d24a:	f1c0 0035 	rsb	r0, r0, #53	; 0x35
  10d24e:	e009      	b.n	10d264 <__d2b+0x92>
  10d250:	f2a0 4032 	subw	r0, r0, #1074	; 0x432
  10d254:	eb07 0381 	add.w	r3, r7, r1, lsl #2
  10d258:	6030      	str	r0, [r6, #0]
  10d25a:	6918      	ldr	r0, [r3, #16]
  10d25c:	f7ff fd47 	bl	10ccee <__hi0bits>
  10d260:	ebc0 1041 	rsb	r0, r0, r1, lsl #5
  10d264:	6028      	str	r0, [r5, #0]
  10d266:	4638      	mov	r0, r7
  10d268:	b002      	add	sp, #8
  10d26a:	e8bd 81f0 	ldmia.w	sp!, {r4, r5, r6, r7, r8, pc}

0010d26e <__ratio>:
  10d26e:	e92d 43f7 	stmdb	sp!, {r0, r1, r2, r4, r5, r6, r7, r8, r9, lr}
  10d272:	4688      	mov	r8, r1
  10d274:	4669      	mov	r1, sp
  10d276:	4681      	mov	r9, r0
  10d278:	f7ff ff5e 	bl	10d138 <__b2d>
  10d27c:	460d      	mov	r5, r1
  10d27e:	4604      	mov	r4, r0
  10d280:	a901      	add	r1, sp, #4
  10d282:	4640      	mov	r0, r8
  10d284:	f7ff ff58 	bl	10d138 <__b2d>
  10d288:	460f      	mov	r7, r1
  10d28a:	4606      	mov	r6, r0
  10d28c:	f8d9 3010 	ldr.w	r3, [r9, #16]
  10d290:	f8d8 2010 	ldr.w	r2, [r8, #16]
  10d294:	4620      	mov	r0, r4
  10d296:	1a9a      	subs	r2, r3, r2
  10d298:	e89d 000a 	ldmia.w	sp, {r1, r3}
  10d29c:	1ac9      	subs	r1, r1, r3
  10d29e:	eb01 1342 	add.w	r3, r1, r2, lsl #5
  10d2a2:	2b00      	cmp	r3, #0
  10d2a4:	bfcc      	ite	gt
  10d2a6:	eb05 5503 	addgt.w	r5, r5, r3, lsl #20
  10d2aa:	eba7 5703 	suble.w	r7, r7, r3, lsl #20
  10d2ae:	4632      	mov	r2, r6
  10d2b0:	463b      	mov	r3, r7
  10d2b2:	4629      	mov	r1, r5
  10d2b4:	f000 fcb0 	bl	10dc18 <__aeabi_ddiv>
  10d2b8:	b003      	add	sp, #12
  10d2ba:	e8bd 83f0 	ldmia.w	sp!, {r4, r5, r6, r7, r8, r9, pc}

0010d2be <__copybits>:
  10d2be:	3901      	subs	r1, #1
  10d2c0:	b510      	push	{r4, lr}
  10d2c2:	1149      	asrs	r1, r1, #5
  10d2c4:	6914      	ldr	r4, [r2, #16]
  10d2c6:	3101      	adds	r1, #1
  10d2c8:	f102 0314 	add.w	r3, r2, #20
  10d2cc:	eb00 0181 	add.w	r1, r0, r1, lsl #2
  10d2d0:	eb03 0484 	add.w	r4, r3, r4, lsl #2
  10d2d4:	42a3      	cmp	r3, r4
  10d2d6:	4602      	mov	r2, r0
  10d2d8:	d204      	bcs.n	10d2e4 <__copybits+0x26>
  10d2da:	f853 2b04 	ldr.w	r2, [r3], #4
  10d2de:	f840 2b04 	str.w	r2, [r0], #4
  10d2e2:	e7f7      	b.n	10d2d4 <__copybits+0x16>
  10d2e4:	2300      	movs	r3, #0
  10d2e6:	428a      	cmp	r2, r1
  10d2e8:	d202      	bcs.n	10d2f0 <__copybits+0x32>
  10d2ea:	f842 3b04 	str.w	r3, [r2], #4
  10d2ee:	e7fa      	b.n	10d2e6 <__copybits+0x28>
  10d2f0:	bd10      	pop	{r4, pc}

0010d2f2 <__any_on>:
  10d2f2:	f100 0214 	add.w	r2, r0, #20
  10d2f6:	6900      	ldr	r0, [r0, #16]
  10d2f8:	114b      	asrs	r3, r1, #5
  10d2fa:	4298      	cmp	r0, r3
  10d2fc:	b510      	push	{r4, lr}
  10d2fe:	db0c      	blt.n	10d31a <__any_on+0x28>
  10d300:	dd0c      	ble.n	10d31c <__any_on+0x2a>
  10d302:	f011 011f 	ands.w	r1, r1, #31
  10d306:	d009      	beq.n	10d31c <__any_on+0x2a>
  10d308:	f852 4023 	ldr.w	r4, [r2, r3, lsl #2]
  10d30c:	fa24 f001 	lsr.w	r0, r4, r1
  10d310:	fa00 f101 	lsl.w	r1, r0, r1
  10d314:	428c      	cmp	r4, r1
  10d316:	d10c      	bne.n	10d332 <__any_on+0x40>
  10d318:	e000      	b.n	10d31c <__any_on+0x2a>
  10d31a:	4603      	mov	r3, r0
  10d31c:	eb02 0383 	add.w	r3, r2, r3, lsl #2
  10d320:	4293      	cmp	r3, r2
  10d322:	d904      	bls.n	10d32e <__any_on+0x3c>
  10d324:	f853 1d04 	ldr.w	r1, [r3, #-4]!
  10d328:	2900      	cmp	r1, #0
  10d32a:	d0f9      	beq.n	10d320 <__any_on+0x2e>
  10d32c:	e001      	b.n	10d332 <__any_on+0x40>
  10d32e:	2000      	movs	r0, #0
  10d330:	bd10      	pop	{r4, pc}
  10d332:	2001      	movs	r0, #1
  10d334:	bd10      	pop	{r4, pc}

0010d336 <_calloc_r>:
  10d336:	b538      	push	{r3, r4, r5, lr}
  10d338:	fb02 f401 	mul.w	r4, r2, r1
  10d33c:	4621      	mov	r1, r4
  10d33e:	f7fb feab 	bl	109098 <_malloc_r>
  10d342:	4605      	mov	r5, r0
  10d344:	b118      	cbz	r0, 10d34e <_calloc_r+0x18>
  10d346:	4622      	mov	r2, r4
  10d348:	2100      	movs	r1, #0
  10d34a:	f7fb fe59 	bl	109000 <memset>
  10d34e:	4628      	mov	r0, r5
  10d350:	bd38      	pop	{r3, r4, r5, pc}

0010d352 <_realloc_r>:
  10d352:	b5f8      	push	{r3, r4, r5, r6, r7, lr}
  10d354:	4607      	mov	r7, r0
  10d356:	4615      	mov	r5, r2
  10d358:	460e      	mov	r6, r1
  10d35a:	b921      	cbnz	r1, 10d366 <_realloc_r+0x14>
  10d35c:	4611      	mov	r1, r2
  10d35e:	e8bd 40f8 	ldmia.w	sp!, {r3, r4, r5, r6, r7, lr}
  10d362:	f7fb be99 	b.w	109098 <_malloc_r>
  10d366:	b91a      	cbnz	r2, 10d370 <_realloc_r+0x1e>
  10d368:	f7fb fe52 	bl	109010 <_free_r>
  10d36c:	4628      	mov	r0, r5
  10d36e:	bdf8      	pop	{r3, r4, r5, r6, r7, pc}
  10d370:	f000 fb1e 	bl	10d9b0 <_malloc_usable_size_r>
  10d374:	4285      	cmp	r5, r0
  10d376:	d90e      	bls.n	10d396 <_realloc_r+0x44>
  10d378:	4629      	mov	r1, r5
  10d37a:	4638      	mov	r0, r7
  10d37c:	f7fb fe8c 	bl	109098 <_malloc_r>
  10d380:	4604      	mov	r4, r0
  10d382:	b150      	cbz	r0, 10d39a <_realloc_r+0x48>
  10d384:	4631      	mov	r1, r6
  10d386:	462a      	mov	r2, r5
  10d388:	f7fb fe14 	bl	108fb4 <memcpy>
  10d38c:	4631      	mov	r1, r6
  10d38e:	4638      	mov	r0, r7
  10d390:	f7fb fe3e 	bl	109010 <_free_r>
  10d394:	e001      	b.n	10d39a <_realloc_r+0x48>
  10d396:	4630      	mov	r0, r6
  10d398:	bdf8      	pop	{r3, r4, r5, r6, r7, pc}
  10d39a:	4620      	mov	r0, r4
  10d39c:	bdf8      	pop	{r3, r4, r5, r6, r7, pc}

0010d39e <__ssputs_r>:
  10d39e:	e92d 47f0 	stmdb	sp!, {r4, r5, r6, r7, r8, r9, r10, lr}
  10d3a2:	688e      	ldr	r6, [r1, #8]
  10d3a4:	4682      	mov	r10, r0
  10d3a6:	429e      	cmp	r6, r3
  10d3a8:	460c      	mov	r4, r1
  10d3aa:	4691      	mov	r9, r2
  10d3ac:	4698      	mov	r8, r3
  10d3ae:	d83e      	bhi.n	10d42e <__ssputs_r+0x90>
  10d3b0:	898a      	ldrh	r2, [r1, #12]
  10d3b2:	f412 6f90 	tst.w	r2, #1152	; 0x480
  10d3b6:	d03a      	beq.n	10d42e <__ssputs_r+0x90>
  10d3b8:	6825      	ldr	r5, [r4, #0]
  10d3ba:	6909      	ldr	r1, [r1, #16]
  10d3bc:	2302      	movs	r3, #2
  10d3be:	1a6f      	subs	r7, r5, r1
  10d3c0:	6965      	ldr	r5, [r4, #20]
  10d3c2:	eb05 0545 	add.w	r5, r5, r5, lsl #1
  10d3c6:	fb95 f5f3 	sdiv	r5, r5, r3
  10d3ca:	1c7b      	adds	r3, r7, #1
  10d3cc:	4443      	add	r3, r8
  10d3ce:	429d      	cmp	r5, r3
  10d3d0:	bf38      	it	cc
  10d3d2:	461d      	movcc	r5, r3
  10d3d4:	0553      	lsls	r3, r2, #21
  10d3d6:	d50f      	bpl.n	10d3f8 <__ssputs_r+0x5a>
  10d3d8:	4629      	mov	r1, r5
  10d3da:	f7fb fe5d 	bl	109098 <_malloc_r>
  10d3de:	4606      	mov	r6, r0
  10d3e0:	b198      	cbz	r0, 10d40a <__ssputs_r+0x6c>
  10d3e2:	463a      	mov	r2, r7
  10d3e4:	6921      	ldr	r1, [r4, #16]
  10d3e6:	f7fb fde5 	bl	108fb4 <memcpy>
  10d3ea:	89a3      	ldrh	r3, [r4, #12]
  10d3ec:	f423 6390 	bic.w	r3, r3, #1152	; 0x480
  10d3f0:	f043 0380 	orr.w	r3, r3, #128	; 0x80
  10d3f4:	81a3      	strh	r3, [r4, #12]
  10d3f6:	e013      	b.n	10d420 <__ssputs_r+0x82>
  10d3f8:	462a      	mov	r2, r5
  10d3fa:	f7ff ffaa 	bl	10d352 <_realloc_r>
  10d3fe:	4606      	mov	r6, r0
  10d400:	b970      	cbnz	r0, 10d420 <__ssputs_r+0x82>
  10d402:	6921      	ldr	r1, [r4, #16]
  10d404:	4650      	mov	r0, r10
  10d406:	f7fb fe03 	bl	109010 <_free_r>
  10d40a:	230c      	movs	r3, #12
  10d40c:	f8ca 3000 	str.w	r3, [r10]
  10d410:	89a3      	ldrh	r3, [r4, #12]
  10d412:	f04f 30ff 	mov.w	r0, #4294967295
  10d416:	f043 0340 	orr.w	r3, r3, #64	; 0x40
  10d41a:	81a3      	strh	r3, [r4, #12]
  10d41c:	e8bd 87f0 	ldmia.w	sp!, {r4, r5, r6, r7, r8, r9, r10, pc}
  10d420:	6126      	str	r6, [r4, #16]
  10d422:	443e      	add	r6, r7
  10d424:	6026      	str	r6, [r4, #0]
  10d426:	4646      	mov	r6, r8
  10d428:	6165      	str	r5, [r4, #20]
  10d42a:	1bed      	subs	r5, r5, r7
  10d42c:	60a5      	str	r5, [r4, #8]
  10d42e:	4546      	cmp	r6, r8
  10d430:	bf28      	it	cs
  10d432:	4646      	movcs	r6, r8
  10d434:	4649      	mov	r1, r9
  10d436:	4632      	mov	r2, r6
  10d438:	6820      	ldr	r0, [r4, #0]
  10d43a:	f7fb fdc6 	bl	108fca <memmove>
  10d43e:	68a3      	ldr	r3, [r4, #8]
  10d440:	2000      	movs	r0, #0
  10d442:	1b9b      	subs	r3, r3, r6
  10d444:	60a3      	str	r3, [r4, #8]
  10d446:	6823      	ldr	r3, [r4, #0]
  10d448:	441e      	add	r6, r3
  10d44a:	6026      	str	r6, [r4, #0]
  10d44c:	e8bd 87f0 	ldmia.w	sp!, {r4, r5, r6, r7, r8, r9, r10, pc}

0010d450 <_svfiprintf_r>:
  10d450:	e92d 4ff0 	stmdb	sp!, {r4, r5, r6, r7, r8, r9, r10, r11, lr}
  10d454:	b09d      	sub	sp, #116	; 0x74
  10d456:	9303      	str	r3, [sp, #12]
  10d458:	898b      	ldrh	r3, [r1, #12]
  10d45a:	4680      	mov	r8, r0
  10d45c:	061c      	lsls	r4, r3, #24
  10d45e:	460d      	mov	r5, r1
  10d460:	4616      	mov	r6, r2
  10d462:	d50d      	bpl.n	10d480 <_svfiprintf_r+0x30>
  10d464:	690b      	ldr	r3, [r1, #16]
  10d466:	b95b      	cbnz	r3, 10d480 <_svfiprintf_r+0x30>
  10d468:	2140      	movs	r1, #64	; 0x40
  10d46a:	f7fb fe15 	bl	109098 <_malloc_r>
  10d46e:	6028      	str	r0, [r5, #0]
  10d470:	6128      	str	r0, [r5, #16]
  10d472:	b918      	cbnz	r0, 10d47c <_svfiprintf_r+0x2c>
  10d474:	230c      	movs	r3, #12
  10d476:	f8c8 3000 	str.w	r3, [r8]
  10d47a:	e0cd      	b.n	10d618 <_svfiprintf_r+0x1c8>
  10d47c:	2340      	movs	r3, #64	; 0x40
  10d47e:	616b      	str	r3, [r5, #20]
  10d480:	2300      	movs	r3, #0
  10d482:	9309      	str	r3, [sp, #36]	; 0x24
  10d484:	2320      	movs	r3, #32
  10d486:	f88d 3029 	strb.w	r3, [sp, #41]	; 0x29
  10d48a:	f8df b19c 	ldr.w	r11, [pc, #412]	; 10d628 <_svfiprintf_r+0x1d8>
  10d48e:	2330      	movs	r3, #48	; 0x30
  10d490:	f88d 302a 	strb.w	r3, [sp, #42]	; 0x2a
  10d494:	4637      	mov	r7, r6
  10d496:	463c      	mov	r4, r7
  10d498:	f814 3b01 	ldrb.w	r3, [r4], #1
  10d49c:	b91b      	cbnz	r3, 10d4a6 <_svfiprintf_r+0x56>
  10d49e:	ebb7 0906 	subs.w	r9, r7, r6
  10d4a2:	d010      	beq.n	10d4c6 <_svfiprintf_r+0x76>
  10d4a4:	e003      	b.n	10d4ae <_svfiprintf_r+0x5e>
  10d4a6:	2b25      	cmp	r3, #37	; 0x25
  10d4a8:	d0f9      	beq.n	10d49e <_svfiprintf_r+0x4e>
  10d4aa:	4627      	mov	r7, r4
  10d4ac:	e7f3      	b.n	10d496 <_svfiprintf_r+0x46>
  10d4ae:	464b      	mov	r3, r9
  10d4b0:	4632      	mov	r2, r6
  10d4b2:	4629      	mov	r1, r5
  10d4b4:	4640      	mov	r0, r8
  10d4b6:	f7ff ff72 	bl	10d39e <__ssputs_r>
  10d4ba:	3001      	adds	r0, #1
  10d4bc:	f000 80a7 	beq.w	10d60e <_svfiprintf_r+0x1be>
  10d4c0:	9b09      	ldr	r3, [sp, #36]	; 0x24
  10d4c2:	444b      	add	r3, r9
  10d4c4:	9309      	str	r3, [sp, #36]	; 0x24
  10d4c6:	783b      	ldrb	r3, [r7, #0]
  10d4c8:	2b00      	cmp	r3, #0
  10d4ca:	f000 80a0 	beq.w	10d60e <_svfiprintf_r+0x1be>
  10d4ce:	2300      	movs	r3, #0
  10d4d0:	f04f 32ff 	mov.w	r2, #4294967295
  10d4d4:	9304      	str	r3, [sp, #16]
  10d4d6:	9307      	str	r3, [sp, #28]
  10d4d8:	9205      	str	r2, [sp, #20]
  10d4da:	9306      	str	r3, [sp, #24]
  10d4dc:	f88d 3053 	strb.w	r3, [sp, #83]	; 0x53
  10d4e0:	931a      	str	r3, [sp, #104]	; 0x68
  10d4e2:	2601      	movs	r6, #1
  10d4e4:	2205      	movs	r2, #5
  10d4e6:	7821      	ldrb	r1, [r4, #0]
  10d4e8:	484e      	ldr	r0, [pc, #312]	; (10d624 <_svfiprintf_r+0x1d4>)
  10d4ea:	f7fb fd55 	bl	108f98 <memchr>
  10d4ee:	1c67      	adds	r7, r4, #1
  10d4f0:	9b04      	ldr	r3, [sp, #16]
  10d4f2:	b138      	cbz	r0, 10d504 <_svfiprintf_r+0xb4>
  10d4f4:	4a4b      	ldr	r2, [pc, #300]	; (10d624 <_svfiprintf_r+0x1d4>)
  10d4f6:	463c      	mov	r4, r7
  10d4f8:	1a80      	subs	r0, r0, r2
  10d4fa:	fa06 f000 	lsl.w	r0, r6, r0
  10d4fe:	4318      	orrs	r0, r3
  10d500:	9004      	str	r0, [sp, #16]
  10d502:	e7ef      	b.n	10d4e4 <_svfiprintf_r+0x94>
  10d504:	06d9      	lsls	r1, r3, #27
  10d506:	bf44      	itt	mi
  10d508:	2220      	movmi	r2, #32
  10d50a:	f88d 2053 	strbmi.w	r2, [sp, #83]	; 0x53
  10d50e:	071a      	lsls	r2, r3, #28
  10d510:	bf44      	itt	mi
  10d512:	222b      	movmi	r2, #43	; 0x2b
  10d514:	f88d 2053 	strbmi.w	r2, [sp, #83]	; 0x53
  10d518:	7822      	ldrb	r2, [r4, #0]
  10d51a:	2a2a      	cmp	r2, #42	; 0x2a
  10d51c:	d003      	beq.n	10d526 <_svfiprintf_r+0xd6>
  10d51e:	9a07      	ldr	r2, [sp, #28]
  10d520:	2100      	movs	r1, #0
  10d522:	200a      	movs	r0, #10
  10d524:	e00b      	b.n	10d53e <_svfiprintf_r+0xee>
  10d526:	9a03      	ldr	r2, [sp, #12]
  10d528:	1d11      	adds	r1, r2, #4
  10d52a:	6812      	ldr	r2, [r2, #0]
  10d52c:	9103      	str	r1, [sp, #12]
  10d52e:	2a00      	cmp	r2, #0
  10d530:	da10      	bge.n	10d554 <_svfiprintf_r+0x104>
  10d532:	4252      	negs	r2, r2
  10d534:	f043 0002 	orr.w	r0, r3, #2
  10d538:	9207      	str	r2, [sp, #28]
  10d53a:	9004      	str	r0, [sp, #16]
  10d53c:	e00b      	b.n	10d556 <_svfiprintf_r+0x106>
  10d53e:	4627      	mov	r7, r4
  10d540:	783b      	ldrb	r3, [r7, #0]
  10d542:	3401      	adds	r4, #1
  10d544:	3b30      	subs	r3, #48	; 0x30
  10d546:	2b09      	cmp	r3, #9
  10d548:	d803      	bhi.n	10d552 <_svfiprintf_r+0x102>
  10d54a:	fb00 3202 	mla	r2, r0, r2, r3
  10d54e:	2101      	movs	r1, #1
  10d550:	e7f5      	b.n	10d53e <_svfiprintf_r+0xee>
  10d552:	b101      	cbz	r1, 10d556 <_svfiprintf_r+0x106>
  10d554:	9207      	str	r2, [sp, #28]
  10d556:	783b      	ldrb	r3, [r7, #0]
  10d558:	2b2e      	cmp	r3, #46	; 0x2e
  10d55a:	d11e      	bne.n	10d59a <_svfiprintf_r+0x14a>
  10d55c:	787b      	ldrb	r3, [r7, #1]
  10d55e:	2b2a      	cmp	r3, #42	; 0x2a
  10d560:	d10a      	bne.n	10d578 <_svfiprintf_r+0x128>
  10d562:	9b03      	ldr	r3, [sp, #12]
  10d564:	3702      	adds	r7, #2
  10d566:	1d1a      	adds	r2, r3, #4
  10d568:	681b      	ldr	r3, [r3, #0]
  10d56a:	9203      	str	r2, [sp, #12]
  10d56c:	2b00      	cmp	r3, #0
  10d56e:	bfb8      	it	lt
  10d570:	f04f 33ff 	movlt.w	r3, #4294967295
  10d574:	9305      	str	r3, [sp, #20]
  10d576:	e010      	b.n	10d59a <_svfiprintf_r+0x14a>
  10d578:	2300      	movs	r3, #0
  10d57a:	4619      	mov	r1, r3
  10d57c:	9305      	str	r3, [sp, #20]
  10d57e:	1c78      	adds	r0, r7, #1
  10d580:	240a      	movs	r4, #10
  10d582:	4607      	mov	r7, r0
  10d584:	783a      	ldrb	r2, [r7, #0]
  10d586:	3001      	adds	r0, #1
  10d588:	3a30      	subs	r2, #48	; 0x30
  10d58a:	2a09      	cmp	r2, #9
  10d58c:	d803      	bhi.n	10d596 <_svfiprintf_r+0x146>
  10d58e:	fb04 2101 	mla	r1, r4, r1, r2
  10d592:	2301      	movs	r3, #1
  10d594:	e7f5      	b.n	10d582 <_svfiprintf_r+0x132>
  10d596:	b103      	cbz	r3, 10d59a <_svfiprintf_r+0x14a>
  10d598:	9105      	str	r1, [sp, #20]
  10d59a:	2203      	movs	r2, #3
  10d59c:	7839      	ldrb	r1, [r7, #0]
  10d59e:	4822      	ldr	r0, [pc, #136]	; (10d628 <_svfiprintf_r+0x1d8>)
  10d5a0:	f7fb fcfa 	bl	108f98 <memchr>
  10d5a4:	b140      	cbz	r0, 10d5b8 <_svfiprintf_r+0x168>
  10d5a6:	2340      	movs	r3, #64	; 0x40
  10d5a8:	ebcb 0000 	rsb	r0, r11, r0
  10d5ac:	fa03 f000 	lsl.w	r0, r3, r0
  10d5b0:	9b04      	ldr	r3, [sp, #16]
  10d5b2:	3701      	adds	r7, #1
  10d5b4:	4318      	orrs	r0, r3
  10d5b6:	9004      	str	r0, [sp, #16]
  10d5b8:	7839      	ldrb	r1, [r7, #0]
  10d5ba:	2206      	movs	r2, #6
  10d5bc:	481b      	ldr	r0, [pc, #108]	; (10d62c <_svfiprintf_r+0x1dc>)
  10d5be:	1c7e      	adds	r6, r7, #1
  10d5c0:	f88d 1028 	strb.w	r1, [sp, #40]	; 0x28
  10d5c4:	f7fb fce8 	bl	108f98 <memchr>
  10d5c8:	b188      	cbz	r0, 10d5ee <_svfiprintf_r+0x19e>
  10d5ca:	4b19      	ldr	r3, [pc, #100]	; (10d630 <_svfiprintf_r+0x1e0>)
  10d5cc:	b933      	cbnz	r3, 10d5dc <_svfiprintf_r+0x18c>
  10d5ce:	9b03      	ldr	r3, [sp, #12]
  10d5d0:	3307      	adds	r3, #7
  10d5d2:	f023 0307 	bic.w	r3, r3, #7
  10d5d6:	3308      	adds	r3, #8
  10d5d8:	9303      	str	r3, [sp, #12]
  10d5da:	e014      	b.n	10d606 <_svfiprintf_r+0x1b6>
  10d5dc:	ab03      	add	r3, sp, #12
  10d5de:	9300      	str	r3, [sp, #0]
  10d5e0:	462a      	mov	r2, r5
  10d5e2:	4b14      	ldr	r3, [pc, #80]	; (10d634 <_svfiprintf_r+0x1e4>)
  10d5e4:	a904      	add	r1, sp, #16
  10d5e6:	4640      	mov	r0, r8
  10d5e8:	f7fb fe3c 	bl	109264 <_printf_float>
  10d5ec:	e007      	b.n	10d5fe <_svfiprintf_r+0x1ae>
  10d5ee:	ab03      	add	r3, sp, #12
  10d5f0:	9300      	str	r3, [sp, #0]
  10d5f2:	462a      	mov	r2, r5
  10d5f4:	4b0f      	ldr	r3, [pc, #60]	; (10d634 <_svfiprintf_r+0x1e4>)
  10d5f6:	a904      	add	r1, sp, #16
  10d5f8:	4640      	mov	r0, r8
  10d5fa:	f7fc f8df 	bl	1097bc <_printf_i>
  10d5fe:	f1b0 3fff 	cmp.w	r0, #4294967295
  10d602:	4682      	mov	r10, r0
  10d604:	d003      	beq.n	10d60e <_svfiprintf_r+0x1be>
  10d606:	9b09      	ldr	r3, [sp, #36]	; 0x24
  10d608:	4453      	add	r3, r10
  10d60a:	9309      	str	r3, [sp, #36]	; 0x24
  10d60c:	e742      	b.n	10d494 <_svfiprintf_r+0x44>
  10d60e:	89ab      	ldrh	r3, [r5, #12]
  10d610:	065b      	lsls	r3, r3, #25
  10d612:	d401      	bmi.n	10d618 <_svfiprintf_r+0x1c8>
  10d614:	9809      	ldr	r0, [sp, #36]	; 0x24
  10d616:	e001      	b.n	10d61c <_svfiprintf_r+0x1cc>
  10d618:	f04f 30ff 	mov.w	r0, #4294967295
  10d61c:	b01d      	add	sp, #116	; 0x74
  10d61e:	e8bd 8ff0 	ldmia.w	sp!, {r4, r5, r6, r7, r8, r9, r10, r11, pc}
  10d622:	bf00      	nop
  10d624:	0010eac8 	.word	0x0010eac8
  10d628:	0010eace 	.word	0x0010eace
  10d62c:	0010ead2 	.word	0x0010ead2
  10d630:	00109265 	.word	0x00109265
  10d634:	0010d39f 	.word	0x0010d39f

0010d638 <_sungetc_r>:
  10d638:	1c4b      	adds	r3, r1, #1
  10d63a:	b570      	push	{r4, r5, r6, lr}
  10d63c:	460e      	mov	r6, r1
  10d63e:	4614      	mov	r4, r2
  10d640:	d102      	bne.n	10d648 <_sungetc_r+0x10>
  10d642:	f04f 30ff 	mov.w	r0, #4294967295
  10d646:	bd70      	pop	{r4, r5, r6, pc}
  10d648:	8993      	ldrh	r3, [r2, #12]
  10d64a:	b2cd      	uxtb	r5, r1
  10d64c:	f023 0320 	bic.w	r3, r3, #32
  10d650:	8193      	strh	r3, [r2, #12]
  10d652:	6b53      	ldr	r3, [r2, #52]	; 0x34
  10d654:	6852      	ldr	r2, [r2, #4]
  10d656:	b183      	cbz	r3, 10d67a <_sungetc_r+0x42>
  10d658:	6ba3      	ldr	r3, [r4, #56]	; 0x38
  10d65a:	429a      	cmp	r2, r3
  10d65c:	da07      	bge.n	10d66e <_sungetc_r+0x36>
  10d65e:	6823      	ldr	r3, [r4, #0]
  10d660:	1e5a      	subs	r2, r3, #1
  10d662:	6022      	str	r2, [r4, #0]
  10d664:	f803 6c01 	strb.w	r6, [r3, #-1]
  10d668:	6863      	ldr	r3, [r4, #4]
  10d66a:	3301      	adds	r3, #1
  10d66c:	e01f      	b.n	10d6ae <_sungetc_r+0x76>
  10d66e:	4621      	mov	r1, r4
  10d670:	f7fd fee6 	bl	10b440 <__submore>
  10d674:	2800      	cmp	r0, #0
  10d676:	d0f2      	beq.n	10d65e <_sungetc_r+0x26>
  10d678:	e7e3      	b.n	10d642 <_sungetc_r+0xa>
  10d67a:	6921      	ldr	r1, [r4, #16]
  10d67c:	6823      	ldr	r3, [r4, #0]
  10d67e:	b151      	cbz	r1, 10d696 <_sungetc_r+0x5e>
  10d680:	4299      	cmp	r1, r3
  10d682:	d208      	bcs.n	10d696 <_sungetc_r+0x5e>
  10d684:	f813 1c01 	ldrb.w	r1, [r3, #-1]
  10d688:	428d      	cmp	r5, r1
  10d68a:	d104      	bne.n	10d696 <_sungetc_r+0x5e>
  10d68c:	3b01      	subs	r3, #1
  10d68e:	3201      	adds	r2, #1
  10d690:	6023      	str	r3, [r4, #0]
  10d692:	6062      	str	r2, [r4, #4]
  10d694:	e00c      	b.n	10d6b0 <_sungetc_r+0x78>
  10d696:	63e3      	str	r3, [r4, #60]	; 0x3c
  10d698:	f104 0344 	add.w	r3, r4, #68	; 0x44
  10d69c:	6363      	str	r3, [r4, #52]	; 0x34
  10d69e:	2303      	movs	r3, #3
  10d6a0:	63a3      	str	r3, [r4, #56]	; 0x38
  10d6a2:	4623      	mov	r3, r4
  10d6a4:	6422      	str	r2, [r4, #64]	; 0x40
  10d6a6:	f803 6f46 	strb.w	r6, [r3, #70]!
  10d6aa:	6023      	str	r3, [r4, #0]
  10d6ac:	2301      	movs	r3, #1
  10d6ae:	6063      	str	r3, [r4, #4]
  10d6b0:	4628      	mov	r0, r5
  10d6b2:	bd70      	pop	{r4, r5, r6, pc}

0010d6b4 <__ssrefill_r>:
  10d6b4:	b510      	push	{r4, lr}
  10d6b6:	460c      	mov	r4, r1
  10d6b8:	6b49      	ldr	r1, [r1, #52]	; 0x34
  10d6ba:	b169      	cbz	r1, 10d6d8 <__ssrefill_r+0x24>
  10d6bc:	f104 0344 	add.w	r3, r4, #68	; 0x44
  10d6c0:	4299      	cmp	r1, r3
  10d6c2:	d001      	beq.n	10d6c8 <__ssrefill_r+0x14>
  10d6c4:	f7fb fca4 	bl	109010 <_free_r>
  10d6c8:	6c23      	ldr	r3, [r4, #64]	; 0x40
  10d6ca:	2000      	movs	r0, #0
  10d6cc:	6360      	str	r0, [r4, #52]	; 0x34
  10d6ce:	6063      	str	r3, [r4, #4]
  10d6d0:	b113      	cbz	r3, 10d6d8 <__ssrefill_r+0x24>
  10d6d2:	6be3      	ldr	r3, [r4, #60]	; 0x3c
  10d6d4:	6023      	str	r3, [r4, #0]
  10d6d6:	bd10      	pop	{r4, pc}
  10d6d8:	6923      	ldr	r3, [r4, #16]
  10d6da:	f04f 30ff 	mov.w	r0, #4294967295
  10d6de:	6023      	str	r3, [r4, #0]
  10d6e0:	2300      	movs	r3, #0
  10d6e2:	6063      	str	r3, [r4, #4]
  10d6e4:	89a3      	ldrh	r3, [r4, #12]
  10d6e6:	f043 0320 	orr.w	r3, r3, #32
  10d6ea:	81a3      	strh	r3, [r4, #12]
  10d6ec:	bd10      	pop	{r4, pc}
	...

0010d6f0 <__ssvfiscanf_r>:
  10d6f0:	e92d 4ff0 	stmdb	sp!, {r4, r5, r6, r7, r8, r9, r10, r11, lr}
  10d6f4:	f8df 9290 	ldr.w	r9, [pc, #656]	; 10d988 <__ssvfiscanf_r+0x298>
  10d6f8:	4607      	mov	r7, r0
  10d6fa:	460c      	mov	r4, r1
  10d6fc:	46ca      	mov	r10, r9
  10d6fe:	f5ad 7d25 	sub.w	sp, sp, #660	; 0x294
  10d702:	9301      	str	r3, [sp, #4]
  10d704:	2300      	movs	r3, #0
  10d706:	9346      	str	r3, [sp, #280]	; 0x118
  10d708:	9347      	str	r3, [sp, #284]	; 0x11c
  10d70a:	4b9b      	ldr	r3, [pc, #620]	; (10d978 <__ssvfiscanf_r+0x288>)
  10d70c:	f10d 080c 	add.w	r8, sp, #12
  10d710:	93a2      	str	r3, [sp, #648]	; 0x288
  10d712:	4b9a      	ldr	r3, [pc, #616]	; (10d97c <__ssvfiscanf_r+0x28c>)
  10d714:	f8df b268 	ldr.w	r11, [pc, #616]	; 10d980 <__ssvfiscanf_r+0x290>
  10d718:	f8cd 8120 	str.w	r8, [sp, #288]	; 0x120
  10d71c:	93a3      	str	r3, [sp, #652]	; 0x28c
  10d71e:	7815      	ldrb	r5, [r2, #0]
  10d720:	2d00      	cmp	r5, #0
  10d722:	f000 8120 	beq.w	10d966 <__ssvfiscanf_r+0x276>
  10d726:	f8d9 3000 	ldr.w	r3, [r9]
  10d72a:	442b      	add	r3, r5
  10d72c:	785b      	ldrb	r3, [r3, #1]
  10d72e:	f003 0308 	and.w	r3, r3, #8
  10d732:	f003 01ff 	and.w	r1, r3, #255	; 0xff
  10d736:	b1f3      	cbz	r3, 10d776 <__ssvfiscanf_r+0x86>
  10d738:	6863      	ldr	r3, [r4, #4]
  10d73a:	2b00      	cmp	r3, #0
  10d73c:	dd10      	ble.n	10d760 <__ssvfiscanf_r+0x70>
  10d73e:	6823      	ldr	r3, [r4, #0]
  10d740:	f8da 0000 	ldr.w	r0, [r10]
  10d744:	7819      	ldrb	r1, [r3, #0]
  10d746:	4401      	add	r1, r0
  10d748:	7849      	ldrb	r1, [r1, #1]
  10d74a:	070d      	lsls	r5, r1, #28
  10d74c:	d510      	bpl.n	10d770 <__ssvfiscanf_r+0x80>
  10d74e:	9947      	ldr	r1, [sp, #284]	; 0x11c
  10d750:	3301      	adds	r3, #1
  10d752:	3101      	adds	r1, #1
  10d754:	9147      	str	r1, [sp, #284]	; 0x11c
  10d756:	6861      	ldr	r1, [r4, #4]
  10d758:	6023      	str	r3, [r4, #0]
  10d75a:	3901      	subs	r1, #1
  10d75c:	6061      	str	r1, [r4, #4]
  10d75e:	e7eb      	b.n	10d738 <__ssvfiscanf_r+0x48>
  10d760:	9ba3      	ldr	r3, [sp, #652]	; 0x28c
  10d762:	4621      	mov	r1, r4
  10d764:	4638      	mov	r0, r7
  10d766:	9200      	str	r2, [sp, #0]
  10d768:	4798      	blx	r3
  10d76a:	9a00      	ldr	r2, [sp, #0]
  10d76c:	2800      	cmp	r0, #0
  10d76e:	d0e6      	beq.n	10d73e <__ssvfiscanf_r+0x4e>
  10d770:	1c56      	adds	r6, r2, #1
  10d772:	4632      	mov	r2, r6
  10d774:	e7d3      	b.n	10d71e <__ssvfiscanf_r+0x2e>
  10d776:	2d25      	cmp	r5, #37	; 0x25
  10d778:	f102 0601 	add.w	r6, r2, #1
  10d77c:	d14b      	bne.n	10d816 <__ssvfiscanf_r+0x126>
  10d77e:	9143      	str	r1, [sp, #268]	; 0x10c
  10d780:	9145      	str	r1, [sp, #276]	; 0x114
  10d782:	7853      	ldrb	r3, [r2, #1]
  10d784:	2b2a      	cmp	r3, #42	; 0x2a
  10d786:	bf02      	ittt	eq
  10d788:	2310      	moveq	r3, #16
  10d78a:	1c96      	addeq	r6, r2, #2
  10d78c:	9343      	streq	r3, [sp, #268]	; 0x10c
  10d78e:	220a      	movs	r2, #10
  10d790:	7831      	ldrb	r1, [r6, #0]
  10d792:	4635      	mov	r5, r6
  10d794:	f1a1 0330 	sub.w	r3, r1, #48	; 0x30
  10d798:	2b09      	cmp	r3, #9
  10d79a:	f106 0601 	add.w	r6, r6, #1
  10d79e:	d805      	bhi.n	10d7ac <__ssvfiscanf_r+0xbc>
  10d7a0:	9b45      	ldr	r3, [sp, #276]	; 0x114
  10d7a2:	fb02 1303 	mla	r3, r2, r3, r1
  10d7a6:	3b30      	subs	r3, #48	; 0x30
  10d7a8:	9345      	str	r3, [sp, #276]	; 0x114
  10d7aa:	e7f1      	b.n	10d790 <__ssvfiscanf_r+0xa0>
  10d7ac:	2203      	movs	r2, #3
  10d7ae:	4874      	ldr	r0, [pc, #464]	; (10d980 <__ssvfiscanf_r+0x290>)
  10d7b0:	f7fb fbf2 	bl	108f98 <memchr>
  10d7b4:	b140      	cbz	r0, 10d7c8 <__ssvfiscanf_r+0xd8>
  10d7b6:	4635      	mov	r5, r6
  10d7b8:	2301      	movs	r3, #1
  10d7ba:	ebcb 0000 	rsb	r0, r11, r0
  10d7be:	fa03 f000 	lsl.w	r0, r3, r0
  10d7c2:	9b43      	ldr	r3, [sp, #268]	; 0x10c
  10d7c4:	4303      	orrs	r3, r0
  10d7c6:	9343      	str	r3, [sp, #268]	; 0x10c
  10d7c8:	1c6e      	adds	r6, r5, #1
  10d7ca:	782d      	ldrb	r5, [r5, #0]
  10d7cc:	2d67      	cmp	r5, #103	; 0x67
  10d7ce:	d80f      	bhi.n	10d7f0 <__ssvfiscanf_r+0x100>
  10d7d0:	2d65      	cmp	r5, #101	; 0x65
  10d7d2:	d278      	bcs.n	10d8c6 <__ssvfiscanf_r+0x1d6>
  10d7d4:	2d5b      	cmp	r5, #91	; 0x5b
  10d7d6:	d054      	beq.n	10d882 <__ssvfiscanf_r+0x192>
  10d7d8:	d805      	bhi.n	10d7e6 <__ssvfiscanf_r+0xf6>
  10d7da:	2d00      	cmp	r5, #0
  10d7dc:	f000 80c5 	beq.w	10d96a <__ssvfiscanf_r+0x27a>
  10d7e0:	2d25      	cmp	r5, #37	; 0x25
  10d7e2:	d018      	beq.n	10d816 <__ssvfiscanf_r+0x126>
  10d7e4:	e071      	b.n	10d8ca <__ssvfiscanf_r+0x1da>
  10d7e6:	2d63      	cmp	r5, #99	; 0x63
  10d7e8:	d057      	beq.n	10d89a <__ssvfiscanf_r+0x1aa>
  10d7ea:	2d64      	cmp	r5, #100	; 0x64
  10d7ec:	d03f      	beq.n	10d86e <__ssvfiscanf_r+0x17e>
  10d7ee:	e06c      	b.n	10d8ca <__ssvfiscanf_r+0x1da>
  10d7f0:	2d70      	cmp	r5, #112	; 0x70
  10d7f2:	d032      	beq.n	10d85a <__ssvfiscanf_r+0x16a>
  10d7f4:	d807      	bhi.n	10d806 <__ssvfiscanf_r+0x116>
  10d7f6:	2d6e      	cmp	r5, #110	; 0x6e
  10d7f8:	d055      	beq.n	10d8a6 <__ssvfiscanf_r+0x1b6>
  10d7fa:	d83a      	bhi.n	10d872 <__ssvfiscanf_r+0x182>
  10d7fc:	2d69      	cmp	r5, #105	; 0x69
  10d7fe:	d164      	bne.n	10d8ca <__ssvfiscanf_r+0x1da>
  10d800:	2300      	movs	r3, #0
  10d802:	9344      	str	r3, [sp, #272]	; 0x110
  10d804:	e03b      	b.n	10d87e <__ssvfiscanf_r+0x18e>
  10d806:	2d75      	cmp	r5, #117	; 0x75
  10d808:	d031      	beq.n	10d86e <__ssvfiscanf_r+0x17e>
  10d80a:	2d78      	cmp	r5, #120	; 0x78
  10d80c:	d029      	beq.n	10d862 <__ssvfiscanf_r+0x172>
  10d80e:	2d73      	cmp	r5, #115	; 0x73
  10d810:	d15b      	bne.n	10d8ca <__ssvfiscanf_r+0x1da>
  10d812:	2302      	movs	r3, #2
  10d814:	e03f      	b.n	10d896 <__ssvfiscanf_r+0x1a6>
  10d816:	6863      	ldr	r3, [r4, #4]
  10d818:	2b00      	cmp	r3, #0
  10d81a:	dd0d      	ble.n	10d838 <__ssvfiscanf_r+0x148>
  10d81c:	6823      	ldr	r3, [r4, #0]
  10d81e:	781a      	ldrb	r2, [r3, #0]
  10d820:	4295      	cmp	r5, r2
  10d822:	f040 80a0 	bne.w	10d966 <__ssvfiscanf_r+0x276>
  10d826:	3301      	adds	r3, #1
  10d828:	6862      	ldr	r2, [r4, #4]
  10d82a:	6023      	str	r3, [r4, #0]
  10d82c:	9b47      	ldr	r3, [sp, #284]	; 0x11c
  10d82e:	3a01      	subs	r2, #1
  10d830:	3301      	adds	r3, #1
  10d832:	6062      	str	r2, [r4, #4]
  10d834:	9347      	str	r3, [sp, #284]	; 0x11c
  10d836:	e79c      	b.n	10d772 <__ssvfiscanf_r+0x82>
  10d838:	9ba3      	ldr	r3, [sp, #652]	; 0x28c
  10d83a:	4621      	mov	r1, r4
  10d83c:	4638      	mov	r0, r7
  10d83e:	4798      	blx	r3
  10d840:	2800      	cmp	r0, #0
  10d842:	d0eb      	beq.n	10d81c <__ssvfiscanf_r+0x12c>
  10d844:	9846      	ldr	r0, [sp, #280]	; 0x118
  10d846:	2800      	cmp	r0, #0
  10d848:	f000 808f 	beq.w	10d96a <__ssvfiscanf_r+0x27a>
  10d84c:	89a3      	ldrh	r3, [r4, #12]
  10d84e:	f013 0f40 	tst.w	r3, #64	; 0x40
  10d852:	bf18      	it	ne
  10d854:	f04f 30ff 	movne.w	r0, #4294967295
  10d858:	e089      	b.n	10d96e <__ssvfiscanf_r+0x27e>
  10d85a:	9b43      	ldr	r3, [sp, #268]	; 0x10c
  10d85c:	f043 0320 	orr.w	r3, r3, #32
  10d860:	9343      	str	r3, [sp, #268]	; 0x10c
  10d862:	9b43      	ldr	r3, [sp, #268]	; 0x10c
  10d864:	f443 7300 	orr.w	r3, r3, #512	; 0x200
  10d868:	9343      	str	r3, [sp, #268]	; 0x10c
  10d86a:	2310      	movs	r3, #16
  10d86c:	e002      	b.n	10d874 <__ssvfiscanf_r+0x184>
  10d86e:	230a      	movs	r3, #10
  10d870:	e000      	b.n	10d874 <__ssvfiscanf_r+0x184>
  10d872:	2308      	movs	r3, #8
  10d874:	2d6e      	cmp	r5, #110	; 0x6e
  10d876:	9344      	str	r3, [sp, #272]	; 0x110
  10d878:	dd01      	ble.n	10d87e <__ssvfiscanf_r+0x18e>
  10d87a:	2304      	movs	r3, #4
  10d87c:	e00b      	b.n	10d896 <__ssvfiscanf_r+0x1a6>
  10d87e:	2303      	movs	r3, #3
  10d880:	e009      	b.n	10d896 <__ssvfiscanf_r+0x1a6>
  10d882:	4631      	mov	r1, r6
  10d884:	4640      	mov	r0, r8
  10d886:	f7fc fd35 	bl	10a2f4 <__sccl>
  10d88a:	4606      	mov	r6, r0
  10d88c:	9b43      	ldr	r3, [sp, #268]	; 0x10c
  10d88e:	f043 0340 	orr.w	r3, r3, #64	; 0x40
  10d892:	9343      	str	r3, [sp, #268]	; 0x10c
  10d894:	2301      	movs	r3, #1
  10d896:	9349      	str	r3, [sp, #292]	; 0x124
  10d898:	e01b      	b.n	10d8d2 <__ssvfiscanf_r+0x1e2>
  10d89a:	9b43      	ldr	r3, [sp, #268]	; 0x10c
  10d89c:	f043 0340 	orr.w	r3, r3, #64	; 0x40
  10d8a0:	9343      	str	r3, [sp, #268]	; 0x10c
  10d8a2:	2300      	movs	r3, #0
  10d8a4:	e7f7      	b.n	10d896 <__ssvfiscanf_r+0x1a6>
  10d8a6:	9a43      	ldr	r2, [sp, #268]	; 0x10c
  10d8a8:	06d0      	lsls	r0, r2, #27
  10d8aa:	f53f af62 	bmi.w	10d772 <__ssvfiscanf_r+0x82>
  10d8ae:	f012 0f01 	tst.w	r2, #1
  10d8b2:	9a01      	ldr	r2, [sp, #4]
  10d8b4:	9b47      	ldr	r3, [sp, #284]	; 0x11c
  10d8b6:	f102 0104 	add.w	r1, r2, #4
  10d8ba:	9101      	str	r1, [sp, #4]
  10d8bc:	6812      	ldr	r2, [r2, #0]
  10d8be:	bf14      	ite	ne
  10d8c0:	8013      	strhne	r3, [r2, #0]
  10d8c2:	6013      	streq	r3, [r2, #0]
  10d8c4:	e755      	b.n	10d772 <__ssvfiscanf_r+0x82>
  10d8c6:	2305      	movs	r3, #5
  10d8c8:	e7e5      	b.n	10d896 <__ssvfiscanf_r+0x1a6>
  10d8ca:	2303      	movs	r3, #3
  10d8cc:	9349      	str	r3, [sp, #292]	; 0x124
  10d8ce:	230a      	movs	r3, #10
  10d8d0:	9344      	str	r3, [sp, #272]	; 0x110
  10d8d2:	6863      	ldr	r3, [r4, #4]
  10d8d4:	2b00      	cmp	r3, #0
  10d8d6:	dd03      	ble.n	10d8e0 <__ssvfiscanf_r+0x1f0>
  10d8d8:	9b43      	ldr	r3, [sp, #268]	; 0x10c
  10d8da:	0659      	lsls	r1, r3, #25
  10d8dc:	d511      	bpl.n	10d902 <__ssvfiscanf_r+0x212>
  10d8de:	e018      	b.n	10d912 <__ssvfiscanf_r+0x222>
  10d8e0:	9ba3      	ldr	r3, [sp, #652]	; 0x28c
  10d8e2:	4621      	mov	r1, r4
  10d8e4:	4638      	mov	r0, r7
  10d8e6:	4798      	blx	r3
  10d8e8:	2800      	cmp	r0, #0
  10d8ea:	d0f5      	beq.n	10d8d8 <__ssvfiscanf_r+0x1e8>
  10d8ec:	e7aa      	b.n	10d844 <__ssvfiscanf_r+0x154>
  10d8ee:	9a47      	ldr	r2, [sp, #284]	; 0x11c
  10d8f0:	3201      	adds	r2, #1
  10d8f2:	9247      	str	r2, [sp, #284]	; 0x11c
  10d8f4:	6862      	ldr	r2, [r4, #4]
  10d8f6:	3a01      	subs	r2, #1
  10d8f8:	2a00      	cmp	r2, #0
  10d8fa:	6062      	str	r2, [r4, #4]
  10d8fc:	dd13      	ble.n	10d926 <__ssvfiscanf_r+0x236>
  10d8fe:	3301      	adds	r3, #1
  10d900:	6023      	str	r3, [r4, #0]
  10d902:	6823      	ldr	r3, [r4, #0]
  10d904:	f8da 1000 	ldr.w	r1, [r10]
  10d908:	781a      	ldrb	r2, [r3, #0]
  10d90a:	440a      	add	r2, r1
  10d90c:	7852      	ldrb	r2, [r2, #1]
  10d90e:	0712      	lsls	r2, r2, #28
  10d910:	d4ed      	bmi.n	10d8ee <__ssvfiscanf_r+0x1fe>
  10d912:	9b49      	ldr	r3, [sp, #292]	; 0x124
  10d914:	2b02      	cmp	r3, #2
  10d916:	dc0d      	bgt.n	10d934 <__ssvfiscanf_r+0x244>
  10d918:	ab01      	add	r3, sp, #4
  10d91a:	4622      	mov	r2, r4
  10d91c:	a943      	add	r1, sp, #268	; 0x10c
  10d91e:	4638      	mov	r0, r7
  10d920:	f7fc fa4e 	bl	109dc0 <_scanf_chars>
  10d924:	e019      	b.n	10d95a <__ssvfiscanf_r+0x26a>
  10d926:	9ba3      	ldr	r3, [sp, #652]	; 0x28c
  10d928:	4621      	mov	r1, r4
  10d92a:	4638      	mov	r0, r7
  10d92c:	4798      	blx	r3
  10d92e:	2800      	cmp	r0, #0
  10d930:	d0e7      	beq.n	10d902 <__ssvfiscanf_r+0x212>
  10d932:	e787      	b.n	10d844 <__ssvfiscanf_r+0x154>
  10d934:	2b04      	cmp	r3, #4
  10d936:	dc06      	bgt.n	10d946 <__ssvfiscanf_r+0x256>
  10d938:	ab01      	add	r3, sp, #4
  10d93a:	4622      	mov	r2, r4
  10d93c:	a943      	add	r1, sp, #268	; 0x10c
  10d93e:	4638      	mov	r0, r7
  10d940:	f7fc faa4 	bl	109e8c <_scanf_i>
  10d944:	e009      	b.n	10d95a <__ssvfiscanf_r+0x26a>
  10d946:	4b0f      	ldr	r3, [pc, #60]	; (10d984 <__ssvfiscanf_r+0x294>)
  10d948:	2b00      	cmp	r3, #0
  10d94a:	f43f af12 	beq.w	10d772 <__ssvfiscanf_r+0x82>
  10d94e:	ab01      	add	r3, sp, #4
  10d950:	4622      	mov	r2, r4
  10d952:	a943      	add	r1, sp, #268	; 0x10c
  10d954:	4638      	mov	r0, r7
  10d956:	f7fc f857 	bl	109a08 <_scanf_float>
  10d95a:	2801      	cmp	r0, #1
  10d95c:	d003      	beq.n	10d966 <__ssvfiscanf_r+0x276>
  10d95e:	2802      	cmp	r0, #2
  10d960:	f47f af07 	bne.w	10d772 <__ssvfiscanf_r+0x82>
  10d964:	e76e      	b.n	10d844 <__ssvfiscanf_r+0x154>
  10d966:	9846      	ldr	r0, [sp, #280]	; 0x118
  10d968:	e001      	b.n	10d96e <__ssvfiscanf_r+0x27e>
  10d96a:	f04f 30ff 	mov.w	r0, #4294967295
  10d96e:	f50d 7d25 	add.w	sp, sp, #660	; 0x294
  10d972:	e8bd 8ff0 	ldmia.w	sp!, {r4, r5, r6, r7, r8, r9, r10, r11, pc}
  10d976:	bf00      	nop
  10d978:	0010d639 	.word	0x0010d639
  10d97c:	0010d6b5 	.word	0x0010d6b5
  10d980:	0010eace 	.word	0x0010eace
  10d984:	00109a09 	.word	0x00109a09
  10d988:	3fff40a0 	.word	0x3fff40a0

0010d98c <_read_r>:
  10d98c:	b538      	push	{r3, r4, r5, lr}
  10d98e:	4c07      	ldr	r4, [pc, #28]	; (10d9ac <_read_r+0x20>)
  10d990:	4605      	mov	r5, r0
  10d992:	4608      	mov	r0, r1
  10d994:	4611      	mov	r1, r2
  10d996:	2200      	movs	r2, #0
  10d998:	6022      	str	r2, [r4, #0]
  10d99a:	461a      	mov	r2, r3
  10d99c:	f7f9 fdd4 	bl	107548 <_read>
  10d9a0:	1c43      	adds	r3, r0, #1
  10d9a2:	d102      	bne.n	10d9aa <_read_r+0x1e>
  10d9a4:	6823      	ldr	r3, [r4, #0]
  10d9a6:	b103      	cbz	r3, 10d9aa <_read_r+0x1e>
  10d9a8:	602b      	str	r3, [r5, #0]
  10d9aa:	bd38      	pop	{r3, r4, r5, pc}
  10d9ac:	3fff5398 	.word	0x3fff5398

0010d9b0 <_malloc_usable_size_r>:
  10d9b0:	f851 0c04 	ldr.w	r0, [r1, #-4]
  10d9b4:	2800      	cmp	r0, #0
  10d9b6:	bfbe      	ittt	lt
  10d9b8:	1809      	addlt	r1, r1, r0
  10d9ba:	f851 3c04 	ldrlt.w	r3, [r1, #-4]
  10d9be:	18c0      	addlt	r0, r0, r3
  10d9c0:	3804      	subs	r0, #4
  10d9c2:	4770      	bx	lr

0010d9c4 <__aeabi_dmul>:
  10d9c4:	b570      	push	{r4, r5, r6, lr}
  10d9c6:	f04f 0cff 	mov.w	r12, #255	; 0xff
  10d9ca:	f44c 6ce0 	orr.w	r12, r12, #1792	; 0x700
  10d9ce:	ea1c 5411 	ands.w	r4, r12, r1, lsr #20
  10d9d2:	bf1d      	ittte	ne
  10d9d4:	ea1c 5513 	andsne.w	r5, r12, r3, lsr #20
  10d9d8:	ea94 0f0c 	teqne	r4, r12
  10d9dc:	ea95 0f0c 	teqne	r5, r12
  10d9e0:	f000 f8de 	bleq	10dba0 <__aeabi_dmul+0x1dc>
  10d9e4:	442c      	add	r4, r5
  10d9e6:	ea81 0603 	eor.w	r6, r1, r3
  10d9ea:	ea21 514c 	bic.w	r1, r1, r12, lsl #21
  10d9ee:	ea23 534c 	bic.w	r3, r3, r12, lsl #21
  10d9f2:	ea50 3501 	orrs.w	r5, r0, r1, lsl #12
  10d9f6:	bf18      	it	ne
  10d9f8:	ea52 3503 	orrsne.w	r5, r2, r3, lsl #12
  10d9fc:	f441 1180 	orr.w	r1, r1, #1048576	; 0x100000
  10da00:	f443 1380 	orr.w	r3, r3, #1048576	; 0x100000
  10da04:	d038      	beq.n	10da78 <__aeabi_dmul+0xb4>
  10da06:	fba0 ce02 	umull	r12, lr, r0, r2
  10da0a:	f04f 0500 	mov.w	r5, #0
  10da0e:	fbe1 e502 	umlal	lr, r5, r1, r2
  10da12:	f006 4200 	and.w	r2, r6, #2147483648	; 0x80000000
  10da16:	fbe0 e503 	umlal	lr, r5, r0, r3
  10da1a:	f04f 0600 	mov.w	r6, #0
  10da1e:	fbe1 5603 	umlal	r5, r6, r1, r3
  10da22:	f09c 0f00 	teq	r12, #0
  10da26:	bf18      	it	ne
  10da28:	f04e 0e01 	orrne.w	lr, lr, #1
  10da2c:	f1a4 04ff 	sub.w	r4, r4, #255	; 0xff
  10da30:	f5b6 7f00 	cmp.w	r6, #512	; 0x200
  10da34:	f564 7440 	sbc.w	r4, r4, #768	; 0x300
  10da38:	d204      	bcs.n	10da44 <__aeabi_dmul+0x80>
  10da3a:	ea5f 0e4e 	movs.w	lr, lr, lsl #1
  10da3e:	416d      	adcs	r5, r5
  10da40:	eb46 0606 	adc.w	r6, r6, r6
  10da44:	ea42 21c6 	orr.w	r1, r2, r6, lsl #11
  10da48:	ea41 5155 	orr.w	r1, r1, r5, lsr #21
  10da4c:	ea4f 20c5 	mov.w	r0, r5, lsl #11
  10da50:	ea40 505e 	orr.w	r0, r0, lr, lsr #21
  10da54:	ea4f 2ece 	mov.w	lr, lr, lsl #11
  10da58:	f1b4 0cfd 	subs.w	r12, r4, #253	; 0xfd
  10da5c:	bf88      	it	hi
  10da5e:	f5bc 6fe0 	cmphi.w	r12, #1792	; 0x700
  10da62:	d81e      	bhi.n	10daa2 <__aeabi_dmul+0xde>
  10da64:	f1be 4f00 	cmp.w	lr, #2147483648	; 0x80000000
  10da68:	bf08      	it	eq
  10da6a:	ea5f 0e50 	movseq.w	lr, r0, lsr #1
  10da6e:	f150 0000 	adcs.w	r0, r0, #0
  10da72:	eb41 5104 	adc.w	r1, r1, r4, lsl #20
  10da76:	bd70      	pop	{r4, r5, r6, pc}
  10da78:	f006 4600 	and.w	r6, r6, #2147483648	; 0x80000000
  10da7c:	ea46 0101 	orr.w	r1, r6, r1
  10da80:	ea40 0002 	orr.w	r0, r0, r2
  10da84:	ea81 0103 	eor.w	r1, r1, r3
  10da88:	ebb4 045c 	subs.w	r4, r4, r12, lsr #1
  10da8c:	bfc2      	ittt	gt
  10da8e:	ebd4 050c 	rsbsgt	r5, r4, r12
  10da92:	ea41 5104 	orrgt.w	r1, r1, r4, lsl #20
  10da96:	bd70      	popgt	{r4, r5, r6, pc}
  10da98:	f441 1180 	orr.w	r1, r1, #1048576	; 0x100000
  10da9c:	f04f 0e00 	mov.w	lr, #0
  10daa0:	3c01      	subs	r4, #1
  10daa2:	f300 80ab 	bgt.w	10dbfc <__aeabi_dmul+0x238>
  10daa6:	f114 0f36 	cmn.w	r4, #54	; 0x36
  10daaa:	bfde      	ittt	le
  10daac:	2000      	movle	r0, #0
  10daae:	f001 4100 	andle.w	r1, r1, #2147483648	; 0x80000000
  10dab2:	bd70      	pople	{r4, r5, r6, pc}
  10dab4:	f1c4 0400 	rsb	r4, r4, #0
  10dab8:	3c20      	subs	r4, #32
  10daba:	da35      	bge.n	10db28 <__aeabi_dmul+0x164>
  10dabc:	340c      	adds	r4, #12
  10dabe:	dc1b      	bgt.n	10daf8 <__aeabi_dmul+0x134>
  10dac0:	f104 0414 	add.w	r4, r4, #20
  10dac4:	f1c4 0520 	rsb	r5, r4, #32
  10dac8:	fa00 f305 	lsl.w	r3, r0, r5
  10dacc:	fa20 f004 	lsr.w	r0, r0, r4
  10dad0:	fa01 f205 	lsl.w	r2, r1, r5
  10dad4:	ea40 0002 	orr.w	r0, r0, r2
  10dad8:	f001 4200 	and.w	r2, r1, #2147483648	; 0x80000000
  10dadc:	f021 4100 	bic.w	r1, r1, #2147483648	; 0x80000000
  10dae0:	eb10 70d3 	adds.w	r0, r0, r3, lsr #31
  10dae4:	fa21 f604 	lsr.w	r6, r1, r4
  10dae8:	eb42 0106 	adc.w	r1, r2, r6
  10daec:	ea5e 0e43 	orrs.w	lr, lr, r3, lsl #1
  10daf0:	bf08      	it	eq
  10daf2:	ea20 70d3 	biceq.w	r0, r0, r3, lsr #31
  10daf6:	bd70      	pop	{r4, r5, r6, pc}
  10daf8:	f1c4 040c 	rsb	r4, r4, #12
  10dafc:	f1c4 0520 	rsb	r5, r4, #32
  10db00:	fa00 f304 	lsl.w	r3, r0, r4
  10db04:	fa20 f005 	lsr.w	r0, r0, r5
  10db08:	fa01 f204 	lsl.w	r2, r1, r4
  10db0c:	ea40 0002 	orr.w	r0, r0, r2
  10db10:	f001 4100 	and.w	r1, r1, #2147483648	; 0x80000000
  10db14:	eb10 70d3 	adds.w	r0, r0, r3, lsr #31
  10db18:	f141 0100 	adc.w	r1, r1, #0
  10db1c:	ea5e 0e43 	orrs.w	lr, lr, r3, lsl #1
  10db20:	bf08      	it	eq
  10db22:	ea20 70d3 	biceq.w	r0, r0, r3, lsr #31
  10db26:	bd70      	pop	{r4, r5, r6, pc}
  10db28:	f1c4 0520 	rsb	r5, r4, #32
  10db2c:	fa00 f205 	lsl.w	r2, r0, r5
  10db30:	ea4e 0e02 	orr.w	lr, lr, r2
  10db34:	fa20 f304 	lsr.w	r3, r0, r4
  10db38:	fa01 f205 	lsl.w	r2, r1, r5
  10db3c:	ea43 0302 	orr.w	r3, r3, r2
  10db40:	fa21 f004 	lsr.w	r0, r1, r4
  10db44:	f001 4100 	and.w	r1, r1, #2147483648	; 0x80000000
  10db48:	fa21 f204 	lsr.w	r2, r1, r4
  10db4c:	ea20 0002 	bic.w	r0, r0, r2
  10db50:	eb00 70d3 	add.w	r0, r0, r3, lsr #31
  10db54:	ea5e 0e43 	orrs.w	lr, lr, r3, lsl #1
  10db58:	bf08      	it	eq
  10db5a:	ea20 70d3 	biceq.w	r0, r0, r3, lsr #31
  10db5e:	bd70      	pop	{r4, r5, r6, pc}
  10db60:	f094 0f00 	teq	r4, #0
  10db64:	d10f      	bne.n	10db86 <__aeabi_dmul+0x1c2>
  10db66:	f001 4600 	and.w	r6, r1, #2147483648	; 0x80000000
  10db6a:	0040      	lsls	r0, r0, #1
  10db6c:	eb41 0101 	adc.w	r1, r1, r1
  10db70:	f411 1f80 	tst.w	r1, #1048576	; 0x100000
  10db74:	bf08      	it	eq
  10db76:	3c01      	subeq	r4, #1
  10db78:	d0f7      	beq.n	10db6a <__aeabi_dmul+0x1a6>
  10db7a:	ea41 0106 	orr.w	r1, r1, r6
  10db7e:	f095 0f00 	teq	r5, #0
  10db82:	bf18      	it	ne
  10db84:	4770      	bxne	lr
  10db86:	f003 4600 	and.w	r6, r3, #2147483648	; 0x80000000
  10db8a:	0052      	lsls	r2, r2, #1
  10db8c:	eb43 0303 	adc.w	r3, r3, r3
  10db90:	f413 1f80 	tst.w	r3, #1048576	; 0x100000
  10db94:	bf08      	it	eq
  10db96:	3d01      	subeq	r5, #1
  10db98:	d0f7      	beq.n	10db8a <__aeabi_dmul+0x1c6>
  10db9a:	ea43 0306 	orr.w	r3, r3, r6
  10db9e:	4770      	bx	lr
  10dba0:	ea94 0f0c 	teq	r4, r12
  10dba4:	ea0c 5513 	and.w	r5, r12, r3, lsr #20
  10dba8:	bf18      	it	ne
  10dbaa:	ea95 0f0c 	teqne	r5, r12
  10dbae:	d00c      	beq.n	10dbca <__aeabi_dmul+0x206>
  10dbb0:	ea50 0641 	orrs.w	r6, r0, r1, lsl #1
  10dbb4:	bf18      	it	ne
  10dbb6:	ea52 0643 	orrsne.w	r6, r2, r3, lsl #1
  10dbba:	d1d1      	bne.n	10db60 <__aeabi_dmul+0x19c>
  10dbbc:	ea81 0103 	eor.w	r1, r1, r3
  10dbc0:	f001 4100 	and.w	r1, r1, #2147483648	; 0x80000000
  10dbc4:	f04f 0000 	mov.w	r0, #0
  10dbc8:	bd70      	pop	{r4, r5, r6, pc}
  10dbca:	ea50 0641 	orrs.w	r6, r0, r1, lsl #1
  10dbce:	bf06      	itte	eq
  10dbd0:	4610      	moveq	r0, r2
  10dbd2:	4619      	moveq	r1, r3
  10dbd4:	ea52 0643 	orrsne.w	r6, r2, r3, lsl #1
  10dbd8:	d019      	beq.n	10dc0e <__aeabi_dmul+0x24a>
  10dbda:	ea94 0f0c 	teq	r4, r12
  10dbde:	d102      	bne.n	10dbe6 <__aeabi_dmul+0x222>
  10dbe0:	ea50 3601 	orrs.w	r6, r0, r1, lsl #12
  10dbe4:	d113      	bne.n	10dc0e <__aeabi_dmul+0x24a>
  10dbe6:	ea95 0f0c 	teq	r5, r12
  10dbea:	d105      	bne.n	10dbf8 <__aeabi_dmul+0x234>
  10dbec:	ea52 3603 	orrs.w	r6, r2, r3, lsl #12
  10dbf0:	bf1c      	itt	ne
  10dbf2:	4610      	movne	r0, r2
  10dbf4:	4619      	movne	r1, r3
  10dbf6:	d10a      	bne.n	10dc0e <__aeabi_dmul+0x24a>
  10dbf8:	ea81 0103 	eor.w	r1, r1, r3
  10dbfc:	f001 4100 	and.w	r1, r1, #2147483648	; 0x80000000
  10dc00:	f041 41fe 	orr.w	r1, r1, #2130706432	; 0x7f000000
  10dc04:	f441 0170 	orr.w	r1, r1, #15728640	; 0xf00000
  10dc08:	f04f 0000 	mov.w	r0, #0
  10dc0c:	bd70      	pop	{r4, r5, r6, pc}
  10dc0e:	f041 41fe 	orr.w	r1, r1, #2130706432	; 0x7f000000
  10dc12:	f441 0178 	orr.w	r1, r1, #16252928	; 0xf80000
  10dc16:	bd70      	pop	{r4, r5, r6, pc}

0010dc18 <__aeabi_ddiv>:
  10dc18:	b570      	push	{r4, r5, r6, lr}
  10dc1a:	f04f 0cff 	mov.w	r12, #255	; 0xff
  10dc1e:	f44c 6ce0 	orr.w	r12, r12, #1792	; 0x700
  10dc22:	ea1c 5411 	ands.w	r4, r12, r1, lsr #20
  10dc26:	bf1d      	ittte	ne
  10dc28:	ea1c 5513 	andsne.w	r5, r12, r3, lsr #20
  10dc2c:	ea94 0f0c 	teqne	r4, r12
  10dc30:	ea95 0f0c 	teqne	r5, r12
  10dc34:	f000 f8a7 	bleq	10dd86 <__aeabi_ddiv+0x16e>
  10dc38:	eba4 0405 	sub.w	r4, r4, r5
  10dc3c:	ea81 0e03 	eor.w	lr, r1, r3
  10dc40:	ea52 3503 	orrs.w	r5, r2, r3, lsl #12
  10dc44:	ea4f 3101 	mov.w	r1, r1, lsl #12
  10dc48:	f000 8088 	beq.w	10dd5c <__aeabi_ddiv+0x144>
  10dc4c:	ea4f 3303 	mov.w	r3, r3, lsl #12
  10dc50:	f04f 5580 	mov.w	r5, #268435456	; 0x10000000
  10dc54:	ea45 1313 	orr.w	r3, r5, r3, lsr #4
  10dc58:	ea43 6312 	orr.w	r3, r3, r2, lsr #24
  10dc5c:	ea4f 2202 	mov.w	r2, r2, lsl #8
  10dc60:	ea45 1511 	orr.w	r5, r5, r1, lsr #4
  10dc64:	ea45 6510 	orr.w	r5, r5, r0, lsr #24
  10dc68:	ea4f 2600 	mov.w	r6, r0, lsl #8
  10dc6c:	f00e 4100 	and.w	r1, lr, #2147483648	; 0x80000000
  10dc70:	429d      	cmp	r5, r3
  10dc72:	bf08      	it	eq
  10dc74:	4296      	cmpeq	r6, r2
  10dc76:	f144 04fd 	adc.w	r4, r4, #253	; 0xfd
  10dc7a:	f504 7440 	add.w	r4, r4, #768	; 0x300
  10dc7e:	d202      	bcs.n	10dc86 <__aeabi_ddiv+0x6e>
  10dc80:	085b      	lsrs	r3, r3, #1
  10dc82:	ea4f 0232 	mov.w	r2, r2, rrx
  10dc86:	1ab6      	subs	r6, r6, r2
  10dc88:	eb65 0503 	sbc.w	r5, r5, r3
  10dc8c:	085b      	lsrs	r3, r3, #1
  10dc8e:	ea4f 0232 	mov.w	r2, r2, rrx
  10dc92:	f44f 1080 	mov.w	r0, #1048576	; 0x100000
  10dc96:	f44f 2c00 	mov.w	r12, #524288	; 0x80000
  10dc9a:	ebb6 0e02 	subs.w	lr, r6, r2
  10dc9e:	eb75 0e03 	sbcs.w	lr, r5, r3
  10dca2:	bf22      	ittt	cs
  10dca4:	1ab6      	subcs	r6, r6, r2
  10dca6:	4675      	movcs	r5, lr
  10dca8:	ea40 000c 	orrcs.w	r0, r0, r12
  10dcac:	085b      	lsrs	r3, r3, #1
  10dcae:	ea4f 0232 	mov.w	r2, r2, rrx
  10dcb2:	ebb6 0e02 	subs.w	lr, r6, r2
  10dcb6:	eb75 0e03 	sbcs.w	lr, r5, r3
  10dcba:	bf22      	ittt	cs
  10dcbc:	1ab6      	subcs	r6, r6, r2
  10dcbe:	4675      	movcs	r5, lr
  10dcc0:	ea40 005c 	orrcs.w	r0, r0, r12, lsr #1
  10dcc4:	085b      	lsrs	r3, r3, #1
  10dcc6:	ea4f 0232 	mov.w	r2, r2, rrx
  10dcca:	ebb6 0e02 	subs.w	lr, r6, r2
  10dcce:	eb75 0e03 	sbcs.w	lr, r5, r3
  10dcd2:	bf22      	ittt	cs
  10dcd4:	1ab6      	subcs	r6, r6, r2
  10dcd6:	4675      	movcs	r5, lr
  10dcd8:	ea40 009c 	orrcs.w	r0, r0, r12, lsr #2
  10dcdc:	085b      	lsrs	r3, r3, #1
  10dcde:	ea4f 0232 	mov.w	r2, r2, rrx
  10dce2:	ebb6 0e02 	subs.w	lr, r6, r2
  10dce6:	eb75 0e03 	sbcs.w	lr, r5, r3
  10dcea:	bf22      	ittt	cs
  10dcec:	1ab6      	subcs	r6, r6, r2
  10dcee:	4675      	movcs	r5, lr
  10dcf0:	ea40 00dc 	orrcs.w	r0, r0, r12, lsr #3
  10dcf4:	ea55 0e06 	orrs.w	lr, r5, r6
  10dcf8:	d018      	beq.n	10dd2c <__aeabi_ddiv+0x114>
  10dcfa:	ea4f 1505 	mov.w	r5, r5, lsl #4
  10dcfe:	ea45 7516 	orr.w	r5, r5, r6, lsr #28
  10dd02:	ea4f 1606 	mov.w	r6, r6, lsl #4
  10dd06:	ea4f 03c3 	mov.w	r3, r3, lsl #3
  10dd0a:	ea43 7352 	orr.w	r3, r3, r2, lsr #29
  10dd0e:	ea4f 02c2 	mov.w	r2, r2, lsl #3
  10dd12:	ea5f 1c1c 	movs.w	r12, r12, lsr #4
  10dd16:	d1c0      	bne.n	10dc9a <__aeabi_ddiv+0x82>
  10dd18:	f411 1f80 	tst.w	r1, #1048576	; 0x100000
  10dd1c:	d10b      	bne.n	10dd36 <__aeabi_ddiv+0x11e>
  10dd1e:	ea41 0100 	orr.w	r1, r1, r0
  10dd22:	f04f 0000 	mov.w	r0, #0
  10dd26:	f04f 4c00 	mov.w	r12, #2147483648	; 0x80000000
  10dd2a:	e7b6      	b.n	10dc9a <__aeabi_ddiv+0x82>
  10dd2c:	f411 1f80 	tst.w	r1, #1048576	; 0x100000
  10dd30:	bf04      	itt	eq
  10dd32:	4301      	orreq	r1, r0
  10dd34:	2000      	moveq	r0, #0
  10dd36:	f1b4 0cfd 	subs.w	r12, r4, #253	; 0xfd
  10dd3a:	bf88      	it	hi
  10dd3c:	f5bc 6fe0 	cmphi.w	r12, #1792	; 0x700
  10dd40:	f63f aeaf 	bhi.w	10daa2 <__aeabi_dmul+0xde>
  10dd44:	ebb5 0c03 	subs.w	r12, r5, r3
  10dd48:	bf04      	itt	eq
  10dd4a:	ebb6 0c02 	subseq.w	r12, r6, r2
  10dd4e:	ea5f 0c50 	movseq.w	r12, r0, lsr #1
  10dd52:	f150 0000 	adcs.w	r0, r0, #0
  10dd56:	eb41 5104 	adc.w	r1, r1, r4, lsl #20
  10dd5a:	bd70      	pop	{r4, r5, r6, pc}
  10dd5c:	f00e 4e00 	and.w	lr, lr, #2147483648	; 0x80000000
  10dd60:	ea4e 3111 	orr.w	r1, lr, r1, lsr #12
  10dd64:	eb14 045c 	adds.w	r4, r4, r12, lsr #1
  10dd68:	bfc2      	ittt	gt
  10dd6a:	ebd4 050c 	rsbsgt	r5, r4, r12
  10dd6e:	ea41 5104 	orrgt.w	r1, r1, r4, lsl #20
  10dd72:	bd70      	popgt	{r4, r5, r6, pc}
  10dd74:	f441 1180 	orr.w	r1, r1, #1048576	; 0x100000
  10dd78:	f04f 0e00 	mov.w	lr, #0
  10dd7c:	3c01      	subs	r4, #1
  10dd7e:	e690      	b.n	10daa2 <__aeabi_dmul+0xde>
  10dd80:	ea45 0e06 	orr.w	lr, r5, r6
  10dd84:	e68d      	b.n	10daa2 <__aeabi_dmul+0xde>
  10dd86:	ea0c 5513 	and.w	r5, r12, r3, lsr #20
  10dd8a:	ea94 0f0c 	teq	r4, r12
  10dd8e:	bf08      	it	eq
  10dd90:	ea95 0f0c 	teqeq	r5, r12
  10dd94:	f43f af3b 	beq.w	10dc0e <__aeabi_dmul+0x24a>
  10dd98:	ea94 0f0c 	teq	r4, r12
  10dd9c:	d10a      	bne.n	10ddb4 <__aeabi_ddiv+0x19c>
  10dd9e:	ea50 3401 	orrs.w	r4, r0, r1, lsl #12
  10dda2:	f47f af34 	bne.w	10dc0e <__aeabi_dmul+0x24a>
  10dda6:	ea95 0f0c 	teq	r5, r12
  10ddaa:	f47f af25 	bne.w	10dbf8 <__aeabi_dmul+0x234>
  10ddae:	4610      	mov	r0, r2
  10ddb0:	4619      	mov	r1, r3
  10ddb2:	e72c      	b.n	10dc0e <__aeabi_dmul+0x24a>
  10ddb4:	ea95 0f0c 	teq	r5, r12
  10ddb8:	d106      	bne.n	10ddc8 <__aeabi_ddiv+0x1b0>
  10ddba:	ea52 3503 	orrs.w	r5, r2, r3, lsl #12
  10ddbe:	f43f aefd 	beq.w	10dbbc <__aeabi_dmul+0x1f8>
  10ddc2:	4610      	mov	r0, r2
  10ddc4:	4619      	mov	r1, r3
  10ddc6:	e722      	b.n	10dc0e <__aeabi_dmul+0x24a>
  10ddc8:	ea50 0641 	orrs.w	r6, r0, r1, lsl #1
  10ddcc:	bf18      	it	ne
  10ddce:	ea52 0643 	orrsne.w	r6, r2, r3, lsl #1
  10ddd2:	f47f aec5 	bne.w	10db60 <__aeabi_dmul+0x19c>
  10ddd6:	ea50 0441 	orrs.w	r4, r0, r1, lsl #1
  10ddda:	f47f af0d 	bne.w	10dbf8 <__aeabi_dmul+0x234>
  10ddde:	ea52 0543 	orrs.w	r5, r2, r3, lsl #1
  10dde2:	f47f aeeb 	bne.w	10dbbc <__aeabi_dmul+0x1f8>
  10dde6:	e712      	b.n	10dc0e <__aeabi_dmul+0x24a>

0010dde8 <__aeabi_d2iz>:
  10dde8:	ea4f 0241 	mov.w	r2, r1, lsl #1
  10ddec:	f512 1200 	adds.w	r2, r2, #2097152	; 0x200000
  10ddf0:	d215      	bcs.n	10de1e <__aeabi_d2iz+0x36>
  10ddf2:	d511      	bpl.n	10de18 <__aeabi_d2iz+0x30>
  10ddf4:	f46f 7378 	mvn.w	r3, #992	; 0x3e0
  10ddf8:	ebb3 5262 	subs.w	r2, r3, r2, asr #21
  10ddfc:	d912      	bls.n	10de24 <__aeabi_d2iz+0x3c>
  10ddfe:	ea4f 23c1 	mov.w	r3, r1, lsl #11
  10de02:	f043 4300 	orr.w	r3, r3, #2147483648	; 0x80000000
  10de06:	ea43 5350 	orr.w	r3, r3, r0, lsr #21
  10de0a:	f011 4f00 	tst.w	r1, #2147483648	; 0x80000000
  10de0e:	fa23 f002 	lsr.w	r0, r3, r2
  10de12:	bf18      	it	ne
  10de14:	4240      	negne	r0, r0
  10de16:	4770      	bx	lr
  10de18:	f04f 0000 	mov.w	r0, #0
  10de1c:	4770      	bx	lr
  10de1e:	ea50 3001 	orrs.w	r0, r0, r1, lsl #12
  10de22:	d105      	bne.n	10de30 <__aeabi_d2iz+0x48>
  10de24:	f011 4000 	ands.w	r0, r1, #2147483648	; 0x80000000
  10de28:	bf08      	it	eq
  10de2a:	f06f 4000 	mvneq.w	r0, #2147483648	; 0x80000000
  10de2e:	4770      	bx	lr
  10de30:	f04f 0000 	mov.w	r0, #0
  10de34:	4770      	bx	lr
  10de36:	bf00      	nop

0010de38 <__aeabi_d2uiz>:
  10de38:	004a      	lsls	r2, r1, #1
  10de3a:	d211      	bcs.n	10de60 <__aeabi_d2uiz+0x28>
  10de3c:	f512 1200 	adds.w	r2, r2, #2097152	; 0x200000
  10de40:	d211      	bcs.n	10de66 <__aeabi_d2uiz+0x2e>
  10de42:	d50d      	bpl.n	10de60 <__aeabi_d2uiz+0x28>
  10de44:	f46f 7378 	mvn.w	r3, #992	; 0x3e0
  10de48:	ebb3 5262 	subs.w	r2, r3, r2, asr #21
  10de4c:	d40e      	bmi.n	10de6c <__aeabi_d2uiz+0x34>
  10de4e:	ea4f 23c1 	mov.w	r3, r1, lsl #11
  10de52:	f043 4300 	orr.w	r3, r3, #2147483648	; 0x80000000
  10de56:	ea43 5350 	orr.w	r3, r3, r0, lsr #21
  10de5a:	fa23 f002 	lsr.w	r0, r3, r2
  10de5e:	4770      	bx	lr
  10de60:	f04f 0000 	mov.w	r0, #0
  10de64:	4770      	bx	lr
  10de66:	ea50 3001 	orrs.w	r0, r0, r1, lsl #12
  10de6a:	d102      	bne.n	10de72 <__aeabi_d2uiz+0x3a>
  10de6c:	f04f 30ff 	mov.w	r0, #4294967295
  10de70:	4770      	bx	lr
  10de72:	f04f 0000 	mov.w	r0, #0
  10de76:	4770      	bx	lr

0010de78 <__aeabi_d2f>:
  10de78:	ea4f 0241 	mov.w	r2, r1, lsl #1
  10de7c:	f1b2 43e0 	subs.w	r3, r2, #1879048192	; 0x70000000
  10de80:	bf24      	itt	cs
  10de82:	f5b3 1c00 	subscs.w	r12, r3, #2097152	; 0x200000
  10de86:	f1dc 5cfe 	rsbscs	r12, r12, #532676608	; 0x1fc00000
  10de8a:	d90d      	bls.n	10dea8 <__aeabi_d2f+0x30>
  10de8c:	f001 4c00 	and.w	r12, r1, #2147483648	; 0x80000000
  10de90:	ea4f 02c0 	mov.w	r2, r0, lsl #3
  10de94:	ea4c 7050 	orr.w	r0, r12, r0, lsr #29
  10de98:	f1b2 4f00 	cmp.w	r2, #2147483648	; 0x80000000
  10de9c:	eb40 0083 	adc.w	r0, r0, r3, lsl #2
  10dea0:	bf08      	it	eq
  10dea2:	f020 0001 	biceq.w	r0, r0, #1
  10dea6:	4770      	bx	lr
  10dea8:	f011 4f80 	tst.w	r1, #1073741824	; 0x40000000
  10deac:	d121      	bne.n	10def2 <__aeabi_d2f+0x7a>
  10deae:	f113 7238 	adds.w	r2, r3, #48234496	; 0x2e00000
  10deb2:	bfbc      	itt	lt
  10deb4:	f001 4000 	andlt.w	r0, r1, #2147483648	; 0x80000000
  10deb8:	4770      	bxlt	lr
  10deba:	f441 1180 	orr.w	r1, r1, #1048576	; 0x100000
  10debe:	ea4f 5252 	mov.w	r2, r2, lsr #21
  10dec2:	f1c2 0218 	rsb	r2, r2, #24
  10dec6:	f1c2 0c20 	rsb	r12, r2, #32
  10deca:	fa10 f30c 	lsls.w	r3, r0, r12
  10dece:	fa20 f002 	lsr.w	r0, r0, r2
  10ded2:	bf18      	it	ne
  10ded4:	f040 0001 	orrne.w	r0, r0, #1
  10ded8:	ea4f 23c1 	mov.w	r3, r1, lsl #11
  10dedc:	ea4f 23d3 	mov.w	r3, r3, lsr #11
  10dee0:	fa03 fc0c 	lsl.w	r12, r3, r12
  10dee4:	ea40 000c 	orr.w	r0, r0, r12
  10dee8:	fa23 f302 	lsr.w	r3, r3, r2
  10deec:	ea4f 0343 	mov.w	r3, r3, lsl #1
  10def0:	e7cc      	b.n	10de8c <__aeabi_d2f+0x14>
  10def2:	ea7f 5362 	mvns.w	r3, r2, asr #21
  10def6:	d107      	bne.n	10df08 <__aeabi_d2f+0x90>
  10def8:	ea50 3301 	orrs.w	r3, r0, r1, lsl #12
  10defc:	bf1e      	ittt	ne
  10defe:	f04f 40fe 	movne.w	r0, #2130706432	; 0x7f000000
  10df02:	f440 0040 	orrne.w	r0, r0, #12582912	; 0xc00000
  10df06:	4770      	bxne	lr
  10df08:	f001 4000 	and.w	r0, r1, #2147483648	; 0x80000000
  10df0c:	f040 40fe 	orr.w	r0, r0, #2130706432	; 0x7f000000
  10df10:	f440 0000 	orr.w	r0, r0, #8388608	; 0x800000
  10df14:	4770      	bx	lr
  10df16:	bf00      	nop

0010df18 <_init>:
  10df18:	b5f8      	push	{r3, r4, r5, r6, r7, lr}
  10df1a:	bf00      	nop
  10df1c:	bcf8      	pop	{r3, r4, r5, r6, r7}
  10df1e:	bc08      	pop	{r3}
  10df20:	469e      	mov	lr, r3
  10df22:	4770      	bx	lr

0010df24 <_fini>:
  10df24:	b5f8      	push	{r3, r4, r5, r6, r7, lr}
  10df26:	bf00      	nop
  10df28:	bcf8      	pop	{r3, r4, r5, r6, r7}
  10df2a:	bc08      	pop	{r3}
  10df2c:	469e      	mov	lr, r3
  10df2e:	4770      	bx	lr
  10df30:	314c5352 	.word	0x314c5352
  10df34:	4f495f30 	.word	0x4f495f30
  10df38:	72655343 	.word	0x72655343
  10df3c:	00726576 	.word	0x00726576
  10df40:	00000000 	.word	0x00000000

0010df44 <vtable for mbed::SerialBase>:
	...
  10df4c:	001021f5 0010221d 39414350 45353536     .!..."..PCA9655E
  10df5c:	454f495f 632e5058 00007070 6e697028     _IOEXP.cpp..(pin
  10df6c:	203d3e20 26202930 70282026 3c206e69      >= 0) && (pin <
  10df7c:	2937203d 00000000 6f727245 6e692072     = 7)....Error in
  10df8c:	61697469 697a696c 7420676e 6d206568     itializing the m
  10df9c:	78657475 6a626f20 0a746365 00060000              utex object...

0010dfaa <os_maxtaskrun>:
  10dfaa:	000f0006                                         ..

0010dfac <os_rrobin>:
  10dfac:	0001000f                                ....

0010dfb0 <os_trv>:
  10dfb0:	00007cff                                .|..

0010dfb4 <os_flags>:
  10dfb4:	00000001                                ....

0010dfb8 <os_clockrate>:
  10dfb8:	000003e8                                ....

0010dfbc <idle_task_stack_size>:
  10dfbc:	00100080                                         ..

0010dfbe <os_fifo_size>:
  10dfbe:	626d0010 61206465 72657373 69746174     ..mbed assertati
  10dfce:	66206e6f 656c6961 25203a64 66202c73     on failed: %s, f
  10dfde:	3a656c69 2c732520 6e696c20 64252065     ile: %s, line %d
  10dfee:	00000a20 2e2e0000 2f2e2e2f 65747865      ......./../exte
  10dffe:	6c616e72 65626d2f 696c2f64 72617262     rnal/mbed/librar
  10e00e:	2f736569 6465626d 7261742f 73746567     ies/mbed/targets
  10e01e:	6c61682f 5241542f 5f544547 65536e4f     /hal/TARGET_OnSe
  10e02e:	672f696d 5f6f6970 656a626f 682e7463     mi/gpio_object.h
  10e03e:	626f0000 703e2d6a 21206e69 5028203d     ..obj->pin != (P
  10e04e:	614e6e69 4e29656d 69e90043                       inName)NC.

0010e058 <us_interface>:
  10e058:	001069e9 00106a6d 00106aed 00106b01     .i..mj...j...k..
  10e068:	00106b79                                yk..

0010e06c <us_data>:
  10e06c:	0010e058 3fff45a4 2e2f2e2e 78652f2e     X....E.?../../ex
  10e07c:	6e726574 6d2f6c61 2f646562 7262696c     ternal/mbed/libr
  10e08c:	65697261 626d2f73 742f6465 65677261     aries/mbed/targe
  10e09c:	682f7374 542f6c61 45475241 6e4f5f54     ts/hal/TARGET_On
  10e0ac:	696d6553 6970672f 70615f6f 00632e69     Semi/gpio_api.c.
  10e0bc:	206e6970 28203d21 4e6e6950 29656d61     pin != (PinName)
  10e0cc:	0000434e 63612821 6f6c4763 2e6c6162     NC..!(accGlobal.
  10e0dc:	26726156 296e6970 00000000 2e2f2e2e     Var&pin)....../.
  10e0ec:	78652f2e 6e726574 6d2f6c61 2f646562     ./external/mbed/
  10e0fc:	7262696c 65697261 626d2f73 742f6465     libraries/mbed/t
  10e10c:	65677261 682f7374 542f6c61 45475241     argets/hal/TARGE
  10e11c:	6e4f5f54 696d6553 6970672f 72695f6f     T_OnSemi/gpio_ir
  10e12c:	70615f71 00632e69 6e697028 203d3d20     q_api.c.(pin == 
  10e13c:	29303170 287c7c20 206e6970 31703d3d     p10) ||(pin ==p1
  10e14c:	7c202934 6970287c 3d3d206e 35317020     4) ||(pin == p15
  10e15c:	7c7c2029 69702820 3d3d206e 36317020     ) || (pin == p16
  10e16c:	7c7c2029 6e697028 203d3d20 29373170     ) ||(pin == p17)
  10e17c:	00000000 2e2f2e2e 78652f2e 6e726574     ....../../extern
  10e18c:	6d2f6c61 2f646562 7262696c 65697261     al/mbed/librarie
  10e19c:	626d2f73 742f6465 65677261 682f7374     s/mbed/targets/h
  10e1ac:	542f6c61 45475241 6e4f5f54 696d6553     al/TARGET_OnSemi
  10e1bc:	6332692f 6970615f 0000632e 61647328     /i2c_api.c..(sda
  10e1cc:	203d3d20 20293370 28202626 206c6373      == p3) && (scl 
  10e1dc:	70203d3d 00002932 24392220 2e2a2826     == p2).. "9$&(*.
  10e1ec:	00343230 2e2f2e2e 78652f2e 6e726574     024.../../extern
  10e1fc:	6d2f6c61 2f646562 7262696c 65697261     al/mbed/librarie
  10e20c:	626d2f73 742f6465 65677261 682f7374     s/mbed/targets/h
  10e21c:	542f6c61 45475241 6e4f5f54 696d6553     al/TARGET_OnSemi
  10e22c:	7265732f 5f6c6169 2e697061 00000063     /serial_api.c...
  10e23c:	78742828 203d3d20 20293070 28207c7c     ((tx == p0) || (
  10e24c:	3d207874 2938703d 26262029 72282820     tx ==p8)) && ((r
  10e25c:	3d3d2078 29317020 207c7c20 20787228     x == p1) || (rx 
  10e26c:	39703d3d 00002929 6f747328 69625f70     ==p9))..(stop_bi
  10e27c:	3d207374 2931203d 207c7c20 6f747328     ts == 1) || (sto
  10e28c:	69625f70 3d207374 2932203d 00000000     p_bits == 2)....
  10e29c:	74616428 69625f61 3e207374 20293420     (data_bits > 4) 
  10e2ac:	28202626 61746164 7469625f 203c2073     && (data_bits < 
  10e2bc:	00002939 72617028 20797469 50203d3d     9)..(parity == P
  10e2cc:	74697261 6e6f4e79 7c202965 7028207c     arityNone) || (p
  10e2dc:	74697261 3d3d2079 72615020 4f797469     arity == ParityO
  10e2ec:	20296464 28207c7c 69726170 3d207974     dd) || (parity =
  10e2fc:	6150203d 79746972 6e657645 7c7c2029     = ParityEven) ||
  10e30c:	61702820 79746972 203d3d20 69726150      (parity == Pari
  10e31c:	6f467974 64656372 7c202931 7028207c     tyForced1) || (p
  10e32c:	74697261 3d3d2079 72615020 46797469     arity == ParityF
  10e33c:	6563726f 00293064 00000030 2e2f2e2e     orced0).0...../.
  10e34c:	78652f2e 6e726574 6d2f6c61 2f646562     ./external/mbed/
  10e35c:	7262696c 65697261 626d2f73 742f6465     libraries/mbed/t
  10e36c:	65677261 682f7374 542f6c61 45475241     argets/hal/TARGE
  10e37c:	6e4f5f54 696d6553 6970732f 6970615f     T_OnSemi/spi_api
  10e38c:	0000632e 6f6d2828 3d206973 3570203d     .c..((mosi == p5
  10e39c:	7c7c2029 6f6d2820 3d206973 3531703d     ) || (mosi ==p15
  10e3ac:	26202929 28282026 6f73696d 703d3d20     )) && ((miso ==p
  10e3bc:	7c202936 6d28207c 206f7369 31703d3d     6) || (miso ==p1
  10e3cc:	20292936 28202626 6c637328 3d3d206b     6)) && ((sclk ==
  10e3dc:	29347020 287c7c20 6b6c6373 203d3d20      p4) ||(sclk == 
  10e3ec:	29343170 00000029 69622828 3d207374     p14))...((bits =
  10e3fc:	4f57203d 575f4452 48544449 2029385f     = WORD_WIDTH_8) 
  10e40c:	28207c7c 73746962 203d3d20 44524f57     || (bits == WORD
  10e41c:	4449575f 315f4854 7c202936 6228207c     _WIDTH_16) || (b
  10e42c:	20737469 57203d3d 5f44524f 54444957     its == WORD_WIDT
  10e43c:	32335f48 26202929 6d282026 2065646f     H_32)) && (mode 
  10e44c:	30203d3e 20262620 65646f6d 203d3c20     >= 0 && mode <= 
  10e45c:	00002933                                3)..

0010e460 <vtable for mbed::FileBase>:
	...
  10e468:	00106c85 00106ced                       .l...l..

0010e470 <vtable for mbed::FileLike>:
	...
  10e478:	001027e1 001027e1 001027e1 001027e1     .'...'...'...'..
  10e488:	001027e1 001027e1 00106d75 00000000     .'...'..um......
  10e498:	00000000 fffffffc 00000000 00000000     ................
  10e4a8:	00000000                                ....

0010e4ac <vtable for mbed::InterruptIn>:
	...
  10e4b4:	00107175 001071a5                       uq...q..

0010e4bc <__stdin_name>:
  10e4bc:	6474732f 00006e69                       /stdin..

0010e4c4 <__stdout_name>:
  10e4c4:	6474732f 0074756f                       /stdout.

0010e4cc <__stderr_name>:
  10e4cc:	6474732f 00727265 0070253a 65637845     /stderr.:%p.Exce
  10e4dc:	6f697470 0000006e                       ption...

0010e4e4 <vtable for mbed::FileHandle>:
	...
  10e4ec:	001027e1 001027e1 001027e1 001027e1     .'...'...'...'..
  10e4fc:	001027e1 001027e1 00106d75 00000000     .'...'..um......
  10e50c:	00000000                                ....

0010e510 <vtable for mbed::Serial>:
	...
  10e518:	0010269d 001026f9 00107789 001077a9     .&...&...w...w..
  10e528:	ffffffc0 00000000 00107b1d 00107b11     .........{...{..
  10e538:	00107b75 00107bd9 00107bc9 00107be5     u{...{...{...{..
  10e548:	00107bf1 001026e9 00102715 001077c5     .{...&...'...w..
  10e558:	001077a1 ffffffbc 00000000 001026f1     .w...........&..
  10e568:	0010271d                                .'..

0010e56c <vtable for mbed::SPI>:
	...
  10e574:	001079f9 00102239 00102261 0070253a     .y..9"..a"..:%p.
  10e584:	00002b77                                w+..

0010e588 <vtable for mbed::Stream>:
	...
  10e590:	00107b1d 00107b11 00107b75 00107bd9     .{...{..u{...{..
  10e5a0:	00107bc9 00107be5 00107bf1 00000000     .{...{...{......
  10e5b0:	00000000 001027e1 001027e1 fffffffc     .....'...'......
	...
  10e5cc:	69736162 74735f63 676e6972 4d5f3a3a     basic_string::_M
  10e5dc:	6572635f 00657461 203a7325 6f705f5f     _create.%s: __po
  10e5ec:	77282073 68636968 20736920 29757a25     s (which is %zu)
  10e5fc:	74203e20 2d736968 7a69733e 20292865      > this->size() 
  10e60c:	69687728 69206863 7a252073 62002975     (which is %zu).b
  10e61c:	63697361 7274735f 3a676e69 3a74613a     asic_string::at:
  10e62c:	6e5f5f20 68772820 20686369 25207369      __n (which is %
  10e63c:	2029757a 74203d3e 2d736968 7a69733e     zu) >= this->siz
  10e64c:	20292865 69687728 69206863 7a252073     e() (which is %z
  10e65c:	62002975 63697361 7274735f 3a676e69     u).basic_string:
  10e66c:	6172653a 62006573 63697361 7274735f     :erase.basic_str
  10e67c:	3a676e69 5f4d5f3a 6c706572 5f656361     ing::_M_replace_
  10e68c:	00787561 69736162 74735f63 676e6972     aux.basic_string
  10e69c:	6e693a3a 74726573 73616200 735f6369     ::insert.basic_s
  10e6ac:	6e697274 723a3a67 616c7065 62006563     tring::replace.b
  10e6bc:	63697361 7274735f 3a676e69 5f4d5f3a     asic_string::_M_
  10e6cc:	6c706572 00656361 69736162 74735f63     replace.basic_st
  10e6dc:	676e6972 73613a3a 6e676973 73616200     ring::assign.bas
  10e6ec:	735f6369 6e697274 613a3a67 6e657070     ic_string::appen
  10e6fc:	61620064 5f636973 69727473 3a3a676e     d.basic_string::
  10e70c:	79706f63 73616200 735f6369 6e697274     copy.basic_strin
  10e71c:	633a3a67 61706d6f 62006572 63697361     g::compare.basic
  10e72c:	7274735f 3a676e69 5f4d5f3a 736e6f63     _string::_M_cons
  10e73c:	63757274 756e2074 6e206c6c 7620746f     truct null not v
  10e74c:	64696c61 73616200 735f6369 6e697274     alid.basic_strin
  10e75c:	623a3a67 63697361 7274735f 00676e69     g::basic_string.
  10e76c:	69736162 74735f63 676e6972 75733a3a     basic_string::su
  10e77c:	72747362 72747300 3a676e69 7274733a     bstr.string::str
  10e78c:	00676e69                                ing.

0010e790 <_ctype_>:
  10e790:	20202000 20202020 28282020 20282828     .         ((((( 
  10e7a0:	20202020 20202020 20202020 20202020                     
  10e7b0:	10108820 10101010 10101010 10101010      ...............
  10e7c0:	04040410 04040404 10040404 10101010     ................
  10e7d0:	41411010 41414141 01010101 01010101     ..AAAAAA........
  10e7e0:	01010101 01010101 01010101 10101010     ................
  10e7f0:	42421010 42424242 02020202 02020202     ..BBBBBB........
  10e800:	02020202 02020202 02020202 10101010     ................
  10e810:	00000020 00000000 00000000 00000000      ...............
	...

0010e894 <__sf_fake_stdin>:
	...

0010e8b4 <__sf_fake_stdout>:
	...

0010e8d4 <__sf_fake_stderr>:
	...
  10e8f4:	00000043                                C...

0010e8f8 <_global_impure_ptr>:
  10e8f8:	3fff40a4 49534f50 002e0058 00464e49     .@.?POSIX...INF.
  10e908:	00666e69 004e414e 006e616e 33323130     inf.NAN.nan.0123
  10e918:	37363534 42413938 46454443 32313000     456789ABCDEF.012
  10e928:	36353433 61393837 65646362 25650066     3456789abcdef.e%
  10e938:	0000646c 0010e95a 0010e95d 0010e960     ld..Z...]...`...
  10e948:	61462d41 3938662d 33323130 37363534     A-Fa-f8901234567
  10e958:	2d2b005d 00303000 00005878              ].+-.00.xX..

0010e964 <fpinan.5407>:
  10e964:	00000034 fffffbce 000003cb 00000001     4...............
  10e974:	00000000                                ....

0010e978 <fpi.5371>:
  10e978:	00000035 fffffbce 000003cb 00000001     5...............
	...

0010e990 <tinytens>:
  10e990:	97d889bc 3c9cd2b2 d5a8a733 3949f623     .......<3...#.I9
  10e9a0:	44f4a73d 32a50ffd cf8c979d 255bba08     =..D...2......[%
  10e9b0:	64ac6f43 11680628 69666e49 7974696e     Co.d(.h.Infinity
  10e9c0:	4e614e00 00000000                       .NaN....

0010e9c8 <__mprec_tens>:
  10e9c8:	00000000 3ff00000 00000000 40240000     .......?......$@
  10e9d8:	00000000 40590000 00000000 408f4000     ......Y@.....@.@
  10e9e8:	00000000 40c38800 00000000 40f86a00     .......@.....j.@
  10e9f8:	00000000 412e8480 00000000 416312d0     .......A......cA
  10ea08:	00000000 4197d784 00000000 41cdcd65     .......A....e..A
  10ea18:	20000000 4202a05f e8000000 42374876     ... _..B....vH7B
  10ea28:	a2000000 426d1a94 e5400000 42a2309c     ......mB..@..0.B
  10ea38:	1e900000 42d6bcc4 26340000 430c6bf5     .......B..4&.k.C
  10ea48:	37e08000 4341c379 85d8a000 43763457     ...7y.AC....W4vC
  10ea58:	674ec800 43abc16d 60913d00 43e158e4     ..Ngm..C.=.`.X.C
  10ea68:	78b58c40 4415af1d d6e2ef50 444b1ae4     @..x...DP.....KD
  10ea78:	064dd592 4480f0cf c7e14af6 44b52d02     ..M....D.J...-.D
  10ea88:	79d99db4 44ea7843                       ...yCx.D

0010ea90 <p05.5414>:
  10ea90:	00000005 00000019 0000007d 00000000     ........}.......

0010eaa0 <__mprec_bigtens>:
  10eaa0:	37e08000 4341c379 b5056e17 4693b8b5     ...7y.AC.n.....F
  10eab0:	e93ff9f5 4d384f03 f9301d32 5a827748     ..?..O8M2.0.Hw.Z
  10eac0:	7f73bf3c 75154fdd 2b302d23 6c680020     <.s..O.u#-0+ .hl
  10ead0:	6665004c 47464567 00000000              L.efgEFG....

0010eadc <__EH_FRAME_BEGIN__>:
  10eadc:	00000000                                ....
