
NCS36510/RSL10_Console_BLEClientServer_SPI_Transfer.elf:     file format elf32-littlearm
architecture: arm, flags 0x00000112:
EXEC_P, HAS_SYMS, D_PAGED
start address 0x00107bfd


Disassembly of section .text:

00102000 <__isr_vector>:
  102000:	3fffd800 	.word	0x3fffd800
  102004:	00107bfd 	.word	0x00107bfd
  102008:	00107c39 	.word	0x00107c39
  10200c:	00107c3b 	.word	0x00107c3b
  102010:	00107c3d 	.word	0x00107c3d
  102014:	00107c3f 	.word	0x00107c3f
  102018:	00107c41 	.word	0x00107c41
	...
  10202c:	00104dcd 	.word	0x00104dcd
  102030:	00107c45 	.word	0x00107c45
  102034:	00000000 	.word	0x00000000
  102038:	00104e37 	.word	0x00104e37
  10203c:	00104e6d 	.word	0x00104e6d
  102040:	001069cd 	.word	0x001069cd
  102044:	00106b39 	.word	0x00106b39
  102048:	00107c4b 	.word	0x00107c4b
  10204c:	00106461 	.word	0x00106461
  102050:	00107c4b 	.word	0x00107c4b
  102054:	00107c4b 	.word	0x00107c4b
  102058:	00105775 	.word	0x00105775
  10205c:	00107c4b 	.word	0x00107c4b
  102060:	00107c4b 	.word	0x00107c4b
  102064:	00107c4b 	.word	0x00107c4b
  102068:	00107c4b 	.word	0x00107c4b
  10206c:	00107c4b 	.word	0x00107c4b
  102070:	00107c4b 	.word	0x00107c4b
  102074:	00107c4b 	.word	0x00107c4b
  102078:	00107c4b 	.word	0x00107c4b
  10207c:	00107c4b 	.word	0x00107c4b
  102080:	00107c4b 	.word	0x00107c4b
  102084:	00107c4b 	.word	0x00107c4b
  102088:	00107c4b 	.word	0x00107c4b
  10208c:	00107c4b 	.word	0x00107c4b
  102090:	3fffd800 	.word	0x3fffd800
  102094:	00107bfd 	.word	0x00107bfd
  102098:	00107c39 	.word	0x00107c39
  10209c:	00107c3b 	.word	0x00107c3b
  1020a0:	00107c3d 	.word	0x00107c3d
  1020a4:	00107c3f 	.word	0x00107c3f
  1020a8:	00107c41 	.word	0x00107c41
	...
  1020bc:	00104dcd 	.word	0x00104dcd
  1020c0:	00107c45 	.word	0x00107c45
  1020c4:	00000000 	.word	0x00000000
  1020c8:	00104e37 	.word	0x00104e37
  1020cc:	00104e6d 	.word	0x00104e6d
  1020d0:	001069cd 	.word	0x001069cd
  1020d4:	00106b39 	.word	0x00106b39
  1020d8:	00107c4b 	.word	0x00107c4b
  1020dc:	00106461 	.word	0x00106461
  1020e0:	00107c4b 	.word	0x00107c4b
  1020e4:	00107c4b 	.word	0x00107c4b
  1020e8:	00105775 	.word	0x00105775
  1020ec:	00107c4b 	.word	0x00107c4b
  1020f0:	00107c4b 	.word	0x00107c4b
  1020f4:	00107c4b 	.word	0x00107c4b
  1020f8:	00107c4b 	.word	0x00107c4b
  1020fc:	00107c4b 	.word	0x00107c4b
  102100:	00107c4b 	.word	0x00107c4b
  102104:	00107c4b 	.word	0x00107c4b
  102108:	00107c4b 	.word	0x00107c4b
  10210c:	00107c4b 	.word	0x00107c4b
  102110:	00107c4b 	.word	0x00107c4b
  102114:	00107c4b 	.word	0x00107c4b
  102118:	00107c4b 	.word	0x00107c4b
  10211c:	00107c4b 	.word	0x00107c4b

00102120 <deregister_tm_clones>:
  102120:	4b04      	ldr	r3, [pc, #16]	; (102134 <deregister_tm_clones+0x14>)
  102122:	4805      	ldr	r0, [pc, #20]	; (102138 <deregister_tm_clones+0x18>)
  102124:	1a1b      	subs	r3, r3, r0
  102126:	2b06      	cmp	r3, #6
  102128:	d902      	bls.n	102130 <deregister_tm_clones+0x10>
  10212a:	4b04      	ldr	r3, [pc, #16]	; (10213c <deregister_tm_clones+0x1c>)
  10212c:	b103      	cbz	r3, 102130 <deregister_tm_clones+0x10>
  10212e:	4718      	bx	r3
  102130:	4770      	bx	lr
  102132:	bf00      	nop
  102134:	3fff415f 	.word	0x3fff415f
  102138:	3fff415c 	.word	0x3fff415c
  10213c:	00000000 	.word	0x00000000

00102140 <register_tm_clones>:
  102140:	4905      	ldr	r1, [pc, #20]	; (102158 <register_tm_clones+0x18>)
  102142:	4806      	ldr	r0, [pc, #24]	; (10215c <register_tm_clones+0x1c>)
  102144:	1a09      	subs	r1, r1, r0
  102146:	1089      	asrs	r1, r1, #2
  102148:	eb01 71d1 	add.w	r1, r1, r1, lsr #31
  10214c:	1049      	asrs	r1, r1, #1
  10214e:	d002      	beq.n	102156 <register_tm_clones+0x16>
  102150:	4b03      	ldr	r3, [pc, #12]	; (102160 <register_tm_clones+0x20>)
  102152:	b103      	cbz	r3, 102156 <register_tm_clones+0x16>
  102154:	4718      	bx	r3
  102156:	4770      	bx	lr
  102158:	3fff415c 	.word	0x3fff415c
  10215c:	3fff415c 	.word	0x3fff415c
  102160:	00000000 	.word	0x00000000

00102164 <__do_global_dtors_aux>:
  102164:	b510      	push	{r4, lr}
  102166:	4c06      	ldr	r4, [pc, #24]	; (102180 <__do_global_dtors_aux+0x1c>)
  102168:	7823      	ldrb	r3, [r4, #0]
  10216a:	b943      	cbnz	r3, 10217e <__do_global_dtors_aux+0x1a>
  10216c:	f7ff ffd8 	bl	102120 <deregister_tm_clones>
  102170:	4b04      	ldr	r3, [pc, #16]	; (102184 <__do_global_dtors_aux+0x20>)
  102172:	b113      	cbz	r3, 10217a <__do_global_dtors_aux+0x16>
  102174:	4804      	ldr	r0, [pc, #16]	; (102188 <__do_global_dtors_aux+0x24>)
  102176:	f3af 8000 	nop.w
  10217a:	2301      	movs	r3, #1
  10217c:	7023      	strb	r3, [r4, #0]
  10217e:	bd10      	pop	{r4, pc}
  102180:	3fff415c 	.word	0x3fff415c
  102184:	00000000 	.word	0x00000000
  102188:	0010eadc 	.word	0x0010eadc

0010218c <frame_dummy>:
  10218c:	b508      	push	{r3, lr}
  10218e:	4b08      	ldr	r3, [pc, #32]	; (1021b0 <frame_dummy+0x24>)
  102190:	b11b      	cbz	r3, 10219a <frame_dummy+0xe>
  102192:	4908      	ldr	r1, [pc, #32]	; (1021b4 <frame_dummy+0x28>)
  102194:	4808      	ldr	r0, [pc, #32]	; (1021b8 <frame_dummy+0x2c>)
  102196:	f3af 8000 	nop.w
  10219a:	4808      	ldr	r0, [pc, #32]	; (1021bc <frame_dummy+0x30>)
  10219c:	6803      	ldr	r3, [r0, #0]
  10219e:	b913      	cbnz	r3, 1021a6 <frame_dummy+0x1a>
  1021a0:	e8bd 4008 	ldmia.w	sp!, {r3, lr}
  1021a4:	e7cc      	b.n	102140 <register_tm_clones>
  1021a6:	4b06      	ldr	r3, [pc, #24]	; (1021c0 <frame_dummy+0x34>)
  1021a8:	2b00      	cmp	r3, #0
  1021aa:	d0f9      	beq.n	1021a0 <frame_dummy+0x14>
  1021ac:	4798      	blx	r3
  1021ae:	e7f7      	b.n	1021a0 <frame_dummy+0x14>
  1021b0:	00000000 	.word	0x00000000
  1021b4:	3fff4160 	.word	0x3fff4160
  1021b8:	0010eadc 	.word	0x0010eadc
  1021bc:	3fff415c 	.word	0x3fff415c
  1021c0:	00000000 	.word	0x00000000

001021c4 <mbed::DigitalOut::DigitalOut(PinName)>:
  1021c4:	b500      	push	{lr}
  1021c6:	b083      	sub	sp, #12
  1021c8:	9001      	str	r0, [sp, #4]
  1021ca:	9100      	str	r1, [sp, #0]
  1021cc:	9b01      	ldr	r3, [sp, #4]
  1021ce:	461a      	mov	r2, r3
  1021d0:	2300      	movs	r3, #0
  1021d2:	6013      	str	r3, [r2, #0]
  1021d4:	6053      	str	r3, [r2, #4]
  1021d6:	6093      	str	r3, [r2, #8]
  1021d8:	60d3      	str	r3, [r2, #12]
  1021da:	6113      	str	r3, [r2, #16]
  1021dc:	6153      	str	r3, [r2, #20]
  1021de:	9b01      	ldr	r3, [sp, #4]
  1021e0:	9900      	ldr	r1, [sp, #0]
  1021e2:	4618      	mov	r0, r3
  1021e4:	f003 f8aa 	bl	10533c <gpio_init_out>
  1021e8:	9b01      	ldr	r3, [sp, #4]
  1021ea:	4618      	mov	r0, r3
  1021ec:	b003      	add	sp, #12
  1021ee:	f85d fb04 	ldr.w	pc, [sp], #4
  1021f2:	bf00      	nop

001021f4 <mbed::SerialBase::~SerialBase()>:
  1021f4:	b500      	push	{lr}
  1021f6:	b083      	sub	sp, #12
  1021f8:	9001      	str	r0, [sp, #4]
  1021fa:	4a07      	ldr	r2, [pc, #28]	; (102218 <mbed::SerialBase::~SerialBase()+0x24>)
  1021fc:	9b01      	ldr	r3, [sp, #4]
  1021fe:	601a      	str	r2, [r3, #0]
  102200:	2300      	movs	r3, #0
  102202:	2b00      	cmp	r3, #0
  102204:	d002      	beq.n	10220c <mbed::SerialBase::~SerialBase()+0x18>
  102206:	9801      	ldr	r0, [sp, #4]
  102208:	f005 fd25 	bl	107c56 <operator delete(void*)>
  10220c:	9b01      	ldr	r3, [sp, #4]
  10220e:	4618      	mov	r0, r3
  102210:	b003      	add	sp, #12
  102212:	f85d fb04 	ldr.w	pc, [sp], #4
  102216:	bf00      	nop
  102218:	0010df4c 	.word	0x0010df4c

0010221c <mbed::SerialBase::~SerialBase()>:
  10221c:	b500      	push	{lr}
  10221e:	b083      	sub	sp, #12
  102220:	9001      	str	r0, [sp, #4]
  102222:	9801      	ldr	r0, [sp, #4]
  102224:	f7ff ffe6 	bl	1021f4 <mbed::SerialBase::~SerialBase()>
  102228:	9801      	ldr	r0, [sp, #4]
  10222a:	f005 fd14 	bl	107c56 <operator delete(void*)>
  10222e:	9b01      	ldr	r3, [sp, #4]
  102230:	4618      	mov	r0, r3
  102232:	b003      	add	sp, #12
  102234:	f85d fb04 	ldr.w	pc, [sp], #4

00102238 <mbed::SPI::~SPI()>:
  102238:	b500      	push	{lr}
  10223a:	b083      	sub	sp, #12
  10223c:	9001      	str	r0, [sp, #4]
  10223e:	4a07      	ldr	r2, [pc, #28]	; (10225c <mbed::SPI::~SPI()+0x24>)
  102240:	9b01      	ldr	r3, [sp, #4]
  102242:	601a      	str	r2, [r3, #0]
  102244:	2300      	movs	r3, #0
  102246:	2b00      	cmp	r3, #0
  102248:	d002      	beq.n	102250 <mbed::SPI::~SPI()+0x18>
  10224a:	9801      	ldr	r0, [sp, #4]
  10224c:	f005 fd03 	bl	107c56 <operator delete(void*)>
  102250:	9b01      	ldr	r3, [sp, #4]
  102252:	4618      	mov	r0, r3
  102254:	b003      	add	sp, #12
  102256:	f85d fb04 	ldr.w	pc, [sp], #4
  10225a:	bf00      	nop
  10225c:	0010e574 	.word	0x0010e574

00102260 <mbed::SPI::~SPI()>:
  102260:	b500      	push	{lr}
  102262:	b083      	sub	sp, #12
  102264:	9001      	str	r0, [sp, #4]
  102266:	9801      	ldr	r0, [sp, #4]
  102268:	f7ff ffe6 	bl	102238 <mbed::SPI::~SPI()>
  10226c:	9801      	ldr	r0, [sp, #4]
  10226e:	f005 fcf2 	bl	107c56 <operator delete(void*)>
  102272:	9b01      	ldr	r3, [sp, #4]
  102274:	4618      	mov	r0, r3
  102276:	b003      	add	sp, #12
  102278:	f85d fb04 	ldr.w	pc, [sp], #4

0010227c <NHD_C0216CZ::NHD_C0216CZ()>:
  10227c:	b500      	push	{lr}
  10227e:	b085      	sub	sp, #20
  102280:	9003      	str	r0, [sp, #12]
  102282:	9803      	ldr	r0, [sp, #12]
  102284:	f04f 33ff 	mov.w	r3, #4294967295
  102288:	9300      	str	r3, [sp, #0]
  10228a:	2310      	movs	r3, #16
  10228c:	2240      	movs	r2, #64	; 0x40
  10228e:	2120      	movs	r1, #32
  102290:	f005 fb2c 	bl	1078ec <mbed::SPI::SPI(PinName, PinName, PinName, PinName)>
  102294:	9b03      	ldr	r3, [sp, #12]
  102296:	3314      	adds	r3, #20
  102298:	f04f 31ff 	mov.w	r1, #4294967295
  10229c:	4618      	mov	r0, r3
  10229e:	f7ff ff91 	bl	1021c4 <mbed::DigitalOut::DigitalOut(PinName)>
  1022a2:	9b03      	ldr	r3, [sp, #12]
  1022a4:	f103 0034 	add.w	r0, r3, #52	; 0x34
  1022a8:	f04f 33ff 	mov.w	r3, #4294967295
  1022ac:	9300      	str	r3, [sp, #0]
  1022ae:	2320      	movs	r3, #32
  1022b0:	2204      	movs	r2, #4
  1022b2:	2108      	movs	r1, #8
  1022b4:	f000 fd0a 	bl	102ccc <PCA9655E::PCA9655E(PinName, PinName, unsigned char, PinName)>
  1022b8:	9b03      	ldr	r3, [sp, #12]
  1022ba:	4618      	mov	r0, r3
  1022bc:	b005      	add	sp, #20
  1022be:	f85d fb04 	ldr.w	pc, [sp], #4
  1022c2:	bf00      	nop

001022c4 <main>:
  1022c4:	b508      	push	{r3, lr}
  1022c6:	4836      	ldr	r0, [pc, #216]	; (1023a0 <main+0xdc>)
  1022c8:	f000 fa8e 	bl	1027e8 <NHD_C0216CZ::init()>
  1022cc:	4935      	ldr	r1, [pc, #212]	; (1023a4 <main+0xe0>)
  1022ce:	4834      	ldr	r0, [pc, #208]	; (1023a0 <main+0xdc>)
  1022d0:	f000 fac4 	bl	10285c <NHD_C0216CZ::displayString(char const*)>
  1022d4:	2201      	movs	r2, #1
  1022d6:	2102      	movs	r1, #2
  1022d8:	4831      	ldr	r0, [pc, #196]	; (1023a0 <main+0xdc>)
  1022da:	f000 fb15 	bl	102908 <NHD_C0216CZ::setPosition(int, int)>
  1022de:	2200      	movs	r2, #0
  1022e0:	2120      	movs	r1, #32
  1022e2:	4831      	ldr	r0, [pc, #196]	; (1023a8 <main+0xe4>)
  1022e4:	f005 fb3a 	bl	10795c <mbed::SPI::format(int, int)>
  1022e8:	2164      	movs	r1, #100	; 0x64
  1022ea:	482f      	ldr	r0, [pc, #188]	; (1023a8 <main+0xe4>)
  1022ec:	f005 fb4e 	bl	10798c <mbed::SPI::frequency(int)>
  1022f0:	2301      	movs	r3, #1
  1022f2:	2200      	movs	r2, #0
  1022f4:	2108      	movs	r1, #8
  1022f6:	482d      	ldr	r0, [pc, #180]	; (1023ac <main+0xe8>)
  1022f8:	f005 fa9e 	bl	107838 <mbed::SerialBase::format(int, mbed::SerialBase::Parity, int)>
  1022fc:	2301      	movs	r3, #1
  1022fe:	2200      	movs	r2, #0
  102300:	2108      	movs	r1, #8
  102302:	482b      	ldr	r0, [pc, #172]	; (1023b0 <main+0xec>)
  102304:	f005 fa98 	bl	107838 <mbed::SerialBase::format(int, mbed::SerialBase::Parity, int)>
  102308:	2300      	movs	r3, #0
  10230a:	2200      	movs	r2, #0
  10230c:	2101      	movs	r1, #1
  10230e:	4829      	ldr	r0, [pc, #164]	; (1023b4 <main+0xf0>)
  102310:	f000 fd9a 	bl	102e48 <PCA9655E::setDirection(Port, signed char, Direction)>
  102314:	2301      	movs	r3, #1
  102316:	2200      	movs	r2, #0
  102318:	2101      	movs	r1, #1
  10231a:	4826      	ldr	r0, [pc, #152]	; (1023b4 <main+0xf0>)
  10231c:	f000 fd2c 	bl	102d78 <PCA9655E::setValue(Port, signed char, SetVal)>
  102320:	2301      	movs	r3, #1
  102322:	2200      	movs	r2, #0
  102324:	2100      	movs	r1, #0
  102326:	4823      	ldr	r0, [pc, #140]	; (1023b4 <main+0xf0>)
  102328:	f000 fd8e 	bl	102e48 <PCA9655E::setDirection(Port, signed char, Direction)>
  10232c:	4a22      	ldr	r2, [pc, #136]	; (1023b8 <main+0xf4>)
  10232e:	2101      	movs	r1, #1
  102330:	4820      	ldr	r0, [pc, #128]	; (1023b4 <main+0xf0>)
  102332:	f000 fcfd 	bl	102d30 <PCA9655E::interruptInit(IntEdge, void (*)())>
  102336:	f04f 507c 	mov.w	r0, #1056964608	; 0x3f000000
  10233a:	f003 f865 	bl	105408 <wait>
  10233e:	481b      	ldr	r0, [pc, #108]	; (1023ac <main+0xe8>)
  102340:	f005 fa8e 	bl	107860 <mbed::SerialBase::readable()>
  102344:	4603      	mov	r3, r0
  102346:	2b00      	cmp	r3, #0
  102348:	bfcc      	ite	gt
  10234a:	2301      	movgt	r3, #1
  10234c:	2300      	movle	r3, #0
  10234e:	b2db      	uxtb	r3, r3
  102350:	2b00      	cmp	r3, #0
  102352:	d0f4      	beq.n	10233e <main+0x7a>
  102354:	4819      	ldr	r0, [pc, #100]	; (1023bc <main+0xf8>)
  102356:	f005 fbc9 	bl	107aec <mbed::Stream::getc()>
  10235a:	4603      	mov	r3, r0
  10235c:	b2da      	uxtb	r2, r3
  10235e:	4b18      	ldr	r3, [pc, #96]	; (1023c0 <main+0xfc>)
  102360:	701a      	strb	r2, [r3, #0]
  102362:	4b17      	ldr	r3, [pc, #92]	; (1023c0 <main+0xfc>)
  102364:	781b      	ldrb	r3, [r3, #0]
  102366:	4619      	mov	r1, r3
  102368:	480d      	ldr	r0, [pc, #52]	; (1023a0 <main+0xdc>)
  10236a:	f000 fabb 	bl	1028e4 <NHD_C0216CZ::displayChar(char)>
  10236e:	2300      	movs	r3, #0
  102370:	2200      	movs	r2, #0
  102372:	2101      	movs	r1, #1
  102374:	480f      	ldr	r0, [pc, #60]	; (1023b4 <main+0xf0>)
  102376:	f000 fcff 	bl	102d78 <PCA9655E::setValue(Port, signed char, SetVal)>
  10237a:	4b11      	ldr	r3, [pc, #68]	; (1023c0 <main+0xfc>)
  10237c:	781b      	ldrb	r3, [r3, #0]
  10237e:	4619      	mov	r1, r3
  102380:	4809      	ldr	r0, [pc, #36]	; (1023a8 <main+0xe4>)
  102382:	f005 fb39 	bl	1079f8 <mbed::SPI::write(int)>
  102386:	4602      	mov	r2, r0
  102388:	4b0e      	ldr	r3, [pc, #56]	; (1023c4 <main+0x100>)
  10238a:	601a      	str	r2, [r3, #0]
  10238c:	4b0d      	ldr	r3, [pc, #52]	; (1023c4 <main+0x100>)
  10238e:	2200      	movs	r2, #0
  102390:	601a      	str	r2, [r3, #0]
  102392:	2301      	movs	r3, #1
  102394:	2200      	movs	r2, #0
  102396:	2101      	movs	r1, #1
  102398:	4806      	ldr	r0, [pc, #24]	; (1023b4 <main+0xf0>)
  10239a:	f000 fced 	bl	102d78 <PCA9655E::setValue(Port, signed char, SetVal)>
  10239e:	e7ce      	b.n	10233e <main+0x7a>
  1023a0:	3fff43d8 	.word	0x3fff43d8
  1023a4:	0010df30 	.word	0x0010df30
  1023a8:	3fff4524 	.word	0x3fff4524
  1023ac:	3fff4470 	.word	0x3fff4470
  1023b0:	3fff44c8 	.word	0x3fff44c8
  1023b4:	3fff453c 	.word	0x3fff453c
  1023b8:	001023c9 	.word	0x001023c9
  1023bc:	3fff44b0 	.word	0x3fff44b0
  1023c0:	3fff4520 	.word	0x3fff4520
  1023c4:	3fff4538 	.word	0x3fff4538

001023c8 <handler_int_pca9655e()>:
  1023c8:	b508      	push	{r3, lr}
  1023ca:	2300      	movs	r3, #0
  1023cc:	2200      	movs	r2, #0
  1023ce:	2101      	movs	r1, #1
  1023d0:	481a      	ldr	r0, [pc, #104]	; (10243c <handler_int_pca9655e()+0x74>)
  1023d2:	f000 fcd1 	bl	102d78 <PCA9655E::setValue(Port, signed char, SetVal)>
  1023d6:	2105      	movs	r1, #5
  1023d8:	4819      	ldr	r0, [pc, #100]	; (102440 <handler_int_pca9655e()+0x78>)
  1023da:	f005 fb0d 	bl	1079f8 <mbed::SPI::write(int)>
  1023de:	4602      	mov	r2, r0
  1023e0:	4b18      	ldr	r3, [pc, #96]	; (102444 <handler_int_pca9655e()+0x7c>)
  1023e2:	601a      	str	r2, [r3, #0]
  1023e4:	2301      	movs	r3, #1
  1023e6:	2200      	movs	r2, #0
  1023e8:	2101      	movs	r1, #1
  1023ea:	4814      	ldr	r0, [pc, #80]	; (10243c <handler_int_pca9655e()+0x74>)
  1023ec:	f000 fcc4 	bl	102d78 <PCA9655E::setValue(Port, signed char, SetVal)>
  1023f0:	4b14      	ldr	r3, [pc, #80]	; (102444 <handler_int_pca9655e()+0x7c>)
  1023f2:	681b      	ldr	r3, [r3, #0]
  1023f4:	4619      	mov	r1, r3
  1023f6:	4814      	ldr	r0, [pc, #80]	; (102448 <handler_int_pca9655e()+0x80>)
  1023f8:	f005 fb64 	bl	107ac4 <mbed::Stream::putc(int)>
  1023fc:	4b11      	ldr	r3, [pc, #68]	; (102444 <handler_int_pca9655e()+0x7c>)
  1023fe:	681b      	ldr	r3, [r3, #0]
  102400:	b2db      	uxtb	r3, r3
  102402:	4619      	mov	r1, r3
  102404:	4811      	ldr	r0, [pc, #68]	; (10244c <handler_int_pca9655e()+0x84>)
  102406:	f000 fa6d 	bl	1028e4 <NHD_C0216CZ::displayChar(char)>
  10240a:	4b0e      	ldr	r3, [pc, #56]	; (102444 <handler_int_pca9655e()+0x7c>)
  10240c:	681b      	ldr	r3, [r3, #0]
  10240e:	2b41      	cmp	r3, #65	; 0x41
  102410:	d112      	bne.n	102438 <handler_int_pca9655e()+0x70>
  102412:	2300      	movs	r3, #0
  102414:	2200      	movs	r2, #0
  102416:	2101      	movs	r1, #1
  102418:	4808      	ldr	r0, [pc, #32]	; (10243c <handler_int_pca9655e()+0x74>)
  10241a:	f000 fcad 	bl	102d78 <PCA9655E::setValue(Port, signed char, SetVal)>
  10241e:	490c      	ldr	r1, [pc, #48]	; (102450 <handler_int_pca9655e()+0x88>)
  102420:	4807      	ldr	r0, [pc, #28]	; (102440 <handler_int_pca9655e()+0x78>)
  102422:	f005 fae9 	bl	1079f8 <mbed::SPI::write(int)>
  102426:	4602      	mov	r2, r0
  102428:	4b06      	ldr	r3, [pc, #24]	; (102444 <handler_int_pca9655e()+0x7c>)
  10242a:	601a      	str	r2, [r3, #0]
  10242c:	2301      	movs	r3, #1
  10242e:	2200      	movs	r2, #0
  102430:	2101      	movs	r1, #1
  102432:	4802      	ldr	r0, [pc, #8]	; (10243c <handler_int_pca9655e()+0x74>)
  102434:	f000 fca0 	bl	102d78 <PCA9655E::setValue(Port, signed char, SetVal)>
  102438:	bf00      	nop
  10243a:	bd08      	pop	{r3, pc}
  10243c:	3fff453c 	.word	0x3fff453c
  102440:	3fff4524 	.word	0x3fff4524
  102444:	3fff4538 	.word	0x3fff4538
  102448:	3fff44b0 	.word	0x3fff44b0
  10244c:	3fff43d8 	.word	0x3fff43d8
  102450:	10000001 	.word	0x10000001

00102454 <__tcf_0>:
  102454:	b510      	push	{r4, lr}
  102456:	b082      	sub	sp, #8
  102458:	9001      	str	r0, [sp, #4]
  10245a:	4c05      	ldr	r4, [pc, #20]	; (102470 <__tcf_0+0x1c>)
  10245c:	4b05      	ldr	r3, [pc, #20]	; (102474 <__tcf_0+0x20>)
  10245e:	429c      	cmp	r4, r3
  102460:	d004      	beq.n	10246c <__tcf_0+0x18>
  102462:	3c18      	subs	r4, #24
  102464:	4620      	mov	r0, r4
  102466:	f005 fc48 	bl	107cfa <std::__cxx11::basic_string<char, std::char_traits<char>, std::allocator<char> >::~basic_string()>
  10246a:	e7f7      	b.n	10245c <__tcf_0+0x8>
  10246c:	b002      	add	sp, #8
  10246e:	bd10      	pop	{r4, pc}
  102470:	3fff4310 	.word	0x3fff4310
  102474:	3fff4190 	.word	0x3fff4190

00102478 <NHD_C0216CZ::~NHD_C0216CZ()>:
  102478:	b500      	push	{lr}
  10247a:	b083      	sub	sp, #12
  10247c:	9001      	str	r0, [sp, #4]
  10247e:	9b01      	ldr	r3, [sp, #4]
  102480:	3334      	adds	r3, #52	; 0x34
  102482:	4618      	mov	r0, r3
  102484:	f000 fd94 	bl	102fb0 <PCA9655E::~PCA9655E()>
  102488:	9b01      	ldr	r3, [sp, #4]
  10248a:	4618      	mov	r0, r3
  10248c:	f7ff fed4 	bl	102238 <mbed::SPI::~SPI()>
  102490:	9b01      	ldr	r3, [sp, #4]
  102492:	4618      	mov	r0, r3
  102494:	b003      	add	sp, #12
  102496:	f85d fb04 	ldr.w	pc, [sp], #4
  10249a:	bf00      	nop

0010249c <__static_initialization_and_destruction_0(int, int)>:
  10249c:	b5f0      	push	{r4, r5, r6, r7, lr}
  10249e:	b089      	sub	sp, #36	; 0x24
  1024a0:	9003      	str	r0, [sp, #12]
  1024a2:	9102      	str	r1, [sp, #8]
  1024a4:	9b03      	ldr	r3, [sp, #12]
  1024a6:	2b01      	cmp	r3, #1
  1024a8:	f040 80c9 	bne.w	10263e <__static_initialization_and_destruction_0(int, int)+0x1a2>
  1024ac:	9b02      	ldr	r3, [sp, #8]
  1024ae:	f64f 72ff 	movw	r2, #65535	; 0xffff
  1024b2:	4293      	cmp	r3, r2
  1024b4:	f040 80c3 	bne.w	10263e <__static_initialization_and_destruction_0(int, int)+0x1a2>
  1024b8:	ab04      	add	r3, sp, #16
  1024ba:	4618      	mov	r0, r3
  1024bc:	f005 fbde 	bl	107c7c <std::allocator<char>::allocator()>
  1024c0:	ab04      	add	r3, sp, #16
  1024c2:	461a      	mov	r2, r3
  1024c4:	495f      	ldr	r1, [pc, #380]	; (102644 <__static_initialization_and_destruction_0(int, int)+0x1a8>)
  1024c6:	4860      	ldr	r0, [pc, #384]	; (102648 <__static_initialization_and_destruction_0(int, int)+0x1ac>)
  1024c8:	f005 fc42 	bl	107d50 <std::__cxx11::basic_string<char, std::char_traits<char>, std::allocator<char> >::basic_string(char const*, std::allocator<char> const&)>
  1024cc:	ab04      	add	r3, sp, #16
  1024ce:	4618      	mov	r0, r3
  1024d0:	f005 fbd5 	bl	107c7e <std::allocator<char>::~allocator()>
  1024d4:	4a5d      	ldr	r2, [pc, #372]	; (10264c <__static_initialization_and_destruction_0(int, int)+0x1b0>)
  1024d6:	495e      	ldr	r1, [pc, #376]	; (102650 <__static_initialization_and_destruction_0(int, int)+0x1b4>)
  1024d8:	485b      	ldr	r0, [pc, #364]	; (102648 <__static_initialization_and_destruction_0(int, int)+0x1ac>)
  1024da:	f005 fbb7 	bl	107c4c <__aeabi_atexit>
  1024de:	4b5d      	ldr	r3, [pc, #372]	; (102654 <__static_initialization_and_destruction_0(int, int)+0x1b8>)
  1024e0:	2407      	movs	r4, #7
  1024e2:	461e      	mov	r6, r3
  1024e4:	f1b4 3fff 	cmp.w	r4, #4294967295
  1024e8:	d00e      	beq.n	102508 <__static_initialization_and_destruction_0(int, int)+0x6c>
  1024ea:	4633      	mov	r3, r6
  1024ec:	2501      	movs	r5, #1
  1024ee:	461f      	mov	r7, r3
  1024f0:	f1b5 3fff 	cmp.w	r5, #4294967295
  1024f4:	d005      	beq.n	102502 <__static_initialization_and_destruction_0(int, int)+0x66>
  1024f6:	4638      	mov	r0, r7
  1024f8:	f005 fbf8 	bl	107cec <std::__cxx11::basic_string<char, std::char_traits<char>, std::allocator<char> >::basic_string()>
  1024fc:	3718      	adds	r7, #24
  1024fe:	3d01      	subs	r5, #1
  102500:	e7f6      	b.n	1024f0 <__static_initialization_and_destruction_0(int, int)+0x54>
  102502:	3630      	adds	r6, #48	; 0x30
  102504:	3c01      	subs	r4, #1
  102506:	e7ed      	b.n	1024e4 <__static_initialization_and_destruction_0(int, int)+0x48>
  102508:	4a50      	ldr	r2, [pc, #320]	; (10264c <__static_initialization_and_destruction_0(int, int)+0x1b0>)
  10250a:	4953      	ldr	r1, [pc, #332]	; (102658 <__static_initialization_and_destruction_0(int, int)+0x1bc>)
  10250c:	2000      	movs	r0, #0
  10250e:	f005 fb9d 	bl	107c4c <__aeabi_atexit>
  102512:	ab05      	add	r3, sp, #20
  102514:	4618      	mov	r0, r3
  102516:	f005 fbb1 	bl	107c7c <std::allocator<char>::allocator()>
  10251a:	ab05      	add	r3, sp, #20
  10251c:	461a      	mov	r2, r3
  10251e:	4949      	ldr	r1, [pc, #292]	; (102644 <__static_initialization_and_destruction_0(int, int)+0x1a8>)
  102520:	484e      	ldr	r0, [pc, #312]	; (10265c <__static_initialization_and_destruction_0(int, int)+0x1c0>)
  102522:	f005 fc15 	bl	107d50 <std::__cxx11::basic_string<char, std::char_traits<char>, std::allocator<char> >::basic_string(char const*, std::allocator<char> const&)>
  102526:	ab05      	add	r3, sp, #20
  102528:	4618      	mov	r0, r3
  10252a:	f005 fba8 	bl	107c7e <std::allocator<char>::~allocator()>
  10252e:	4a47      	ldr	r2, [pc, #284]	; (10264c <__static_initialization_and_destruction_0(int, int)+0x1b0>)
  102530:	4947      	ldr	r1, [pc, #284]	; (102650 <__static_initialization_and_destruction_0(int, int)+0x1b4>)
  102532:	484a      	ldr	r0, [pc, #296]	; (10265c <__static_initialization_and_destruction_0(int, int)+0x1c0>)
  102534:	f005 fb8a 	bl	107c4c <__aeabi_atexit>
  102538:	ab06      	add	r3, sp, #24
  10253a:	4618      	mov	r0, r3
  10253c:	f005 fb9e 	bl	107c7c <std::allocator<char>::allocator()>
  102540:	ab06      	add	r3, sp, #24
  102542:	461a      	mov	r2, r3
  102544:	493f      	ldr	r1, [pc, #252]	; (102644 <__static_initialization_and_destruction_0(int, int)+0x1a8>)
  102546:	4846      	ldr	r0, [pc, #280]	; (102660 <__static_initialization_and_destruction_0(int, int)+0x1c4>)
  102548:	f005 fc02 	bl	107d50 <std::__cxx11::basic_string<char, std::char_traits<char>, std::allocator<char> >::basic_string(char const*, std::allocator<char> const&)>
  10254c:	ab06      	add	r3, sp, #24
  10254e:	4618      	mov	r0, r3
  102550:	f005 fb95 	bl	107c7e <std::allocator<char>::~allocator()>
  102554:	4a3d      	ldr	r2, [pc, #244]	; (10264c <__static_initialization_and_destruction_0(int, int)+0x1b0>)
  102556:	493e      	ldr	r1, [pc, #248]	; (102650 <__static_initialization_and_destruction_0(int, int)+0x1b4>)
  102558:	4841      	ldr	r0, [pc, #260]	; (102660 <__static_initialization_and_destruction_0(int, int)+0x1c4>)
  10255a:	f005 fb77 	bl	107c4c <__aeabi_atexit>
  10255e:	ab07      	add	r3, sp, #28
  102560:	4618      	mov	r0, r3
  102562:	f005 fb8b 	bl	107c7c <std::allocator<char>::allocator()>
  102566:	ab07      	add	r3, sp, #28
  102568:	461a      	mov	r2, r3
  10256a:	4936      	ldr	r1, [pc, #216]	; (102644 <__static_initialization_and_destruction_0(int, int)+0x1a8>)
  10256c:	483d      	ldr	r0, [pc, #244]	; (102664 <__static_initialization_and_destruction_0(int, int)+0x1c8>)
  10256e:	f005 fbef 	bl	107d50 <std::__cxx11::basic_string<char, std::char_traits<char>, std::allocator<char> >::basic_string(char const*, std::allocator<char> const&)>
  102572:	ab07      	add	r3, sp, #28
  102574:	4618      	mov	r0, r3
  102576:	f005 fb82 	bl	107c7e <std::allocator<char>::~allocator()>
  10257a:	4a34      	ldr	r2, [pc, #208]	; (10264c <__static_initialization_and_destruction_0(int, int)+0x1b0>)
  10257c:	4934      	ldr	r1, [pc, #208]	; (102650 <__static_initialization_and_destruction_0(int, int)+0x1b4>)
  10257e:	4839      	ldr	r0, [pc, #228]	; (102664 <__static_initialization_and_destruction_0(int, int)+0x1c8>)
  102580:	f005 fb64 	bl	107c4c <__aeabi_atexit>
  102584:	f04f 33ff 	mov.w	r3, #4294967295
  102588:	9300      	str	r3, [sp, #0]
  10258a:	2310      	movs	r3, #16
  10258c:	2240      	movs	r2, #64	; 0x40
  10258e:	2120      	movs	r1, #32
  102590:	4835      	ldr	r0, [pc, #212]	; (102668 <__static_initialization_and_destruction_0(int, int)+0x1cc>)
  102592:	f005 f9ab 	bl	1078ec <mbed::SPI::SPI(PinName, PinName, PinName, PinName)>
  102596:	4a2d      	ldr	r2, [pc, #180]	; (10264c <__static_initialization_and_destruction_0(int, int)+0x1b0>)
  102598:	4934      	ldr	r1, [pc, #208]	; (10266c <__static_initialization_and_destruction_0(int, int)+0x1d0>)
  10259a:	4833      	ldr	r0, [pc, #204]	; (102668 <__static_initialization_and_destruction_0(int, int)+0x1cc>)
  10259c:	f005 fb56 	bl	107c4c <__aeabi_atexit>
  1025a0:	2300      	movs	r3, #0
  1025a2:	2202      	movs	r2, #2
  1025a4:	2101      	movs	r1, #1
  1025a6:	4832      	ldr	r0, [pc, #200]	; (102670 <__static_initialization_and_destruction_0(int, int)+0x1d4>)
  1025a8:	f005 f8c8 	bl	10773c <mbed::Serial::Serial(PinName, PinName, char const*)>
  1025ac:	4a27      	ldr	r2, [pc, #156]	; (10264c <__static_initialization_and_destruction_0(int, int)+0x1b0>)
  1025ae:	4931      	ldr	r1, [pc, #196]	; (102674 <__static_initialization_and_destruction_0(int, int)+0x1d8>)
  1025b0:	482f      	ldr	r0, [pc, #188]	; (102670 <__static_initialization_and_destruction_0(int, int)+0x1d4>)
  1025b2:	f005 fb4b 	bl	107c4c <__aeabi_atexit>
  1025b6:	4830      	ldr	r0, [pc, #192]	; (102678 <__static_initialization_and_destruction_0(int, int)+0x1dc>)
  1025b8:	f000 fd08 	bl	102fcc <rtos::Mutex::Mutex()>
  1025bc:	4a23      	ldr	r2, [pc, #140]	; (10264c <__static_initialization_and_destruction_0(int, int)+0x1b0>)
  1025be:	492f      	ldr	r1, [pc, #188]	; (10267c <__static_initialization_and_destruction_0(int, int)+0x1e0>)
  1025c0:	482d      	ldr	r0, [pc, #180]	; (102678 <__static_initialization_and_destruction_0(int, int)+0x1dc>)
  1025c2:	f005 fb43 	bl	107c4c <__aeabi_atexit>
  1025c6:	482e      	ldr	r0, [pc, #184]	; (102680 <__static_initialization_and_destruction_0(int, int)+0x1e4>)
  1025c8:	f7ff fe58 	bl	10227c <NHD_C0216CZ::NHD_C0216CZ()>
  1025cc:	4a1f      	ldr	r2, [pc, #124]	; (10264c <__static_initialization_and_destruction_0(int, int)+0x1b0>)
  1025ce:	492d      	ldr	r1, [pc, #180]	; (102684 <__static_initialization_and_destruction_0(int, int)+0x1e8>)
  1025d0:	482b      	ldr	r0, [pc, #172]	; (102680 <__static_initialization_and_destruction_0(int, int)+0x1e4>)
  1025d2:	f005 fb3b 	bl	107c4c <__aeabi_atexit>
  1025d6:	2300      	movs	r3, #0
  1025d8:	f44f 7200 	mov.w	r2, #512	; 0x200
  1025dc:	f44f 7180 	mov.w	r1, #256	; 0x100
  1025e0:	4829      	ldr	r0, [pc, #164]	; (102688 <__static_initialization_and_destruction_0(int, int)+0x1ec>)
  1025e2:	f005 f8ab 	bl	10773c <mbed::Serial::Serial(PinName, PinName, char const*)>
  1025e6:	4a19      	ldr	r2, [pc, #100]	; (10264c <__static_initialization_and_destruction_0(int, int)+0x1b0>)
  1025e8:	4922      	ldr	r1, [pc, #136]	; (102674 <__static_initialization_and_destruction_0(int, int)+0x1d8>)
  1025ea:	4827      	ldr	r0, [pc, #156]	; (102688 <__static_initialization_and_destruction_0(int, int)+0x1ec>)
  1025ec:	f005 fb2e 	bl	107c4c <__aeabi_atexit>
  1025f0:	2300      	movs	r3, #0
  1025f2:	2202      	movs	r2, #2
  1025f4:	2101      	movs	r1, #1
  1025f6:	4825      	ldr	r0, [pc, #148]	; (10268c <__static_initialization_and_destruction_0(int, int)+0x1f0>)
  1025f8:	f005 f8a0 	bl	10773c <mbed::Serial::Serial(PinName, PinName, char const*)>
  1025fc:	4a13      	ldr	r2, [pc, #76]	; (10264c <__static_initialization_and_destruction_0(int, int)+0x1b0>)
  1025fe:	491d      	ldr	r1, [pc, #116]	; (102674 <__static_initialization_and_destruction_0(int, int)+0x1d8>)
  102600:	4822      	ldr	r0, [pc, #136]	; (10268c <__static_initialization_and_destruction_0(int, int)+0x1f0>)
  102602:	f005 fb23 	bl	107c4c <__aeabi_atexit>
  102606:	f04f 33ff 	mov.w	r3, #4294967295
  10260a:	9300      	str	r3, [sp, #0]
  10260c:	2310      	movs	r3, #16
  10260e:	2240      	movs	r2, #64	; 0x40
  102610:	2120      	movs	r1, #32
  102612:	481f      	ldr	r0, [pc, #124]	; (102690 <__static_initialization_and_destruction_0(int, int)+0x1f4>)
  102614:	f005 f96a 	bl	1078ec <mbed::SPI::SPI(PinName, PinName, PinName, PinName)>
  102618:	4a0c      	ldr	r2, [pc, #48]	; (10264c <__static_initialization_and_destruction_0(int, int)+0x1b0>)
  10261a:	4914      	ldr	r1, [pc, #80]	; (10266c <__static_initialization_and_destruction_0(int, int)+0x1d0>)
  10261c:	481c      	ldr	r0, [pc, #112]	; (102690 <__static_initialization_and_destruction_0(int, int)+0x1f4>)
  10261e:	f005 fb15 	bl	107c4c <__aeabi_atexit>
  102622:	f44f 3300 	mov.w	r3, #131072	; 0x20000
  102626:	9300      	str	r3, [sp, #0]
  102628:	234a      	movs	r3, #74	; 0x4a
  10262a:	2204      	movs	r2, #4
  10262c:	2108      	movs	r1, #8
  10262e:	4819      	ldr	r0, [pc, #100]	; (102694 <__static_initialization_and_destruction_0(int, int)+0x1f8>)
  102630:	f000 fb4c 	bl	102ccc <PCA9655E::PCA9655E(PinName, PinName, unsigned char, PinName)>
  102634:	4a05      	ldr	r2, [pc, #20]	; (10264c <__static_initialization_and_destruction_0(int, int)+0x1b0>)
  102636:	4918      	ldr	r1, [pc, #96]	; (102698 <__static_initialization_and_destruction_0(int, int)+0x1fc>)
  102638:	4816      	ldr	r0, [pc, #88]	; (102694 <__static_initialization_and_destruction_0(int, int)+0x1f8>)
  10263a:	f005 fb07 	bl	107c4c <__aeabi_atexit>
  10263e:	bf00      	nop
  102640:	b009      	add	sp, #36	; 0x24
  102642:	bdf0      	pop	{r4, r5, r6, r7, pc}
  102644:	0010df40 	.word	0x0010df40
  102648:	3fff4178 	.word	0x3fff4178
  10264c:	3fff4000 	.word	0x3fff4000
  102650:	00107cfb 	.word	0x00107cfb
  102654:	3fff4190 	.word	0x3fff4190
  102658:	00102455 	.word	0x00102455
  10265c:	3fff4310 	.word	0x3fff4310
  102660:	3fff4328 	.word	0x3fff4328
  102664:	3fff4340 	.word	0x3fff4340
  102668:	3fff4358 	.word	0x3fff4358
  10266c:	00102239 	.word	0x00102239
  102670:	3fff436c 	.word	0x3fff436c
  102674:	0010269d 	.word	0x0010269d
  102678:	3fff43c4 	.word	0x3fff43c4
  10267c:	00103055 	.word	0x00103055
  102680:	3fff43d8 	.word	0x3fff43d8
  102684:	00102479 	.word	0x00102479
  102688:	3fff4470 	.word	0x3fff4470
  10268c:	3fff44c8 	.word	0x3fff44c8
  102690:	3fff4524 	.word	0x3fff4524
  102694:	3fff453c 	.word	0x3fff453c
  102698:	00102fb1 	.word	0x00102fb1

0010269c <mbed::Serial::~Serial()>:
  10269c:	b500      	push	{lr}
  10269e:	b083      	sub	sp, #12
  1026a0:	9001      	str	r0, [sp, #4]
  1026a2:	4a0e      	ldr	r2, [pc, #56]	; (1026dc <mbed::Serial::~Serial()+0x40>)
  1026a4:	9b01      	ldr	r3, [sp, #4]
  1026a6:	601a      	str	r2, [r3, #0]
  1026a8:	4a0d      	ldr	r2, [pc, #52]	; (1026e0 <mbed::Serial::~Serial()+0x44>)
  1026aa:	9b01      	ldr	r3, [sp, #4]
  1026ac:	641a      	str	r2, [r3, #64]	; 0x40
  1026ae:	4a0d      	ldr	r2, [pc, #52]	; (1026e4 <mbed::Serial::~Serial()+0x48>)
  1026b0:	9b01      	ldr	r3, [sp, #4]
  1026b2:	645a      	str	r2, [r3, #68]	; 0x44
  1026b4:	9b01      	ldr	r3, [sp, #4]
  1026b6:	3340      	adds	r3, #64	; 0x40
  1026b8:	4618      	mov	r0, r3
  1026ba:	f005 f9e1 	bl	107a80 <mbed::Stream::~Stream()>
  1026be:	9b01      	ldr	r3, [sp, #4]
  1026c0:	4618      	mov	r0, r3
  1026c2:	f7ff fd97 	bl	1021f4 <mbed::SerialBase::~SerialBase()>
  1026c6:	2300      	movs	r3, #0
  1026c8:	2b00      	cmp	r3, #0
  1026ca:	d002      	beq.n	1026d2 <mbed::Serial::~Serial()+0x36>
  1026cc:	9801      	ldr	r0, [sp, #4]
  1026ce:	f005 fac2 	bl	107c56 <operator delete(void*)>
  1026d2:	9b01      	ldr	r3, [sp, #4]
  1026d4:	4618      	mov	r0, r3
  1026d6:	b003      	add	sp, #12
  1026d8:	f85d fb04 	ldr.w	pc, [sp], #4
  1026dc:	0010e518 	.word	0x0010e518
  1026e0:	0010e530 	.word	0x0010e530
  1026e4:	0010e564 	.word	0x0010e564

001026e8 <non-virtual thunk to mbed::Serial::~Serial()>:
  1026e8:	f1a0 0040 	sub.w	r0, r0, #64	; 0x40
  1026ec:	e7d6      	b.n	10269c <mbed::Serial::~Serial()>
  1026ee:	bf00      	nop

001026f0 <non-virtual thunk to mbed::Serial::~Serial()>:
  1026f0:	f1a0 0044 	sub.w	r0, r0, #68	; 0x44
  1026f4:	e7d2      	b.n	10269c <mbed::Serial::~Serial()>
  1026f6:	bf00      	nop

001026f8 <mbed::Serial::~Serial()>:
  1026f8:	b500      	push	{lr}
  1026fa:	b083      	sub	sp, #12
  1026fc:	9001      	str	r0, [sp, #4]
  1026fe:	9801      	ldr	r0, [sp, #4]
  102700:	f7ff ffcc 	bl	10269c <mbed::Serial::~Serial()>
  102704:	9801      	ldr	r0, [sp, #4]
  102706:	f005 faa6 	bl	107c56 <operator delete(void*)>
  10270a:	9b01      	ldr	r3, [sp, #4]
  10270c:	4618      	mov	r0, r3
  10270e:	b003      	add	sp, #12
  102710:	f85d fb04 	ldr.w	pc, [sp], #4

00102714 <non-virtual thunk to mbed::Serial::~Serial()>:
  102714:	f1a0 0040 	sub.w	r0, r0, #64	; 0x40
  102718:	e7ee      	b.n	1026f8 <mbed::Serial::~Serial()>
  10271a:	bf00      	nop

0010271c <non-virtual thunk to mbed::Serial::~Serial()>:
  10271c:	f1a0 0044 	sub.w	r0, r0, #68	; 0x44
  102720:	e7ea      	b.n	1026f8 <mbed::Serial::~Serial()>
  102722:	bf00      	nop

00102724 <_GLOBAL__sub_I_TOUCH_LC717A00_mode>:
  102724:	b508      	push	{r3, lr}
  102726:	f64f 71ff 	movw	r1, #65535	; 0xffff
  10272a:	2001      	movs	r0, #1
  10272c:	f7ff feb6 	bl	10249c <__static_initialization_and_destruction_0(int, int)>
  102730:	bd08      	pop	{r3, pc}
  102732:	bf00      	nop

00102734 <_start>:
  102734:	b500      	push	{lr}
  102736:	b083      	sub	sp, #12
  102738:	4a0a      	ldr	r2, [pc, #40]	; (102764 <_start+0x30>)
  10273a:	4b0b      	ldr	r3, [pc, #44]	; (102768 <_start+0x34>)
  10273c:	1ad3      	subs	r3, r2, r3
  10273e:	9301      	str	r3, [sp, #4]
  102740:	9b01      	ldr	r3, [sp, #4]
  102742:	461a      	mov	r2, r3
  102744:	2100      	movs	r1, #0
  102746:	4808      	ldr	r0, [pc, #32]	; (102768 <_start+0x34>)
  102748:	f006 fc5a 	bl	109000 <memset>
  10274c:	f002 faf4 	bl	104d38 <software_init_hook>
  102750:	f006 fb9c 	bl	108e8c <__libc_init_array>
  102754:	f003 fbd8 	bl	105f08 <expReset_AppLedON>
  102758:	f004 ff9a 	bl	107690 <__wrap_main>
  10275c:	9000      	str	r0, [sp, #0]
  10275e:	9800      	ldr	r0, [sp, #0]
  102760:	f006 f832 	bl	1087c8 <exit>
  102764:	3fff539c 	.word	0x3fff539c
  102768:	3fff415c 	.word	0x3fff415c

0010276c <__wrap__isatty>:
  10276c:	b500      	push	{lr}
  10276e:	b083      	sub	sp, #12
  102770:	9001      	str	r0, [sp, #4]
  102772:	9b01      	ldr	r3, [sp, #4]
  102774:	2b02      	cmp	r3, #2
  102776:	dc01      	bgt.n	10277c <__wrap__isatty+0x10>
  102778:	2301      	movs	r3, #1
  10277a:	e003      	b.n	102784 <__wrap__isatty+0x18>
  10277c:	9801      	ldr	r0, [sp, #4]
  10277e:	f004 ff1d 	bl	1075bc <_isatty>
  102782:	4603      	mov	r3, r0
  102784:	4618      	mov	r0, r3
  102786:	b003      	add	sp, #12
  102788:	f85d fb04 	ldr.w	pc, [sp], #4

0010278c <breakOnHeapOpFromInterruptHandler>:
  10278c:	b082      	sub	sp, #8
  10278e:	f3ef 8305 	mrs	r3, IPSR
  102792:	9301      	str	r3, [sp, #4]
  102794:	9b01      	ldr	r3, [sp, #4]
  102796:	2b00      	cmp	r3, #0
  102798:	d000      	beq.n	10279c <breakOnHeapOpFromInterruptHandler+0x10>
  10279a:	be00      	bkpt	0x0000
  10279c:	bf00      	nop
  10279e:	b002      	add	sp, #8
  1027a0:	4770      	bx	lr
  1027a2:	bf00      	nop

001027a4 <__wrap_malloc>:
  1027a4:	b500      	push	{lr}
  1027a6:	b083      	sub	sp, #12
  1027a8:	9001      	str	r0, [sp, #4]
  1027aa:	f7ff ffef 	bl	10278c <breakOnHeapOpFromInterruptHandler>
  1027ae:	9801      	ldr	r0, [sp, #4]
  1027b0:	f006 fbe2 	bl	108f78 <malloc>
  1027b4:	4603      	mov	r3, r0
  1027b6:	4618      	mov	r0, r3
  1027b8:	b003      	add	sp, #12
  1027ba:	f85d fb04 	ldr.w	pc, [sp], #4
  1027be:	bf00      	nop

001027c0 <__wrap_free>:
  1027c0:	b500      	push	{lr}
  1027c2:	b083      	sub	sp, #12
  1027c4:	9001      	str	r0, [sp, #4]
  1027c6:	f7ff ffe1 	bl	10278c <breakOnHeapOpFromInterruptHandler>
  1027ca:	9801      	ldr	r0, [sp, #4]
  1027cc:	f006 fbdc 	bl	108f88 <free>
  1027d0:	bf00      	nop
  1027d2:	b003      	add	sp, #12
  1027d4:	f85d fb04 	ldr.w	pc, [sp], #4

001027d8 <abort>:
  1027d8:	b508      	push	{r3, lr}
  1027da:	2001      	movs	r0, #1
  1027dc:	f005 fff4 	bl	1087c8 <exit>

001027e0 <__cxa_pure_virtual>:
  1027e0:	b508      	push	{r3, lr}
  1027e2:	f7ff fff9 	bl	1027d8 <abort>
  1027e6:	bf00      	nop

001027e8 <NHD_C0216CZ::init()>:
  1027e8:	b500      	push	{lr}
  1027ea:	b083      	sub	sp, #12
  1027ec:	9001      	str	r0, [sp, #4]
  1027ee:	9b01      	ldr	r3, [sp, #4]
  1027f0:	3334      	adds	r3, #52	; 0x34
  1027f2:	4913      	ldr	r1, [pc, #76]	; (102840 <NHD_C0216CZ::init()+0x58>)
  1027f4:	4618      	mov	r0, r3
  1027f6:	f000 fa8d 	bl	102d14 <PCA9655E::frequency(int)>
  1027fa:	9b01      	ldr	r3, [sp, #4]
  1027fc:	f103 0034 	add.w	r0, r3, #52	; 0x34
  102800:	2300      	movs	r3, #0
  102802:	2202      	movs	r2, #2
  102804:	2100      	movs	r1, #0
  102806:	f000 fb1f 	bl	102e48 <PCA9655E::setDirection(Port, signed char, Direction)>
  10280a:	9b01      	ldr	r3, [sp, #4]
  10280c:	f103 0034 	add.w	r0, r3, #52	; 0x34
  102810:	2300      	movs	r3, #0
  102812:	2203      	movs	r2, #3
  102814:	2100      	movs	r1, #0
  102816:	f000 fb17 	bl	102e48 <PCA9655E::setDirection(Port, signed char, Direction)>
  10281a:	9801      	ldr	r0, [sp, #4]
  10281c:	f000 f9e4 	bl	102be8 <NHD_C0216CZ::i2cCsDisable()>
  102820:	9801      	ldr	r0, [sp, #4]
  102822:	f000 fa25 	bl	102c70 <NHD_C0216CZ::setSpiParams()>
  102826:	9801      	ldr	r0, [sp, #4]
  102828:	f000 f8a4 	bl	102974 <NHD_C0216CZ::intializeLcd()>
  10282c:	2201      	movs	r2, #1
  10282e:	2101      	movs	r1, #1
  102830:	9801      	ldr	r0, [sp, #4]
  102832:	f000 f869 	bl	102908 <NHD_C0216CZ::setPosition(int, int)>
  102836:	bf00      	nop
  102838:	b003      	add	sp, #12
  10283a:	f85d fb04 	ldr.w	pc, [sp], #4
  10283e:	bf00      	nop
  102840:	000f4240 	.word	0x000f4240

00102844 <NHD_C0216CZ::clearDisplay()>:
  102844:	b500      	push	{lr}
  102846:	b083      	sub	sp, #12
  102848:	9001      	str	r0, [sp, #4]
  10284a:	2101      	movs	r1, #1
  10284c:	9801      	ldr	r0, [sp, #4]
  10284e:	f000 f8fb 	bl	102a48 <NHD_C0216CZ::sendCommand(unsigned char)>
  102852:	bf00      	nop
  102854:	b003      	add	sp, #12
  102856:	f85d fb04 	ldr.w	pc, [sp], #4
  10285a:	bf00      	nop

0010285c <NHD_C0216CZ::displayString(char const*)>:
  10285c:	b500      	push	{lr}
  10285e:	b083      	sub	sp, #12
  102860:	9001      	str	r0, [sp, #4]
  102862:	9100      	str	r1, [sp, #0]
  102864:	9801      	ldr	r0, [sp, #4]
  102866:	f7ff ffed 	bl	102844 <NHD_C0216CZ::clearDisplay()>
  10286a:	2301      	movs	r3, #1
  10286c:	2201      	movs	r2, #1
  10286e:	9900      	ldr	r1, [sp, #0]
  102870:	9801      	ldr	r0, [sp, #4]
  102872:	f000 f805 	bl	102880 <NHD_C0216CZ::displayStringToPos(char const*, int, int)>
  102876:	bf00      	nop
  102878:	b003      	add	sp, #12
  10287a:	f85d fb04 	ldr.w	pc, [sp], #4
  10287e:	bf00      	nop

00102880 <NHD_C0216CZ::displayStringToPos(char const*, int, int)>:
  102880:	b500      	push	{lr}
  102882:	b089      	sub	sp, #36	; 0x24
  102884:	9003      	str	r0, [sp, #12]
  102886:	9102      	str	r1, [sp, #8]
  102888:	9201      	str	r2, [sp, #4]
  10288a:	9300      	str	r3, [sp, #0]
  10288c:	2300      	movs	r3, #0
  10288e:	9306      	str	r3, [sp, #24]
  102890:	9b02      	ldr	r3, [sp, #8]
  102892:	9307      	str	r3, [sp, #28]
  102894:	9b02      	ldr	r3, [sp, #8]
  102896:	2b00      	cmp	r3, #0
  102898:	d102      	bne.n	1028a0 <NHD_C0216CZ::displayStringToPos(char const*, int, int)+0x20>
  10289a:	f04f 33ff 	mov.w	r3, #4294967295
  10289e:	e01c      	b.n	1028da <NHD_C0216CZ::displayStringToPos(char const*, int, int)+0x5a>
  1028a0:	9a00      	ldr	r2, [sp, #0]
  1028a2:	9901      	ldr	r1, [sp, #4]
  1028a4:	9803      	ldr	r0, [sp, #12]
  1028a6:	f000 f82f 	bl	102908 <NHD_C0216CZ::setPosition(int, int)>
  1028aa:	9005      	str	r0, [sp, #20]
  1028ac:	9b05      	ldr	r3, [sp, #20]
  1028ae:	2b00      	cmp	r3, #0
  1028b0:	d002      	beq.n	1028b8 <NHD_C0216CZ::displayStringToPos(char const*, int, int)+0x38>
  1028b2:	f04f 33ff 	mov.w	r3, #4294967295
  1028b6:	e010      	b.n	1028da <NHD_C0216CZ::displayStringToPos(char const*, int, int)+0x5a>
  1028b8:	9b07      	ldr	r3, [sp, #28]
  1028ba:	781b      	ldrb	r3, [r3, #0]
  1028bc:	2b00      	cmp	r3, #0
  1028be:	d006      	beq.n	1028ce <NHD_C0216CZ::displayStringToPos(char const*, int, int)+0x4e>
  1028c0:	9b06      	ldr	r3, [sp, #24]
  1028c2:	3301      	adds	r3, #1
  1028c4:	9306      	str	r3, [sp, #24]
  1028c6:	9b07      	ldr	r3, [sp, #28]
  1028c8:	3301      	adds	r3, #1
  1028ca:	9307      	str	r3, [sp, #28]
  1028cc:	e7f4      	b.n	1028b8 <NHD_C0216CZ::displayStringToPos(char const*, int, int)+0x38>
  1028ce:	9a06      	ldr	r2, [sp, #24]
  1028d0:	9902      	ldr	r1, [sp, #8]
  1028d2:	9803      	ldr	r0, [sp, #12]
  1028d4:	f000 f8ee 	bl	102ab4 <NHD_C0216CZ::sendData(char const*, int)>
  1028d8:	2300      	movs	r3, #0
  1028da:	4618      	mov	r0, r3
  1028dc:	b009      	add	sp, #36	; 0x24
  1028de:	f85d fb04 	ldr.w	pc, [sp], #4
  1028e2:	bf00      	nop

001028e4 <NHD_C0216CZ::displayChar(char)>:
  1028e4:	b500      	push	{lr}
  1028e6:	b083      	sub	sp, #12
  1028e8:	9001      	str	r0, [sp, #4]
  1028ea:	460b      	mov	r3, r1
  1028ec:	f88d 3003 	strb.w	r3, [sp, #3]
  1028f0:	2201      	movs	r2, #1
  1028f2:	f10d 0303 	add.w	r3, sp, #3
  1028f6:	4619      	mov	r1, r3
  1028f8:	9801      	ldr	r0, [sp, #4]
  1028fa:	f000 f8db 	bl	102ab4 <NHD_C0216CZ::sendData(char const*, int)>
  1028fe:	bf00      	nop
  102900:	b003      	add	sp, #12
  102902:	f85d fb04 	ldr.w	pc, [sp], #4
  102906:	bf00      	nop

00102908 <NHD_C0216CZ::setPosition(int, int)>:
  102908:	b500      	push	{lr}
  10290a:	b087      	sub	sp, #28
  10290c:	9003      	str	r0, [sp, #12]
  10290e:	9102      	str	r1, [sp, #8]
  102910:	9201      	str	r2, [sp, #4]
  102912:	2300      	movs	r3, #0
  102914:	f88d 3017 	strb.w	r3, [sp, #23]
  102918:	f10d 0316 	add.w	r3, sp, #22
  10291c:	9a01      	ldr	r2, [sp, #4]
  10291e:	9902      	ldr	r1, [sp, #8]
  102920:	9803      	ldr	r0, [sp, #12]
  102922:	f000 f861 	bl	1029e8 <NHD_C0216CZ::getDdramAddr(int, int, unsigned char*)>
  102926:	4603      	mov	r3, r0
  102928:	f083 0301 	eor.w	r3, r3, #1
  10292c:	b2db      	uxtb	r3, r3
  10292e:	2b00      	cmp	r3, #0
  102930:	d002      	beq.n	102938 <NHD_C0216CZ::setPosition(int, int)+0x30>
  102932:	f04f 33ff 	mov.w	r3, #4294967295
  102936:	e019      	b.n	10296c <NHD_C0216CZ::setPosition(int, int)+0x64>
  102938:	9b03      	ldr	r3, [sp, #12]
  10293a:	9a02      	ldr	r2, [sp, #8]
  10293c:	62da      	str	r2, [r3, #44]	; 0x2c
  10293e:	9b03      	ldr	r3, [sp, #12]
  102940:	9a01      	ldr	r2, [sp, #4]
  102942:	631a      	str	r2, [r3, #48]	; 0x30
  102944:	f89d 2016 	ldrb.w	r2, [sp, #22]
  102948:	f89d 3017 	ldrb.w	r3, [sp, #23]
  10294c:	4313      	orrs	r3, r2
  10294e:	f88d 3017 	strb.w	r3, [sp, #23]
  102952:	f89d 3017 	ldrb.w	r3, [sp, #23]
  102956:	f063 037f 	orn	r3, r3, #127	; 0x7f
  10295a:	f88d 3017 	strb.w	r3, [sp, #23]
  10295e:	f89d 3017 	ldrb.w	r3, [sp, #23]
  102962:	4619      	mov	r1, r3
  102964:	9803      	ldr	r0, [sp, #12]
  102966:	f000 f86f 	bl	102a48 <NHD_C0216CZ::sendCommand(unsigned char)>
  10296a:	2300      	movs	r3, #0
  10296c:	4618      	mov	r0, r3
  10296e:	b007      	add	sp, #28
  102970:	f85d fb04 	ldr.w	pc, [sp], #4

00102974 <NHD_C0216CZ::intializeLcd()>:
  102974:	b500      	push	{lr}
  102976:	b083      	sub	sp, #12
  102978:	9001      	str	r0, [sp, #4]
  10297a:	2130      	movs	r1, #48	; 0x30
  10297c:	9801      	ldr	r0, [sp, #4]
  10297e:	f000 f863 	bl	102a48 <NHD_C0216CZ::sendCommand(unsigned char)>
  102982:	2002      	movs	r0, #2
  102984:	f002 fd56 	bl	105434 <wait_ms>
  102988:	2130      	movs	r1, #48	; 0x30
  10298a:	9801      	ldr	r0, [sp, #4]
  10298c:	f000 f85c 	bl	102a48 <NHD_C0216CZ::sendCommand(unsigned char)>
  102990:	2130      	movs	r1, #48	; 0x30
  102992:	9801      	ldr	r0, [sp, #4]
  102994:	f000 f858 	bl	102a48 <NHD_C0216CZ::sendCommand(unsigned char)>
  102998:	2139      	movs	r1, #57	; 0x39
  10299a:	9801      	ldr	r0, [sp, #4]
  10299c:	f000 f854 	bl	102a48 <NHD_C0216CZ::sendCommand(unsigned char)>
  1029a0:	2114      	movs	r1, #20
  1029a2:	9801      	ldr	r0, [sp, #4]
  1029a4:	f000 f850 	bl	102a48 <NHD_C0216CZ::sendCommand(unsigned char)>
  1029a8:	2156      	movs	r1, #86	; 0x56
  1029aa:	9801      	ldr	r0, [sp, #4]
  1029ac:	f000 f84c 	bl	102a48 <NHD_C0216CZ::sendCommand(unsigned char)>
  1029b0:	216d      	movs	r1, #109	; 0x6d
  1029b2:	9801      	ldr	r0, [sp, #4]
  1029b4:	f000 f848 	bl	102a48 <NHD_C0216CZ::sendCommand(unsigned char)>
  1029b8:	2170      	movs	r1, #112	; 0x70
  1029ba:	9801      	ldr	r0, [sp, #4]
  1029bc:	f000 f844 	bl	102a48 <NHD_C0216CZ::sendCommand(unsigned char)>
  1029c0:	210c      	movs	r1, #12
  1029c2:	9801      	ldr	r0, [sp, #4]
  1029c4:	f000 f840 	bl	102a48 <NHD_C0216CZ::sendCommand(unsigned char)>
  1029c8:	2106      	movs	r1, #6
  1029ca:	9801      	ldr	r0, [sp, #4]
  1029cc:	f000 f83c 	bl	102a48 <NHD_C0216CZ::sendCommand(unsigned char)>
  1029d0:	2101      	movs	r1, #1
  1029d2:	9801      	ldr	r0, [sp, #4]
  1029d4:	f000 f838 	bl	102a48 <NHD_C0216CZ::sendCommand(unsigned char)>
  1029d8:	200a      	movs	r0, #10
  1029da:	f002 fd2b 	bl	105434 <wait_ms>
  1029de:	bf00      	nop
  1029e0:	b003      	add	sp, #12
  1029e2:	f85d fb04 	ldr.w	pc, [sp], #4
  1029e6:	bf00      	nop

001029e8 <NHD_C0216CZ::getDdramAddr(int, int, unsigned char*)>:
  1029e8:	b086      	sub	sp, #24
  1029ea:	9003      	str	r0, [sp, #12]
  1029ec:	9102      	str	r1, [sp, #8]
  1029ee:	9201      	str	r2, [sp, #4]
  1029f0:	9300      	str	r3, [sp, #0]
  1029f2:	2301      	movs	r3, #1
  1029f4:	f88d 3017 	strb.w	r3, [sp, #23]
  1029f8:	9b02      	ldr	r3, [sp, #8]
  1029fa:	2b00      	cmp	r3, #0
  1029fc:	dd08      	ble.n	102a10 <NHD_C0216CZ::getDdramAddr(int, int, unsigned char*)+0x28>
  1029fe:	9b02      	ldr	r3, [sp, #8]
  102a00:	2b02      	cmp	r3, #2
  102a02:	dc05      	bgt.n	102a10 <NHD_C0216CZ::getDdramAddr(int, int, unsigned char*)+0x28>
  102a04:	9b01      	ldr	r3, [sp, #4]
  102a06:	2b00      	cmp	r3, #0
  102a08:	dd02      	ble.n	102a10 <NHD_C0216CZ::getDdramAddr(int, int, unsigned char*)+0x28>
  102a0a:	9b01      	ldr	r3, [sp, #4]
  102a0c:	2b10      	cmp	r3, #16
  102a0e:	dd01      	ble.n	102a14 <NHD_C0216CZ::getDdramAddr(int, int, unsigned char*)+0x2c>
  102a10:	2300      	movs	r3, #0
  102a12:	e015      	b.n	102a40 <NHD_C0216CZ::getDdramAddr(int, int, unsigned char*)+0x58>
  102a14:	9b02      	ldr	r3, [sp, #8]
  102a16:	2b01      	cmp	r3, #1
  102a18:	d002      	beq.n	102a20 <NHD_C0216CZ::getDdramAddr(int, int, unsigned char*)+0x38>
  102a1a:	2b02      	cmp	r3, #2
  102a1c:	d007      	beq.n	102a2e <NHD_C0216CZ::getDdramAddr(int, int, unsigned char*)+0x46>
  102a1e:	e00d      	b.n	102a3c <NHD_C0216CZ::getDdramAddr(int, int, unsigned char*)+0x54>
  102a20:	9b01      	ldr	r3, [sp, #4]
  102a22:	b2db      	uxtb	r3, r3
  102a24:	3b01      	subs	r3, #1
  102a26:	b2da      	uxtb	r2, r3
  102a28:	9b00      	ldr	r3, [sp, #0]
  102a2a:	701a      	strb	r2, [r3, #0]
  102a2c:	e006      	b.n	102a3c <NHD_C0216CZ::getDdramAddr(int, int, unsigned char*)+0x54>
  102a2e:	9b01      	ldr	r3, [sp, #4]
  102a30:	b2db      	uxtb	r3, r3
  102a32:	333f      	adds	r3, #63	; 0x3f
  102a34:	b2da      	uxtb	r2, r3
  102a36:	9b00      	ldr	r3, [sp, #0]
  102a38:	701a      	strb	r2, [r3, #0]
  102a3a:	bf00      	nop
  102a3c:	f89d 3017 	ldrb.w	r3, [sp, #23]
  102a40:	4618      	mov	r0, r3
  102a42:	b006      	add	sp, #24
  102a44:	4770      	bx	lr
  102a46:	bf00      	nop

00102a48 <NHD_C0216CZ::sendCommand(unsigned char)>:
  102a48:	b500      	push	{lr}
  102a4a:	b083      	sub	sp, #12
  102a4c:	9001      	str	r0, [sp, #4]
  102a4e:	460b      	mov	r3, r1
  102a50:	f88d 3003 	strb.w	r3, [sp, #3]
  102a54:	f04f 31ff 	mov.w	r1, #4294967295
  102a58:	4815      	ldr	r0, [pc, #84]	; (102ab0 <NHD_C0216CZ::sendCommand(unsigned char)+0x68>)
  102a5a:	f000 fadd 	bl	103018 <rtos::Mutex::lock(unsigned long)>
  102a5e:	9801      	ldr	r0, [sp, #4]
  102a60:	f000 f906 	bl	102c70 <NHD_C0216CZ::setSpiParams()>
  102a64:	9801      	ldr	r0, [sp, #4]
  102a66:	f000 f89b 	bl	102ba0 <NHD_C0216CZ::i2cCsEnable()>
  102a6a:	2100      	movs	r1, #0
  102a6c:	9801      	ldr	r0, [sp, #4]
  102a6e:	f000 f8d1 	bl	102c14 <NHD_C0216CZ::setRsPin(NHD_C0216CZ::LEVEL_T)>
  102a72:	9b01      	ldr	r3, [sp, #4]
  102a74:	f89d 2003 	ldrb.w	r2, [sp, #3]
  102a78:	4611      	mov	r1, r2
  102a7a:	4618      	mov	r0, r3
  102a7c:	f004 ffbc 	bl	1079f8 <mbed::SPI::write(int)>
  102a80:	9801      	ldr	r0, [sp, #4]
  102a82:	f000 f8b1 	bl	102be8 <NHD_C0216CZ::i2cCsDisable()>
  102a86:	f89d 3003 	ldrb.w	r3, [sp, #3]
  102a8a:	2b01      	cmp	r3, #1
  102a8c:	d105      	bne.n	102a9a <NHD_C0216CZ::sendCommand(unsigned char)+0x52>
  102a8e:	9b01      	ldr	r3, [sp, #4]
  102a90:	2201      	movs	r2, #1
  102a92:	62da      	str	r2, [r3, #44]	; 0x2c
  102a94:	9b01      	ldr	r3, [sp, #4]
  102a96:	2201      	movs	r2, #1
  102a98:	631a      	str	r2, [r3, #48]	; 0x30
  102a9a:	9801      	ldr	r0, [sp, #4]
  102a9c:	f000 f8fc 	bl	102c98 <NHD_C0216CZ::resetSpiParams()>
  102aa0:	4803      	ldr	r0, [pc, #12]	; (102ab0 <NHD_C0216CZ::sendCommand(unsigned char)+0x68>)
  102aa2:	f000 fac9 	bl	103038 <rtos::Mutex::unlock()>
  102aa6:	bf00      	nop
  102aa8:	b003      	add	sp, #12
  102aaa:	f85d fb04 	ldr.w	pc, [sp], #4
  102aae:	bf00      	nop
  102ab0:	3fff43c4 	.word	0x3fff43c4

00102ab4 <NHD_C0216CZ::sendData(char const*, int)>:
  102ab4:	b500      	push	{lr}
  102ab6:	b087      	sub	sp, #28
  102ab8:	9003      	str	r0, [sp, #12]
  102aba:	9102      	str	r1, [sp, #8]
  102abc:	9201      	str	r2, [sp, #4]
  102abe:	9b01      	ldr	r3, [sp, #4]
  102ac0:	2b00      	cmp	r3, #0
  102ac2:	dd02      	ble.n	102aca <NHD_C0216CZ::sendData(char const*, int)+0x16>
  102ac4:	9b02      	ldr	r3, [sp, #8]
  102ac6:	2b00      	cmp	r3, #0
  102ac8:	d102      	bne.n	102ad0 <NHD_C0216CZ::sendData(char const*, int)+0x1c>
  102aca:	f04f 33ff 	mov.w	r3, #4294967295
  102ace:	e061      	b.n	102b94 <NHD_C0216CZ::sendData(char const*, int)+0xe0>
  102ad0:	f04f 31ff 	mov.w	r1, #4294967295
  102ad4:	4831      	ldr	r0, [pc, #196]	; (102b9c <NHD_C0216CZ::sendData(char const*, int)+0xe8>)
  102ad6:	f000 fa9f 	bl	103018 <rtos::Mutex::lock(unsigned long)>
  102ada:	9803      	ldr	r0, [sp, #12]
  102adc:	f000 f8c8 	bl	102c70 <NHD_C0216CZ::setSpiParams()>
  102ae0:	9803      	ldr	r0, [sp, #12]
  102ae2:	f000 f85d 	bl	102ba0 <NHD_C0216CZ::i2cCsEnable()>
  102ae6:	2101      	movs	r1, #1
  102ae8:	9803      	ldr	r0, [sp, #12]
  102aea:	f000 f893 	bl	102c14 <NHD_C0216CZ::setRsPin(NHD_C0216CZ::LEVEL_T)>
  102aee:	2300      	movs	r3, #0
  102af0:	9305      	str	r3, [sp, #20]
  102af2:	9a05      	ldr	r2, [sp, #20]
  102af4:	9b01      	ldr	r3, [sp, #4]
  102af6:	429a      	cmp	r2, r3
  102af8:	da42      	bge.n	102b80 <NHD_C0216CZ::sendData(char const*, int)+0xcc>
  102afa:	9b05      	ldr	r3, [sp, #20]
  102afc:	9a02      	ldr	r2, [sp, #8]
  102afe:	4413      	add	r3, r2
  102b00:	781b      	ldrb	r3, [r3, #0]
  102b02:	f88d 3013 	strb.w	r3, [sp, #19]
  102b06:	9b03      	ldr	r3, [sp, #12]
  102b08:	6b1b      	ldr	r3, [r3, #48]	; 0x30
  102b0a:	2b10      	cmp	r3, #16
  102b0c:	dc03      	bgt.n	102b16 <NHD_C0216CZ::sendData(char const*, int)+0x62>
  102b0e:	f89d 3013 	ldrb.w	r3, [sp, #19]
  102b12:	2b0a      	cmp	r3, #10
  102b14:	d120      	bne.n	102b58 <NHD_C0216CZ::sendData(char const*, int)+0xa4>
  102b16:	9b03      	ldr	r3, [sp, #12]
  102b18:	2201      	movs	r2, #1
  102b1a:	631a      	str	r2, [r3, #48]	; 0x30
  102b1c:	9b03      	ldr	r3, [sp, #12]
  102b1e:	6adb      	ldr	r3, [r3, #44]	; 0x2c
  102b20:	1c5a      	adds	r2, r3, #1
  102b22:	9b03      	ldr	r3, [sp, #12]
  102b24:	62da      	str	r2, [r3, #44]	; 0x2c
  102b26:	9b03      	ldr	r3, [sp, #12]
  102b28:	6adb      	ldr	r3, [r3, #44]	; 0x2c
  102b2a:	2b02      	cmp	r3, #2
  102b2c:	dd02      	ble.n	102b34 <NHD_C0216CZ::sendData(char const*, int)+0x80>
  102b2e:	9b03      	ldr	r3, [sp, #12]
  102b30:	2201      	movs	r2, #1
  102b32:	62da      	str	r2, [r3, #44]	; 0x2c
  102b34:	9b03      	ldr	r3, [sp, #12]
  102b36:	6ad9      	ldr	r1, [r3, #44]	; 0x2c
  102b38:	9b03      	ldr	r3, [sp, #12]
  102b3a:	6b1b      	ldr	r3, [r3, #48]	; 0x30
  102b3c:	461a      	mov	r2, r3
  102b3e:	9803      	ldr	r0, [sp, #12]
  102b40:	f7ff fee2 	bl	102908 <NHD_C0216CZ::setPosition(int, int)>
  102b44:	9803      	ldr	r0, [sp, #12]
  102b46:	f000 f893 	bl	102c70 <NHD_C0216CZ::setSpiParams()>
  102b4a:	2101      	movs	r1, #1
  102b4c:	9803      	ldr	r0, [sp, #12]
  102b4e:	f000 f861 	bl	102c14 <NHD_C0216CZ::setRsPin(NHD_C0216CZ::LEVEL_T)>
  102b52:	9803      	ldr	r0, [sp, #12]
  102b54:	f000 f824 	bl	102ba0 <NHD_C0216CZ::i2cCsEnable()>
  102b58:	f89d 3013 	ldrb.w	r3, [sp, #19]
  102b5c:	2b0a      	cmp	r3, #10
  102b5e:	d00b      	beq.n	102b78 <NHD_C0216CZ::sendData(char const*, int)+0xc4>
  102b60:	9b03      	ldr	r3, [sp, #12]
  102b62:	f89d 2013 	ldrb.w	r2, [sp, #19]
  102b66:	4611      	mov	r1, r2
  102b68:	4618      	mov	r0, r3
  102b6a:	f004 ff45 	bl	1079f8 <mbed::SPI::write(int)>
  102b6e:	9b03      	ldr	r3, [sp, #12]
  102b70:	6b1b      	ldr	r3, [r3, #48]	; 0x30
  102b72:	1c5a      	adds	r2, r3, #1
  102b74:	9b03      	ldr	r3, [sp, #12]
  102b76:	631a      	str	r2, [r3, #48]	; 0x30
  102b78:	9b05      	ldr	r3, [sp, #20]
  102b7a:	3301      	adds	r3, #1
  102b7c:	9305      	str	r3, [sp, #20]
  102b7e:	e7b8      	b.n	102af2 <NHD_C0216CZ::sendData(char const*, int)+0x3e>
  102b80:	9803      	ldr	r0, [sp, #12]
  102b82:	f000 f831 	bl	102be8 <NHD_C0216CZ::i2cCsDisable()>
  102b86:	9803      	ldr	r0, [sp, #12]
  102b88:	f000 f886 	bl	102c98 <NHD_C0216CZ::resetSpiParams()>
  102b8c:	4803      	ldr	r0, [pc, #12]	; (102b9c <NHD_C0216CZ::sendData(char const*, int)+0xe8>)
  102b8e:	f000 fa53 	bl	103038 <rtos::Mutex::unlock()>
  102b92:	2300      	movs	r3, #0
  102b94:	4618      	mov	r0, r3
  102b96:	b007      	add	sp, #28
  102b98:	f85d fb04 	ldr.w	pc, [sp], #4
  102b9c:	3fff43c4 	.word	0x3fff43c4

00102ba0 <NHD_C0216CZ::i2cCsEnable()>:
  102ba0:	b500      	push	{lr}
  102ba2:	b083      	sub	sp, #12
  102ba4:	9001      	str	r0, [sp, #4]
  102ba6:	9b01      	ldr	r3, [sp, #4]
  102ba8:	f103 0034 	add.w	r0, r3, #52	; 0x34
  102bac:	2301      	movs	r3, #1
  102bae:	2202      	movs	r2, #2
  102bb0:	2100      	movs	r1, #0
  102bb2:	f000 f8e1 	bl	102d78 <PCA9655E::setValue(Port, signed char, SetVal)>
  102bb6:	2014      	movs	r0, #20
  102bb8:	f002 fc4c 	bl	105454 <wait_us>
  102bbc:	2001      	movs	r0, #1
  102bbe:	f002 fc49 	bl	105454 <wait_us>
  102bc2:	9b01      	ldr	r3, [sp, #4]
  102bc4:	f103 0034 	add.w	r0, r3, #52	; 0x34
  102bc8:	2300      	movs	r3, #0
  102bca:	2202      	movs	r2, #2
  102bcc:	2100      	movs	r1, #0
  102bce:	f000 f8d3 	bl	102d78 <PCA9655E::setValue(Port, signed char, SetVal)>
  102bd2:	2014      	movs	r0, #20
  102bd4:	f002 fc3e 	bl	105454 <wait_us>
  102bd8:	2001      	movs	r0, #1
  102bda:	f002 fc3b 	bl	105454 <wait_us>
  102bde:	bf00      	nop
  102be0:	b003      	add	sp, #12
  102be2:	f85d fb04 	ldr.w	pc, [sp], #4
  102be6:	bf00      	nop

00102be8 <NHD_C0216CZ::i2cCsDisable()>:
  102be8:	b500      	push	{lr}
  102bea:	b083      	sub	sp, #12
  102bec:	9001      	str	r0, [sp, #4]
  102bee:	2001      	movs	r0, #1
  102bf0:	f002 fc30 	bl	105454 <wait_us>
  102bf4:	9b01      	ldr	r3, [sp, #4]
  102bf6:	f103 0034 	add.w	r0, r3, #52	; 0x34
  102bfa:	2301      	movs	r3, #1
  102bfc:	2202      	movs	r2, #2
  102bfe:	2100      	movs	r1, #0
  102c00:	f000 f8ba 	bl	102d78 <PCA9655E::setValue(Port, signed char, SetVal)>
  102c04:	2014      	movs	r0, #20
  102c06:	f002 fc25 	bl	105454 <wait_us>
  102c0a:	bf00      	nop
  102c0c:	b003      	add	sp, #12
  102c0e:	f85d fb04 	ldr.w	pc, [sp], #4
  102c12:	bf00      	nop

00102c14 <NHD_C0216CZ::setRsPin(NHD_C0216CZ::LEVEL_T)>:
  102c14:	b500      	push	{lr}
  102c16:	b083      	sub	sp, #12
  102c18:	9001      	str	r0, [sp, #4]
  102c1a:	460b      	mov	r3, r1
  102c1c:	f88d 3003 	strb.w	r3, [sp, #3]
  102c20:	f44f 70fa 	mov.w	r0, #500	; 0x1f4
  102c24:	f002 fc16 	bl	105454 <wait_us>
  102c28:	f89d 3003 	ldrb.w	r3, [sp, #3]
  102c2c:	2b00      	cmp	r3, #0
  102c2e:	d00a      	beq.n	102c46 <NHD_C0216CZ::setRsPin(NHD_C0216CZ::LEVEL_T)+0x32>
  102c30:	2b01      	cmp	r3, #1
  102c32:	d111      	bne.n	102c58 <NHD_C0216CZ::setRsPin(NHD_C0216CZ::LEVEL_T)+0x44>
  102c34:	9b01      	ldr	r3, [sp, #4]
  102c36:	f103 0034 	add.w	r0, r3, #52	; 0x34
  102c3a:	2301      	movs	r3, #1
  102c3c:	2203      	movs	r2, #3
  102c3e:	2100      	movs	r1, #0
  102c40:	f000 f89a 	bl	102d78 <PCA9655E::setValue(Port, signed char, SetVal)>
  102c44:	e008      	b.n	102c58 <NHD_C0216CZ::setRsPin(NHD_C0216CZ::LEVEL_T)+0x44>
  102c46:	9b01      	ldr	r3, [sp, #4]
  102c48:	f103 0034 	add.w	r0, r3, #52	; 0x34
  102c4c:	2300      	movs	r3, #0
  102c4e:	2203      	movs	r2, #3
  102c50:	2100      	movs	r1, #0
  102c52:	f000 f891 	bl	102d78 <PCA9655E::setValue(Port, signed char, SetVal)>
  102c56:	bf00      	nop
  102c58:	2014      	movs	r0, #20
  102c5a:	f002 fbfb 	bl	105454 <wait_us>
  102c5e:	f44f 70fa 	mov.w	r0, #500	; 0x1f4
  102c62:	f002 fbf7 	bl	105454 <wait_us>
  102c66:	bf00      	nop
  102c68:	b003      	add	sp, #12
  102c6a:	f85d fb04 	ldr.w	pc, [sp], #4
  102c6e:	bf00      	nop

00102c70 <NHD_C0216CZ::setSpiParams()>:
  102c70:	b500      	push	{lr}
  102c72:	b083      	sub	sp, #12
  102c74:	9001      	str	r0, [sp, #4]
  102c76:	9b01      	ldr	r3, [sp, #4]
  102c78:	2200      	movs	r2, #0
  102c7a:	2108      	movs	r1, #8
  102c7c:	4618      	mov	r0, r3
  102c7e:	f004 fe6d 	bl	10795c <mbed::SPI::format(int, int)>
  102c82:	9b01      	ldr	r3, [sp, #4]
  102c84:	4903      	ldr	r1, [pc, #12]	; (102c94 <NHD_C0216CZ::setSpiParams()+0x24>)
  102c86:	4618      	mov	r0, r3
  102c88:	f004 fe80 	bl	10798c <mbed::SPI::frequency(int)>
  102c8c:	bf00      	nop
  102c8e:	b003      	add	sp, #12
  102c90:	f85d fb04 	ldr.w	pc, [sp], #4
  102c94:	0007a120 	.word	0x0007a120

00102c98 <NHD_C0216CZ::resetSpiParams()>:
  102c98:	b500      	push	{lr}
  102c9a:	b087      	sub	sp, #28
  102c9c:	9001      	str	r0, [sp, #4]
  102c9e:	2308      	movs	r3, #8
  102ca0:	9305      	str	r3, [sp, #20]
  102ca2:	2300      	movs	r3, #0
  102ca4:	9304      	str	r3, [sp, #16]
  102ca6:	4b08      	ldr	r3, [pc, #32]	; (102cc8 <NHD_C0216CZ::resetSpiParams()+0x30>)
  102ca8:	9303      	str	r3, [sp, #12]
  102caa:	9b01      	ldr	r3, [sp, #4]
  102cac:	9a04      	ldr	r2, [sp, #16]
  102cae:	9905      	ldr	r1, [sp, #20]
  102cb0:	4618      	mov	r0, r3
  102cb2:	f004 fe53 	bl	10795c <mbed::SPI::format(int, int)>
  102cb6:	9b01      	ldr	r3, [sp, #4]
  102cb8:	9903      	ldr	r1, [sp, #12]
  102cba:	4618      	mov	r0, r3
  102cbc:	f004 fe66 	bl	10798c <mbed::SPI::frequency(int)>
  102cc0:	bf00      	nop
  102cc2:	b007      	add	sp, #28
  102cc4:	f85d fb04 	ldr.w	pc, [sp], #4
  102cc8:	000f4240 	.word	0x000f4240

00102ccc <PCA9655E::PCA9655E(PinName, PinName, unsigned char, PinName)>:
  102ccc:	b500      	push	{lr}
  102cce:	b085      	sub	sp, #20
  102cd0:	9003      	str	r0, [sp, #12]
  102cd2:	9102      	str	r1, [sp, #8]
  102cd4:	9201      	str	r2, [sp, #4]
  102cd6:	f88d 3003 	strb.w	r3, [sp, #3]
  102cda:	9b03      	ldr	r3, [sp, #12]
  102cdc:	9a01      	ldr	r2, [sp, #4]
  102cde:	9902      	ldr	r1, [sp, #8]
  102ce0:	4618      	mov	r0, r3
  102ce2:	f004 f971 	bl	106fc8 <mbed::I2C::I2C(PinName, PinName)>
  102ce6:	9b03      	ldr	r3, [sp, #12]
  102ce8:	330c      	adds	r3, #12
  102cea:	9906      	ldr	r1, [sp, #24]
  102cec:	4618      	mov	r0, r3
  102cee:	f004 fa05 	bl	1070fc <mbed::InterruptIn::InterruptIn(PinName)>
  102cf2:	9b03      	ldr	r3, [sp, #12]
  102cf4:	f89d 2003 	ldrb.w	r2, [sp, #3]
  102cf8:	721a      	strb	r2, [r3, #8]
  102cfa:	9b03      	ldr	r3, [sp, #12]
  102cfc:	4904      	ldr	r1, [pc, #16]	; (102d10 <PCA9655E::PCA9655E(PinName, PinName, unsigned char, PinName)+0x44>)
  102cfe:	4618      	mov	r0, r3
  102d00:	f004 f980 	bl	107004 <mbed::I2C::frequency(int)>
  102d04:	9b03      	ldr	r3, [sp, #12]
  102d06:	4618      	mov	r0, r3
  102d08:	b005      	add	sp, #20
  102d0a:	f85d fb04 	ldr.w	pc, [sp], #4
  102d0e:	bf00      	nop
  102d10:	000f4240 	.word	0x000f4240

00102d14 <PCA9655E::frequency(int)>:
  102d14:	b500      	push	{lr}
  102d16:	b083      	sub	sp, #12
  102d18:	9001      	str	r0, [sp, #4]
  102d1a:	9100      	str	r1, [sp, #0]
  102d1c:	9b01      	ldr	r3, [sp, #4]
  102d1e:	9900      	ldr	r1, [sp, #0]
  102d20:	4618      	mov	r0, r3
  102d22:	f004 f96f 	bl	107004 <mbed::I2C::frequency(int)>
  102d26:	bf00      	nop
  102d28:	b003      	add	sp, #12
  102d2a:	f85d fb04 	ldr.w	pc, [sp], #4
  102d2e:	bf00      	nop

00102d30 <PCA9655E::interruptInit(IntEdge, void (*)())>:
  102d30:	b500      	push	{lr}
  102d32:	b085      	sub	sp, #20
  102d34:	9003      	str	r0, [sp, #12]
  102d36:	460b      	mov	r3, r1
  102d38:	9201      	str	r2, [sp, #4]
  102d3a:	f88d 300b 	strb.w	r3, [sp, #11]
  102d3e:	9b01      	ldr	r3, [sp, #4]
  102d40:	2b00      	cmp	r3, #0
  102d42:	d014      	beq.n	102d6e <PCA9655E::interruptInit(IntEdge, void (*)())+0x3e>
  102d44:	f89d 300b 	ldrb.w	r3, [sp, #11]
  102d48:	2b00      	cmp	r3, #0
  102d4a:	d002      	beq.n	102d52 <PCA9655E::interruptInit(IntEdge, void (*)())+0x22>
  102d4c:	2b01      	cmp	r3, #1
  102d4e:	d007      	beq.n	102d60 <PCA9655E::interruptInit(IntEdge, void (*)())+0x30>
  102d50:	e00d      	b.n	102d6e <PCA9655E::interruptInit(IntEdge, void (*)())+0x3e>
  102d52:	9b03      	ldr	r3, [sp, #12]
  102d54:	330c      	adds	r3, #12
  102d56:	9901      	ldr	r1, [sp, #4]
  102d58:	4618      	mov	r0, r3
  102d5a:	f004 fa31 	bl	1071c0 <mbed::InterruptIn::rise(void (*)())>
  102d5e:	e006      	b.n	102d6e <PCA9655E::interruptInit(IntEdge, void (*)())+0x3e>
  102d60:	9b03      	ldr	r3, [sp, #12]
  102d62:	330c      	adds	r3, #12
  102d64:	9901      	ldr	r1, [sp, #4]
  102d66:	4618      	mov	r0, r3
  102d68:	f004 fa50 	bl	10720c <mbed::InterruptIn::fall(void (*)())>
  102d6c:	bf00      	nop
  102d6e:	bf00      	nop
  102d70:	b005      	add	sp, #20
  102d72:	f85d fb04 	ldr.w	pc, [sp], #4
  102d76:	bf00      	nop

00102d78 <PCA9655E::setValue(Port, signed char, SetVal)>:
  102d78:	b500      	push	{lr}
  102d7a:	b085      	sub	sp, #20
  102d7c:	9001      	str	r0, [sp, #4]
  102d7e:	4608      	mov	r0, r1
  102d80:	4611      	mov	r1, r2
  102d82:	461a      	mov	r2, r3
  102d84:	4603      	mov	r3, r0
  102d86:	f88d 3003 	strb.w	r3, [sp, #3]
  102d8a:	460b      	mov	r3, r1
  102d8c:	f88d 3002 	strb.w	r3, [sp, #2]
  102d90:	4613      	mov	r3, r2
  102d92:	f88d 3001 	strb.w	r3, [sp, #1]
  102d96:	f99d 3002 	ldrsb.w	r3, [sp, #2]
  102d9a:	2b00      	cmp	r3, #0
  102d9c:	db03      	blt.n	102da6 <PCA9655E::setValue(Port, signed char, SetVal)+0x2e>
  102d9e:	f99d 3002 	ldrsb.w	r3, [sp, #2]
  102da2:	2b07      	cmp	r3, #7
  102da4:	dd04      	ble.n	102db0 <PCA9655E::setValue(Port, signed char, SetVal)+0x38>
  102da6:	2257      	movs	r2, #87	; 0x57
  102da8:	4925      	ldr	r1, [pc, #148]	; (102e40 <PCA9655E::setValue(Port, signed char, SetVal)+0xc8>)
  102daa:	4826      	ldr	r0, [pc, #152]	; (102e44 <PCA9655E::setValue(Port, signed char, SetVal)+0xcc>)
  102dac:	f002 f934 	bl	105018 <mbed_assert_internal>
  102db0:	b672      	cpsid	i
  102db2:	f89d 3003 	ldrb.w	r3, [sp, #3]
  102db6:	2b00      	cmp	r3, #0
  102db8:	d002      	beq.n	102dc0 <PCA9655E::setValue(Port, signed char, SetVal)+0x48>
  102dba:	2b01      	cmp	r3, #1
  102dbc:	d004      	beq.n	102dc8 <PCA9655E::setValue(Port, signed char, SetVal)+0x50>
  102dbe:	e007      	b.n	102dd0 <PCA9655E::setValue(Port, signed char, SetVal)+0x58>
  102dc0:	2302      	movs	r3, #2
  102dc2:	f88d 300e 	strb.w	r3, [sp, #14]
  102dc6:	e003      	b.n	102dd0 <PCA9655E::setValue(Port, signed char, SetVal)+0x58>
  102dc8:	2303      	movs	r3, #3
  102dca:	f88d 300e 	strb.w	r3, [sp, #14]
  102dce:	bf00      	nop
  102dd0:	f89d 300e 	ldrb.w	r3, [sp, #14]
  102dd4:	4619      	mov	r1, r3
  102dd6:	9801      	ldr	r0, [sp, #4]
  102dd8:	f000 f8c2 	bl	102f60 <PCA9655E::read(Register)>
  102ddc:	4603      	mov	r3, r0
  102dde:	f88d 300f 	strb.w	r3, [sp, #15]
  102de2:	f89d 3001 	ldrb.w	r3, [sp, #1]
  102de6:	2b00      	cmp	r3, #0
  102de8:	d00e      	beq.n	102e08 <PCA9655E::setValue(Port, signed char, SetVal)+0x90>
  102dea:	2b01      	cmp	r3, #1
  102dec:	d11b      	bne.n	102e26 <PCA9655E::setValue(Port, signed char, SetVal)+0xae>
  102dee:	f99d 3002 	ldrsb.w	r3, [sp, #2]
  102df2:	2201      	movs	r2, #1
  102df4:	fa02 f303 	lsl.w	r3, r2, r3
  102df8:	b2da      	uxtb	r2, r3
  102dfa:	f89d 300f 	ldrb.w	r3, [sp, #15]
  102dfe:	4313      	orrs	r3, r2
  102e00:	b2db      	uxtb	r3, r3
  102e02:	f88d 300f 	strb.w	r3, [sp, #15]
  102e06:	e00e      	b.n	102e26 <PCA9655E::setValue(Port, signed char, SetVal)+0xae>
  102e08:	f99d 3002 	ldrsb.w	r3, [sp, #2]
  102e0c:	2201      	movs	r2, #1
  102e0e:	fa02 f303 	lsl.w	r3, r2, r3
  102e12:	b2db      	uxtb	r3, r3
  102e14:	43db      	mvns	r3, r3
  102e16:	b2da      	uxtb	r2, r3
  102e18:	f89d 300f 	ldrb.w	r3, [sp, #15]
  102e1c:	4013      	ands	r3, r2
  102e1e:	b2db      	uxtb	r3, r3
  102e20:	f88d 300f 	strb.w	r3, [sp, #15]
  102e24:	bf00      	nop
  102e26:	f89d 200f 	ldrb.w	r2, [sp, #15]
  102e2a:	f89d 300e 	ldrb.w	r3, [sp, #14]
  102e2e:	4619      	mov	r1, r3
  102e30:	9801      	ldr	r0, [sp, #4]
  102e32:	f000 f873 	bl	102f1c <PCA9655E::write(Register, char)>
  102e36:	b662      	cpsie	i
  102e38:	bf00      	nop
  102e3a:	b005      	add	sp, #20
  102e3c:	f85d fb04 	ldr.w	pc, [sp], #4
  102e40:	0010df54 	.word	0x0010df54
  102e44:	0010df68 	.word	0x0010df68

00102e48 <PCA9655E::setDirection(Port, signed char, Direction)>:
  102e48:	b500      	push	{lr}
  102e4a:	b085      	sub	sp, #20
  102e4c:	9001      	str	r0, [sp, #4]
  102e4e:	4608      	mov	r0, r1
  102e50:	4611      	mov	r1, r2
  102e52:	461a      	mov	r2, r3
  102e54:	4603      	mov	r3, r0
  102e56:	f88d 3003 	strb.w	r3, [sp, #3]
  102e5a:	460b      	mov	r3, r1
  102e5c:	f88d 3002 	strb.w	r3, [sp, #2]
  102e60:	4613      	mov	r3, r2
  102e62:	f88d 3001 	strb.w	r3, [sp, #1]
  102e66:	f99d 3002 	ldrsb.w	r3, [sp, #2]
  102e6a:	2b00      	cmp	r3, #0
  102e6c:	db03      	blt.n	102e76 <PCA9655E::setDirection(Port, signed char, Direction)+0x2e>
  102e6e:	f99d 3002 	ldrsb.w	r3, [sp, #2]
  102e72:	2b07      	cmp	r3, #7
  102e74:	dd04      	ble.n	102e80 <PCA9655E::setDirection(Port, signed char, Direction)+0x38>
  102e76:	2273      	movs	r2, #115	; 0x73
  102e78:	4926      	ldr	r1, [pc, #152]	; (102f14 <PCA9655E::setDirection(Port, signed char, Direction)+0xcc>)
  102e7a:	4827      	ldr	r0, [pc, #156]	; (102f18 <PCA9655E::setDirection(Port, signed char, Direction)+0xd0>)
  102e7c:	f002 f8cc 	bl	105018 <mbed_assert_internal>
  102e80:	b672      	cpsid	i
  102e82:	f89d 3003 	ldrb.w	r3, [sp, #3]
  102e86:	2b00      	cmp	r3, #0
  102e88:	d002      	beq.n	102e90 <PCA9655E::setDirection(Port, signed char, Direction)+0x48>
  102e8a:	2b01      	cmp	r3, #1
  102e8c:	d004      	beq.n	102e98 <PCA9655E::setDirection(Port, signed char, Direction)+0x50>
  102e8e:	e007      	b.n	102ea0 <PCA9655E::setDirection(Port, signed char, Direction)+0x58>
  102e90:	2306      	movs	r3, #6
  102e92:	f88d 300e 	strb.w	r3, [sp, #14]
  102e96:	e003      	b.n	102ea0 <PCA9655E::setDirection(Port, signed char, Direction)+0x58>
  102e98:	2307      	movs	r3, #7
  102e9a:	f88d 300e 	strb.w	r3, [sp, #14]
  102e9e:	bf00      	nop
  102ea0:	f89d 300e 	ldrb.w	r3, [sp, #14]
  102ea4:	4619      	mov	r1, r3
  102ea6:	9801      	ldr	r0, [sp, #4]
  102ea8:	f000 f85a 	bl	102f60 <PCA9655E::read(Register)>
  102eac:	4603      	mov	r3, r0
  102eae:	f88d 300f 	strb.w	r3, [sp, #15]
  102eb2:	f89d 3001 	ldrb.w	r3, [sp, #1]
  102eb6:	2b00      	cmp	r3, #0
  102eb8:	d002      	beq.n	102ec0 <PCA9655E::setDirection(Port, signed char, Direction)+0x78>
  102eba:	2b01      	cmp	r3, #1
  102ebc:	d00f      	beq.n	102ede <PCA9655E::setDirection(Port, signed char, Direction)+0x96>
  102ebe:	e01b      	b.n	102ef8 <PCA9655E::setDirection(Port, signed char, Direction)+0xb0>
  102ec0:	f99d 3002 	ldrsb.w	r3, [sp, #2]
  102ec4:	2201      	movs	r2, #1
  102ec6:	fa02 f303 	lsl.w	r3, r2, r3
  102eca:	b2db      	uxtb	r3, r3
  102ecc:	43db      	mvns	r3, r3
  102ece:	b2da      	uxtb	r2, r3
  102ed0:	f89d 300f 	ldrb.w	r3, [sp, #15]
  102ed4:	4013      	ands	r3, r2
  102ed6:	b2db      	uxtb	r3, r3
  102ed8:	f88d 300f 	strb.w	r3, [sp, #15]
  102edc:	e00c      	b.n	102ef8 <PCA9655E::setDirection(Port, signed char, Direction)+0xb0>
  102ede:	f99d 3002 	ldrsb.w	r3, [sp, #2]
  102ee2:	2201      	movs	r2, #1
  102ee4:	fa02 f303 	lsl.w	r3, r2, r3
  102ee8:	b2da      	uxtb	r2, r3
  102eea:	f89d 300f 	ldrb.w	r3, [sp, #15]
  102eee:	4313      	orrs	r3, r2
  102ef0:	b2db      	uxtb	r3, r3
  102ef2:	f88d 300f 	strb.w	r3, [sp, #15]
  102ef6:	bf00      	nop
  102ef8:	f89d 200f 	ldrb.w	r2, [sp, #15]
  102efc:	f89d 300e 	ldrb.w	r3, [sp, #14]
  102f00:	4619      	mov	r1, r3
  102f02:	9801      	ldr	r0, [sp, #4]
  102f04:	f000 f80a 	bl	102f1c <PCA9655E::write(Register, char)>
  102f08:	b662      	cpsie	i
  102f0a:	bf00      	nop
  102f0c:	b005      	add	sp, #20
  102f0e:	f85d fb04 	ldr.w	pc, [sp], #4
  102f12:	bf00      	nop
  102f14:	0010df54 	.word	0x0010df54
  102f18:	0010df68 	.word	0x0010df68

00102f1c <PCA9655E::write(Register, char)>:
  102f1c:	b500      	push	{lr}
  102f1e:	b087      	sub	sp, #28
  102f20:	9003      	str	r0, [sp, #12]
  102f22:	460b      	mov	r3, r1
  102f24:	f88d 300b 	strb.w	r3, [sp, #11]
  102f28:	4613      	mov	r3, r2
  102f2a:	f88d 300a 	strb.w	r3, [sp, #10]
  102f2e:	b672      	cpsid	i
  102f30:	f89d 300b 	ldrb.w	r3, [sp, #11]
  102f34:	f88d 3014 	strb.w	r3, [sp, #20]
  102f38:	f89d 300a 	ldrb.w	r3, [sp, #10]
  102f3c:	f88d 3015 	strb.w	r3, [sp, #21]
  102f40:	9803      	ldr	r0, [sp, #12]
  102f42:	9b03      	ldr	r3, [sp, #12]
  102f44:	7a1b      	ldrb	r3, [r3, #8]
  102f46:	4619      	mov	r1, r3
  102f48:	aa05      	add	r2, sp, #20
  102f4a:	2300      	movs	r3, #0
  102f4c:	9300      	str	r3, [sp, #0]
  102f4e:	2302      	movs	r3, #2
  102f50:	f004 f888 	bl	107064 <mbed::I2C::write(int, char const*, int, bool)>
  102f54:	b662      	cpsie	i
  102f56:	bf00      	nop
  102f58:	b007      	add	sp, #28
  102f5a:	f85d fb04 	ldr.w	pc, [sp], #4
  102f5e:	bf00      	nop

00102f60 <PCA9655E::read(Register)>:
  102f60:	b500      	push	{lr}
  102f62:	b087      	sub	sp, #28
  102f64:	9003      	str	r0, [sp, #12]
  102f66:	460b      	mov	r3, r1
  102f68:	f88d 300b 	strb.w	r3, [sp, #11]
  102f6c:	f89d 300b 	ldrb.w	r3, [sp, #11]
  102f70:	f88d 3016 	strb.w	r3, [sp, #22]
  102f74:	b672      	cpsid	i
  102f76:	9803      	ldr	r0, [sp, #12]
  102f78:	9b03      	ldr	r3, [sp, #12]
  102f7a:	7a1b      	ldrb	r3, [r3, #8]
  102f7c:	4619      	mov	r1, r3
  102f7e:	f10d 0216 	add.w	r2, sp, #22
  102f82:	2301      	movs	r3, #1
  102f84:	9300      	str	r3, [sp, #0]
  102f86:	2301      	movs	r3, #1
  102f88:	f004 f86c 	bl	107064 <mbed::I2C::write(int, char const*, int, bool)>
  102f8c:	9803      	ldr	r0, [sp, #12]
  102f8e:	9b03      	ldr	r3, [sp, #12]
  102f90:	7a1b      	ldrb	r3, [r3, #8]
  102f92:	4619      	mov	r1, r3
  102f94:	f10d 0217 	add.w	r2, sp, #23
  102f98:	2300      	movs	r3, #0
  102f9a:	9300      	str	r3, [sp, #0]
  102f9c:	2301      	movs	r3, #1
  102f9e:	f004 f887 	bl	1070b0 <mbed::I2C::read(int, char*, int, bool)>
  102fa2:	b662      	cpsie	i
  102fa4:	f89d 3017 	ldrb.w	r3, [sp, #23]
  102fa8:	4618      	mov	r0, r3
  102faa:	b007      	add	sp, #28
  102fac:	f85d fb04 	ldr.w	pc, [sp], #4

00102fb0 <PCA9655E::~PCA9655E()>:
  102fb0:	b500      	push	{lr}
  102fb2:	b083      	sub	sp, #12
  102fb4:	9001      	str	r0, [sp, #4]
  102fb6:	9b01      	ldr	r3, [sp, #4]
  102fb8:	330c      	adds	r3, #12
  102fba:	4618      	mov	r0, r3
  102fbc:	f004 f8da 	bl	107174 <mbed::InterruptIn::~InterruptIn()>
  102fc0:	9b01      	ldr	r3, [sp, #4]
  102fc2:	4618      	mov	r0, r3
  102fc4:	b003      	add	sp, #12
  102fc6:	f85d fb04 	ldr.w	pc, [sp], #4
  102fca:	bf00      	nop

00102fcc <rtos::Mutex::Mutex()>:
  102fcc:	b500      	push	{lr}
  102fce:	b083      	sub	sp, #12
  102fd0:	9001      	str	r0, [sp, #4]
  102fd2:	9b01      	ldr	r3, [sp, #4]
  102fd4:	3308      	adds	r3, #8
  102fd6:	220c      	movs	r2, #12
  102fd8:	2100      	movs	r1, #0
  102fda:	4618      	mov	r0, r3
  102fdc:	f006 f810 	bl	109000 <memset>
  102fe0:	9b01      	ldr	r3, [sp, #4]
  102fe2:	f103 0208 	add.w	r2, r3, #8
  102fe6:	9b01      	ldr	r3, [sp, #4]
  102fe8:	605a      	str	r2, [r3, #4]
  102fea:	9b01      	ldr	r3, [sp, #4]
  102fec:	3304      	adds	r3, #4
  102fee:	4618      	mov	r0, r3
  102ff0:	f000 fbb4 	bl	10375c <osMutexCreate>
  102ff4:	4602      	mov	r2, r0
  102ff6:	9b01      	ldr	r3, [sp, #4]
  102ff8:	601a      	str	r2, [r3, #0]
  102ffa:	9b01      	ldr	r3, [sp, #4]
  102ffc:	681b      	ldr	r3, [r3, #0]
  102ffe:	2b00      	cmp	r3, #0
  103000:	d102      	bne.n	103008 <rtos::Mutex::Mutex()+0x3c>
  103002:	4804      	ldr	r0, [pc, #16]	; (103014 <rtos::Mutex::Mutex()+0x48>)
  103004:	f002 f824 	bl	105050 <error>
  103008:	9b01      	ldr	r3, [sp, #4]
  10300a:	4618      	mov	r0, r3
  10300c:	b003      	add	sp, #12
  10300e:	f85d fb04 	ldr.w	pc, [sp], #4
  103012:	bf00      	nop
  103014:	0010df84 	.word	0x0010df84

00103018 <rtos::Mutex::lock(unsigned long)>:
  103018:	b500      	push	{lr}
  10301a:	b083      	sub	sp, #12
  10301c:	9001      	str	r0, [sp, #4]
  10301e:	9100      	str	r1, [sp, #0]
  103020:	9b01      	ldr	r3, [sp, #4]
  103022:	681b      	ldr	r3, [r3, #0]
  103024:	9900      	ldr	r1, [sp, #0]
  103026:	4618      	mov	r0, r3
  103028:	f000 fbc4 	bl	1037b4 <osMutexWait>
  10302c:	4603      	mov	r3, r0
  10302e:	4618      	mov	r0, r3
  103030:	b003      	add	sp, #12
  103032:	f85d fb04 	ldr.w	pc, [sp], #4
  103036:	bf00      	nop

00103038 <rtos::Mutex::unlock()>:
  103038:	b500      	push	{lr}
  10303a:	b083      	sub	sp, #12
  10303c:	9001      	str	r0, [sp, #4]
  10303e:	9b01      	ldr	r3, [sp, #4]
  103040:	681b      	ldr	r3, [r3, #0]
  103042:	4618      	mov	r0, r3
  103044:	f000 fbd4 	bl	1037f0 <osMutexRelease>
  103048:	4603      	mov	r3, r0
  10304a:	4618      	mov	r0, r3
  10304c:	b003      	add	sp, #12
  10304e:	f85d fb04 	ldr.w	pc, [sp], #4
  103052:	bf00      	nop

00103054 <rtos::Mutex::~Mutex()>:
  103054:	b500      	push	{lr}
  103056:	b083      	sub	sp, #12
  103058:	9001      	str	r0, [sp, #4]
  10305a:	9b01      	ldr	r3, [sp, #4]
  10305c:	681b      	ldr	r3, [r3, #0]
  10305e:	4618      	mov	r0, r3
  103060:	f000 fbe0 	bl	103824 <osMutexDelete>
  103064:	9b01      	ldr	r3, [sp, #4]
  103066:	4618      	mov	r0, r3
  103068:	b003      	add	sp, #12
  10306a:	f85d fb04 	ldr.w	pc, [sp], #4
  10306e:	bf00      	nop

00103070 <rt_ms2tick>:
  103070:	b084      	sub	sp, #16
  103072:	9001      	str	r0, [sp, #4]
  103074:	9b01      	ldr	r3, [sp, #4]
  103076:	f1b3 3fff 	cmp.w	r3, #4294967295
  10307a:	d102      	bne.n	103082 <rt_ms2tick+0x12>
  10307c:	f64f 73ff 	movw	r3, #65535	; 0xffff
  103080:	e01d      	b.n	1030be <rt_ms2tick+0x4e>
  103082:	9b01      	ldr	r3, [sp, #4]
  103084:	4a0f      	ldr	r2, [pc, #60]	; (1030c4 <rt_ms2tick+0x54>)
  103086:	4293      	cmp	r3, r2
  103088:	d902      	bls.n	103090 <rt_ms2tick+0x20>
  10308a:	f64f 73fe 	movw	r3, #65534	; 0xfffe
  10308e:	e016      	b.n	1030be <rt_ms2tick+0x4e>
  103090:	9b01      	ldr	r3, [sp, #4]
  103092:	f44f 727a 	mov.w	r2, #1000	; 0x3e8
  103096:	fb02 f203 	mul.w	r2, r2, r3
  10309a:	4b0b      	ldr	r3, [pc, #44]	; (1030c8 <rt_ms2tick+0x58>)
  10309c:	681b      	ldr	r3, [r3, #0]
  10309e:	4413      	add	r3, r2
  1030a0:	1e5a      	subs	r2, r3, #1
  1030a2:	4b09      	ldr	r3, [pc, #36]	; (1030c8 <rt_ms2tick+0x58>)
  1030a4:	681b      	ldr	r3, [r3, #0]
  1030a6:	fbb2 f3f3 	udiv	r3, r2, r3
  1030aa:	9303      	str	r3, [sp, #12]
  1030ac:	9b03      	ldr	r3, [sp, #12]
  1030ae:	f64f 72fe 	movw	r2, #65534	; 0xfffe
  1030b2:	4293      	cmp	r3, r2
  1030b4:	d902      	bls.n	1030bc <rt_ms2tick+0x4c>
  1030b6:	f64f 73fe 	movw	r3, #65534	; 0xfffe
  1030ba:	e000      	b.n	1030be <rt_ms2tick+0x4e>
  1030bc:	9b03      	ldr	r3, [sp, #12]
  1030be:	4618      	mov	r0, r3
  1030c0:	b004      	add	sp, #16
  1030c2:	4770      	bx	lr
  1030c4:	003d0900 	.word	0x003d0900
  1030c8:	0010dfb8 	.word	0x0010dfb8

001030cc <rt_tid2ptcb>:
  1030cc:	b084      	sub	sp, #16
  1030ce:	9001      	str	r0, [sp, #4]
  1030d0:	9b01      	ldr	r3, [sp, #4]
  1030d2:	2b00      	cmp	r3, #0
  1030d4:	d101      	bne.n	1030da <rt_tid2ptcb+0xe>
  1030d6:	2300      	movs	r3, #0
  1030d8:	e00f      	b.n	1030fa <rt_tid2ptcb+0x2e>
  1030da:	9b01      	ldr	r3, [sp, #4]
  1030dc:	f003 0303 	and.w	r3, r3, #3
  1030e0:	2b00      	cmp	r3, #0
  1030e2:	d001      	beq.n	1030e8 <rt_tid2ptcb+0x1c>
  1030e4:	2300      	movs	r3, #0
  1030e6:	e008      	b.n	1030fa <rt_tid2ptcb+0x2e>
  1030e8:	9b01      	ldr	r3, [sp, #4]
  1030ea:	9303      	str	r3, [sp, #12]
  1030ec:	9b03      	ldr	r3, [sp, #12]
  1030ee:	781b      	ldrb	r3, [r3, #0]
  1030f0:	2b00      	cmp	r3, #0
  1030f2:	d001      	beq.n	1030f8 <rt_tid2ptcb+0x2c>
  1030f4:	2300      	movs	r3, #0
  1030f6:	e000      	b.n	1030fa <rt_tid2ptcb+0x2e>
  1030f8:	9b03      	ldr	r3, [sp, #12]
  1030fa:	4618      	mov	r0, r3
  1030fc:	b004      	add	sp, #16
  1030fe:	4770      	bx	lr

00103100 <rt_id2obj>:
  103100:	b082      	sub	sp, #8
  103102:	9001      	str	r0, [sp, #4]
  103104:	9b01      	ldr	r3, [sp, #4]
  103106:	f003 0303 	and.w	r3, r3, #3
  10310a:	2b00      	cmp	r3, #0
  10310c:	d001      	beq.n	103112 <rt_id2obj+0x12>
  10310e:	2300      	movs	r3, #0
  103110:	e000      	b.n	103114 <rt_id2obj+0x14>
  103112:	9b01      	ldr	r3, [sp, #4]
  103114:	4618      	mov	r0, r3
  103116:	b002      	add	sp, #8
  103118:	4770      	bx	lr
  10311a:	bf00      	nop

0010311c <svcKernelInitialize>:
  10311c:	b508      	push	{r3, lr}
  10311e:	4b0a      	ldr	r3, [pc, #40]	; (103148 <svcKernelInitialize+0x2c>)
  103120:	781b      	ldrb	r3, [r3, #0]
  103122:	2b00      	cmp	r3, #0
  103124:	d001      	beq.n	10312a <svcKernelInitialize+0xe>
  103126:	2300      	movs	r3, #0
  103128:	e00c      	b.n	103144 <svcKernelInitialize+0x28>
  10312a:	f001 fd51 	bl	104bd0 <rt_sys_init>
  10312e:	4b07      	ldr	r3, [pc, #28]	; (10314c <svcKernelInitialize+0x30>)
  103130:	681b      	ldr	r3, [r3, #0]
  103132:	22ff      	movs	r2, #255	; 0xff
  103134:	709a      	strb	r2, [r3, #2]
  103136:	2000      	movs	r0, #0
  103138:	f001 fde4 	bl	104d04 <sysThreadError>
  10313c:	4b02      	ldr	r3, [pc, #8]	; (103148 <svcKernelInitialize+0x2c>)
  10313e:	2201      	movs	r2, #1
  103140:	701a      	strb	r2, [r3, #0]
  103142:	2300      	movs	r3, #0
  103144:	4618      	mov	r0, r3
  103146:	bd08      	pop	{r3, pc}
  103148:	3fff4844 	.word	0x3fff4844
  10314c:	3fff4880 	.word	0x3fff4880

00103150 <svcKernelStart>:
  103150:	b500      	push	{lr}
  103152:	b083      	sub	sp, #12
  103154:	4b16      	ldr	r3, [pc, #88]	; (1031b0 <svcKernelStart+0x60>)
  103156:	781b      	ldrb	r3, [r3, #0]
  103158:	2b00      	cmp	r3, #0
  10315a:	d001      	beq.n	103160 <svcKernelStart+0x10>
  10315c:	2300      	movs	r3, #0
  10315e:	e022      	b.n	1031a6 <svcKernelStart+0x56>
  103160:	2100      	movs	r1, #0
  103162:	4814      	ldr	r0, [pc, #80]	; (1031b4 <svcKernelStart+0x64>)
  103164:	f000 fb78 	bl	103858 <svcMessageCreate>
  103168:	4602      	mov	r2, r0
  10316a:	4b13      	ldr	r3, [pc, #76]	; (1031b8 <svcKernelStart+0x68>)
  10316c:	601a      	str	r2, [r3, #0]
  10316e:	2100      	movs	r1, #0
  103170:	4812      	ldr	r0, [pc, #72]	; (1031bc <svcKernelStart+0x6c>)
  103172:	f000 f8ad 	bl	1032d0 <svcThreadCreate>
  103176:	4602      	mov	r2, r0
  103178:	4b11      	ldr	r3, [pc, #68]	; (1031c0 <svcKernelStart+0x70>)
  10317a:	601a      	str	r2, [r3, #0]
  10317c:	2100      	movs	r1, #0
  10317e:	2000      	movs	r0, #0
  103180:	f001 fc6c 	bl	104a5c <rt_tsk_prio>
  103184:	4b0f      	ldr	r3, [pc, #60]	; (1031c4 <svcKernelStart+0x74>)
  103186:	681b      	ldr	r3, [r3, #0]
  103188:	6a9b      	ldr	r3, [r3, #40]	; 0x28
  10318a:	3320      	adds	r3, #32
  10318c:	9301      	str	r3, [sp, #4]
  10318e:	9b01      	ldr	r3, [sp, #4]
  103190:	f383 8809 	msr	PSP, r3
  103194:	4b0b      	ldr	r3, [pc, #44]	; (1031c4 <svcKernelStart+0x74>)
  103196:	2200      	movs	r2, #0
  103198:	601a      	str	r2, [r3, #0]
  10319a:	f001 fd7d 	bl	104c98 <rt_sys_start>
  10319e:	4b04      	ldr	r3, [pc, #16]	; (1031b0 <svcKernelStart+0x60>)
  1031a0:	2201      	movs	r2, #1
  1031a2:	701a      	strb	r2, [r3, #0]
  1031a4:	2300      	movs	r3, #0
  1031a6:	4618      	mov	r0, r3
  1031a8:	b003      	add	sp, #12
  1031aa:	f85d fb04 	ldr.w	pc, [sp], #4
  1031ae:	bf00      	nop
  1031b0:	3fff4845 	.word	0x3fff4845
  1031b4:	3fff4048 	.word	0x3fff4048
  1031b8:	3fff4948 	.word	0x3fff4948
  1031bc:	3fff4004 	.word	0x3fff4004
  1031c0:	3fff4944 	.word	0x3fff4944
  1031c4:	3fff4880 	.word	0x3fff4880

001031c8 <osKernelInitialize>:
  1031c8:	b510      	push	{r4, lr}
  1031ca:	b082      	sub	sp, #8
  1031cc:	f3ef 8405 	mrs	r4, IPSR
  1031d0:	9400      	str	r4, [sp, #0]
  1031d2:	9c00      	ldr	r4, [sp, #0]
  1031d4:	2c00      	cmp	r4, #0
  1031d6:	d001      	beq.n	1031dc <osKernelInitialize+0x14>
  1031d8:	2382      	movs	r3, #130	; 0x82
  1031da:	e010      	b.n	1031fe <osKernelInitialize+0x36>
  1031dc:	f3ef 8414 	mrs	r4, CONTROL
  1031e0:	9401      	str	r4, [sp, #4]
  1031e2:	9c01      	ldr	r4, [sp, #4]
  1031e4:	f004 0401 	and.w	r4, r4, #1
  1031e8:	2c00      	cmp	r4, #0
  1031ea:	d103      	bne.n	1031f4 <osKernelInitialize+0x2c>
  1031ec:	f7ff ff96 	bl	10311c <svcKernelInitialize>
  1031f0:	4603      	mov	r3, r0
  1031f2:	e004      	b.n	1031fe <osKernelInitialize+0x36>
  1031f4:	f8df c00c 	ldr.w	r12, [pc, #12]	; 103204 <osKernelInitialize+0x3c>
  1031f8:	df00      	svc	0
  1031fa:	4603      	mov	r3, r0
  1031fc:	bf00      	nop
  1031fe:	4618      	mov	r0, r3
  103200:	b002      	add	sp, #8
  103202:	bd10      	pop	{r4, pc}
  103204:	0010311d 	.word	0x0010311d

00103208 <osKernelStart>:
  103208:	b510      	push	{r4, lr}
  10320a:	b08e      	sub	sp, #56	; 0x38
  10320c:	f3ef 8405 	mrs	r4, IPSR
  103210:	9408      	str	r4, [sp, #32]
  103212:	9c08      	ldr	r4, [sp, #32]
  103214:	2c00      	cmp	r4, #0
  103216:	d001      	beq.n	10321c <osKernelStart+0x14>
  103218:	2382      	movs	r3, #130	; 0x82
  10321a:	e051      	b.n	1032c0 <osKernelStart+0xb8>
  10321c:	f3ef 8414 	mrs	r4, CONTROL
  103220:	940d      	str	r4, [sp, #52]	; 0x34
  103222:	9c0d      	ldr	r4, [sp, #52]	; 0x34
  103224:	f004 0403 	and.w	r4, r4, #3
  103228:	2c03      	cmp	r4, #3
  10322a:	d844      	bhi.n	1032b6 <osKernelStart+0xae>
  10322c:	f20f 0e04 	addw	lr, pc, #4
  103230:	f85e f024 	ldr.w	pc, [lr, r4, lsl #2]
  103234:	00103245 	.word	0x00103245
  103238:	0010327d 	.word	0x0010327d
  10323c:	00103281 	.word	0x00103281
  103240:	001032a1 	.word	0x001032a1
  103244:	466c      	mov	r4, sp
  103246:	3420      	adds	r4, #32
  103248:	940c      	str	r4, [sp, #48]	; 0x30
  10324a:	9c0c      	ldr	r4, [sp, #48]	; 0x30
  10324c:	f384 8809 	msr	PSP, r4
  103250:	4c1d      	ldr	r4, [pc, #116]	; (1032c8 <osKernelStart+0xc0>)
  103252:	7824      	ldrb	r4, [r4, #0]
  103254:	f004 0401 	and.w	r4, r4, #1
  103258:	2c00      	cmp	r4, #0
  10325a:	d005      	beq.n	103268 <osKernelStart+0x60>
  10325c:	2402      	movs	r4, #2
  10325e:	940b      	str	r4, [sp, #44]	; 0x2c
  103260:	9c0b      	ldr	r4, [sp, #44]	; 0x2c
  103262:	f384 8814 	msr	CONTROL, r4
  103266:	e004      	b.n	103272 <osKernelStart+0x6a>
  103268:	2403      	movs	r4, #3
  10326a:	940a      	str	r4, [sp, #40]	; 0x28
  10326c:	9c0a      	ldr	r4, [sp, #40]	; 0x28
  10326e:	f384 8814 	msr	CONTROL, r4
  103272:	f3bf 8f4f 	dsb	sy
  103276:	f3bf 8f6f 	isb	sy
  10327a:	e01c      	b.n	1032b6 <osKernelStart+0xae>
  10327c:	23ff      	movs	r3, #255	; 0xff
  10327e:	e01f      	b.n	1032c0 <osKernelStart+0xb8>
  103280:	4c11      	ldr	r4, [pc, #68]	; (1032c8 <osKernelStart+0xc0>)
  103282:	7824      	ldrb	r4, [r4, #0]
  103284:	f004 0401 	and.w	r4, r4, #1
  103288:	2c00      	cmp	r4, #0
  10328a:	d111      	bne.n	1032b0 <osKernelStart+0xa8>
  10328c:	2403      	movs	r4, #3
  10328e:	9409      	str	r4, [sp, #36]	; 0x24
  103290:	9c09      	ldr	r4, [sp, #36]	; 0x24
  103292:	f384 8814 	msr	CONTROL, r4
  103296:	f3bf 8f4f 	dsb	sy
  10329a:	f3bf 8f6f 	isb	sy
  10329e:	e007      	b.n	1032b0 <osKernelStart+0xa8>
  1032a0:	4c09      	ldr	r4, [pc, #36]	; (1032c8 <osKernelStart+0xc0>)
  1032a2:	7824      	ldrb	r4, [r4, #0]
  1032a4:	f004 0401 	and.w	r4, r4, #1
  1032a8:	2c00      	cmp	r4, #0
  1032aa:	d003      	beq.n	1032b4 <osKernelStart+0xac>
  1032ac:	23ff      	movs	r3, #255	; 0xff
  1032ae:	e007      	b.n	1032c0 <osKernelStart+0xb8>
  1032b0:	bf00      	nop
  1032b2:	e000      	b.n	1032b6 <osKernelStart+0xae>
  1032b4:	bf00      	nop
  1032b6:	f8df c014 	ldr.w	r12, [pc, #20]	; 1032cc <osKernelStart+0xc4>
  1032ba:	df00      	svc	0
  1032bc:	4603      	mov	r3, r0
  1032be:	bf00      	nop
  1032c0:	4618      	mov	r0, r3
  1032c2:	b00e      	add	sp, #56	; 0x38
  1032c4:	bd10      	pop	{r4, pc}
  1032c6:	bf00      	nop
  1032c8:	0010dfb4 	.word	0x0010dfb4
  1032cc:	00103151 	.word	0x00103151

001032d0 <svcThreadCreate>:
  1032d0:	b500      	push	{lr}
  1032d2:	b087      	sub	sp, #28
  1032d4:	9001      	str	r0, [sp, #4]
  1032d6:	9100      	str	r1, [sp, #0]
  1032d8:	9b01      	ldr	r3, [sp, #4]
  1032da:	2b00      	cmp	r3, #0
  1032dc:	d016      	beq.n	10330c <svcThreadCreate+0x3c>
  1032de:	9b01      	ldr	r3, [sp, #4]
  1032e0:	681b      	ldr	r3, [r3, #0]
  1032e2:	2b00      	cmp	r3, #0
  1032e4:	d012      	beq.n	10330c <svcThreadCreate+0x3c>
  1032e6:	9b01      	ldr	r3, [sp, #4]
  1032e8:	889b      	ldrh	r3, [r3, #4]
  1032ea:	b21b      	sxth	r3, r3
  1032ec:	f113 0f03 	cmn.w	r3, #3
  1032f0:	db0c      	blt.n	10330c <svcThreadCreate+0x3c>
  1032f2:	9b01      	ldr	r3, [sp, #4]
  1032f4:	889b      	ldrh	r3, [r3, #4]
  1032f6:	b21b      	sxth	r3, r3
  1032f8:	2b03      	cmp	r3, #3
  1032fa:	dc07      	bgt.n	10330c <svcThreadCreate+0x3c>
  1032fc:	9b01      	ldr	r3, [sp, #4]
  1032fe:	689b      	ldr	r3, [r3, #8]
  103300:	2b00      	cmp	r3, #0
  103302:	d003      	beq.n	10330c <svcThreadCreate+0x3c>
  103304:	9b01      	ldr	r3, [sp, #4]
  103306:	68db      	ldr	r3, [r3, #12]
  103308:	2b00      	cmp	r3, #0
  10330a:	d104      	bne.n	103316 <svcThreadCreate+0x46>
  10330c:	2080      	movs	r0, #128	; 0x80
  10330e:	f001 fcf9 	bl	104d04 <sysThreadError>
  103312:	2300      	movs	r3, #0
  103314:	e038      	b.n	103388 <svcThreadCreate+0xb8>
  103316:	9b01      	ldr	r3, [sp, #4]
  103318:	889b      	ldrh	r3, [r3, #4]
  10331a:	b2db      	uxtb	r3, r3
  10331c:	3304      	adds	r3, #4
  10331e:	f88d 3017 	strb.w	r3, [sp, #23]
  103322:	9b01      	ldr	r3, [sp, #4]
  103324:	3310      	adds	r3, #16
  103326:	9304      	str	r3, [sp, #16]
  103328:	9b01      	ldr	r3, [sp, #4]
  10332a:	68da      	ldr	r2, [r3, #12]
  10332c:	9b04      	ldr	r3, [sp, #16]
  10332e:	62da      	str	r2, [r3, #44]	; 0x2c
  103330:	9b01      	ldr	r3, [sp, #4]
  103332:	689a      	ldr	r2, [r3, #8]
  103334:	9b04      	ldr	r3, [sp, #16]
  103336:	625a      	str	r2, [r3, #36]	; 0x24
  103338:	f001 fabe 	bl	1048b8 <rt_get_TID>
  10333c:	9003      	str	r0, [sp, #12]
  10333e:	9b03      	ldr	r3, [sp, #12]
  103340:	3b01      	subs	r3, #1
  103342:	4913      	ldr	r1, [pc, #76]	; (103390 <svcThreadCreate+0xc0>)
  103344:	9a04      	ldr	r2, [sp, #16]
  103346:	f841 2023 	str.w	r2, [r1, r3, lsl #2]
  10334a:	9b03      	ldr	r3, [sp, #12]
  10334c:	b2da      	uxtb	r2, r3
  10334e:	9b04      	ldr	r3, [sp, #16]
  103350:	70da      	strb	r2, [r3, #3]
  103352:	9b04      	ldr	r3, [sp, #16]
  103354:	9a00      	ldr	r2, [sp, #0]
  103356:	61da      	str	r2, [r3, #28]
  103358:	9b01      	ldr	r3, [sp, #4]
  10335a:	681a      	ldr	r2, [r3, #0]
  10335c:	f89d 3017 	ldrb.w	r3, [sp, #23]
  103360:	4619      	mov	r1, r3
  103362:	9804      	ldr	r0, [sp, #16]
  103364:	f001 fac6 	bl	1048f4 <rt_init_context>
  103368:	9804      	ldr	r0, [sp, #16]
  10336a:	f001 fb07 	bl	10497c <rt_dispatch>
  10336e:	9b03      	ldr	r3, [sp, #12]
  103370:	3b01      	subs	r3, #1
  103372:	4a07      	ldr	r2, [pc, #28]	; (103390 <svcThreadCreate+0xc0>)
  103374:	f852 3023 	ldr.w	r3, [r2, r3, lsl #2]
  103378:	9302      	str	r3, [sp, #8]
  10337a:	9b02      	ldr	r3, [sp, #8]
  10337c:	6a9b      	ldr	r3, [r3, #40]	; 0x28
  10337e:	3334      	adds	r3, #52	; 0x34
  103380:	461a      	mov	r2, r3
  103382:	4b04      	ldr	r3, [pc, #16]	; (103394 <svcThreadCreate+0xc4>)
  103384:	6013      	str	r3, [r2, #0]
  103386:	9b02      	ldr	r3, [sp, #8]
  103388:	4618      	mov	r0, r3
  10338a:	b007      	add	sp, #28
  10338c:	f85d fb04 	ldr.w	pc, [sp], #4
  103390:	3fff516c 	.word	0x3fff516c
  103394:	00103461 	.word	0x00103461

00103398 <svcThreadGetId>:
  103398:	b500      	push	{lr}
  10339a:	b083      	sub	sp, #12
  10339c:	f001 fb50 	bl	104a40 <rt_tsk_self>
  1033a0:	9001      	str	r0, [sp, #4]
  1033a2:	9b01      	ldr	r3, [sp, #4]
  1033a4:	2b00      	cmp	r3, #0
  1033a6:	d101      	bne.n	1033ac <svcThreadGetId+0x14>
  1033a8:	2300      	movs	r3, #0
  1033aa:	e004      	b.n	1033b6 <svcThreadGetId+0x1e>
  1033ac:	9b01      	ldr	r3, [sp, #4]
  1033ae:	3b01      	subs	r3, #1
  1033b0:	4a03      	ldr	r2, [pc, #12]	; (1033c0 <svcThreadGetId+0x28>)
  1033b2:	f852 3023 	ldr.w	r3, [r2, r3, lsl #2]
  1033b6:	4618      	mov	r0, r3
  1033b8:	b003      	add	sp, #12
  1033ba:	f85d fb04 	ldr.w	pc, [sp], #4
  1033be:	bf00      	nop
  1033c0:	3fff516c 	.word	0x3fff516c

001033c4 <svcThreadTerminate>:
  1033c4:	b500      	push	{lr}
  1033c6:	b085      	sub	sp, #20
  1033c8:	9001      	str	r0, [sp, #4]
  1033ca:	9801      	ldr	r0, [sp, #4]
  1033cc:	f7ff fe7e 	bl	1030cc <rt_tid2ptcb>
  1033d0:	9003      	str	r0, [sp, #12]
  1033d2:	9b03      	ldr	r3, [sp, #12]
  1033d4:	2b00      	cmp	r3, #0
  1033d6:	d101      	bne.n	1033dc <svcThreadTerminate+0x18>
  1033d8:	2380      	movs	r3, #128	; 0x80
  1033da:	e00b      	b.n	1033f4 <svcThreadTerminate+0x30>
  1033dc:	9b03      	ldr	r3, [sp, #12]
  1033de:	78db      	ldrb	r3, [r3, #3]
  1033e0:	4618      	mov	r0, r3
  1033e2:	f001 fb9b 	bl	104b1c <rt_tsk_delete>
  1033e6:	9002      	str	r0, [sp, #8]
  1033e8:	9b02      	ldr	r3, [sp, #8]
  1033ea:	2bff      	cmp	r3, #255	; 0xff
  1033ec:	d101      	bne.n	1033f2 <svcThreadTerminate+0x2e>
  1033ee:	2381      	movs	r3, #129	; 0x81
  1033f0:	e000      	b.n	1033f4 <svcThreadTerminate+0x30>
  1033f2:	2300      	movs	r3, #0
  1033f4:	4618      	mov	r0, r3
  1033f6:	b005      	add	sp, #20
  1033f8:	f85d fb04 	ldr.w	pc, [sp], #4

001033fc <osThreadCreate>:
  1033fc:	b500      	push	{lr}
  1033fe:	b087      	sub	sp, #28
  103400:	9001      	str	r0, [sp, #4]
  103402:	9100      	str	r1, [sp, #0]
  103404:	f3ef 8105 	mrs	r1, IPSR
  103408:	9103      	str	r1, [sp, #12]
  10340a:	9903      	ldr	r1, [sp, #12]
  10340c:	2900      	cmp	r1, #0
  10340e:	d001      	beq.n	103414 <osThreadCreate+0x18>
  103410:	2300      	movs	r3, #0
  103412:	e01c      	b.n	10344e <osThreadCreate+0x52>
  103414:	f3ef 8114 	mrs	r1, CONTROL
  103418:	9105      	str	r1, [sp, #20]
  10341a:	9905      	ldr	r1, [sp, #20]
  10341c:	f001 0101 	and.w	r1, r1, #1
  103420:	2900      	cmp	r1, #0
  103422:	d109      	bne.n	103438 <osThreadCreate+0x3c>
  103424:	490c      	ldr	r1, [pc, #48]	; (103458 <osThreadCreate+0x5c>)
  103426:	7809      	ldrb	r1, [r1, #0]
  103428:	2900      	cmp	r1, #0
  10342a:	d105      	bne.n	103438 <osThreadCreate+0x3c>
  10342c:	9900      	ldr	r1, [sp, #0]
  10342e:	9801      	ldr	r0, [sp, #4]
  103430:	f7ff ff4e 	bl	1032d0 <svcThreadCreate>
  103434:	4603      	mov	r3, r0
  103436:	e00a      	b.n	10344e <osThreadCreate+0x52>
  103438:	9901      	ldr	r1, [sp, #4]
  10343a:	9104      	str	r1, [sp, #16]
  10343c:	9900      	ldr	r1, [sp, #0]
  10343e:	9102      	str	r1, [sp, #8]
  103440:	9804      	ldr	r0, [sp, #16]
  103442:	9902      	ldr	r1, [sp, #8]
  103444:	f8df c014 	ldr.w	r12, [pc, #20]	; 10345c <osThreadCreate+0x60>
  103448:	df00      	svc	0
  10344a:	4603      	mov	r3, r0
  10344c:	bf00      	nop
  10344e:	4618      	mov	r0, r3
  103450:	b007      	add	sp, #28
  103452:	f85d fb04 	ldr.w	pc, [sp], #4
  103456:	bf00      	nop
  103458:	3fff4845 	.word	0x3fff4845
  10345c:	001032d1 	.word	0x001032d1

00103460 <osThreadExit>:
  103460:	b500      	push	{lr}
  103462:	b083      	sub	sp, #12
  103464:	f8df c010 	ldr.w	r12, [pc, #16]	; 103478 <osThreadExit+0x18>
  103468:	df00      	svc	0
  10346a:	9001      	str	r0, [sp, #4]
  10346c:	9801      	ldr	r0, [sp, #4]
  10346e:	f8df c00c 	ldr.w	r12, [pc, #12]	; 10347c <osThreadExit+0x1c>
  103472:	df00      	svc	0
  103474:	e7fe      	b.n	103474 <osThreadExit+0x14>
  103476:	0000      	.short	0x0000
  103478:	00103399 	.word	0x00103399
  10347c:	001033c5 	.word	0x001033c5

00103480 <rt_timer_insert>:
  103480:	b084      	sub	sp, #16
  103482:	9001      	str	r0, [sp, #4]
  103484:	9100      	str	r1, [sp, #0]
  103486:	2300      	movs	r3, #0
  103488:	9302      	str	r3, [sp, #8]
  10348a:	4b1c      	ldr	r3, [pc, #112]	; (1034fc <rt_timer_insert+0x7c>)
  10348c:	681b      	ldr	r3, [r3, #0]
  10348e:	9303      	str	r3, [sp, #12]
  103490:	e010      	b.n	1034b4 <rt_timer_insert+0x34>
  103492:	9b03      	ldr	r3, [sp, #12]
  103494:	891b      	ldrh	r3, [r3, #8]
  103496:	461a      	mov	r2, r3
  103498:	9b00      	ldr	r3, [sp, #0]
  10349a:	429a      	cmp	r2, r3
  10349c:	d80e      	bhi.n	1034bc <rt_timer_insert+0x3c>
  10349e:	9b03      	ldr	r3, [sp, #12]
  1034a0:	891b      	ldrh	r3, [r3, #8]
  1034a2:	461a      	mov	r2, r3
  1034a4:	9b00      	ldr	r3, [sp, #0]
  1034a6:	1a9b      	subs	r3, r3, r2
  1034a8:	9300      	str	r3, [sp, #0]
  1034aa:	9b03      	ldr	r3, [sp, #12]
  1034ac:	9302      	str	r3, [sp, #8]
  1034ae:	9b03      	ldr	r3, [sp, #12]
  1034b0:	681b      	ldr	r3, [r3, #0]
  1034b2:	9303      	str	r3, [sp, #12]
  1034b4:	9b03      	ldr	r3, [sp, #12]
  1034b6:	2b00      	cmp	r3, #0
  1034b8:	d1eb      	bne.n	103492 <rt_timer_insert+0x12>
  1034ba:	e000      	b.n	1034be <rt_timer_insert+0x3e>
  1034bc:	bf00      	nop
  1034be:	9b01      	ldr	r3, [sp, #4]
  1034c0:	9a03      	ldr	r2, [sp, #12]
  1034c2:	601a      	str	r2, [r3, #0]
  1034c4:	9b00      	ldr	r3, [sp, #0]
  1034c6:	b29a      	uxth	r2, r3
  1034c8:	9b01      	ldr	r3, [sp, #4]
  1034ca:	811a      	strh	r2, [r3, #8]
  1034cc:	9b03      	ldr	r3, [sp, #12]
  1034ce:	2b00      	cmp	r3, #0
  1034d0:	d007      	beq.n	1034e2 <rt_timer_insert+0x62>
  1034d2:	9b03      	ldr	r3, [sp, #12]
  1034d4:	891a      	ldrh	r2, [r3, #8]
  1034d6:	9b01      	ldr	r3, [sp, #4]
  1034d8:	891b      	ldrh	r3, [r3, #8]
  1034da:	1ad3      	subs	r3, r2, r3
  1034dc:	b29a      	uxth	r2, r3
  1034de:	9b03      	ldr	r3, [sp, #12]
  1034e0:	811a      	strh	r2, [r3, #8]
  1034e2:	9b02      	ldr	r3, [sp, #8]
  1034e4:	2b00      	cmp	r3, #0
  1034e6:	d003      	beq.n	1034f0 <rt_timer_insert+0x70>
  1034e8:	9b02      	ldr	r3, [sp, #8]
  1034ea:	9a01      	ldr	r2, [sp, #4]
  1034ec:	601a      	str	r2, [r3, #0]
  1034ee:	e002      	b.n	1034f6 <rt_timer_insert+0x76>
  1034f0:	4a02      	ldr	r2, [pc, #8]	; (1034fc <rt_timer_insert+0x7c>)
  1034f2:	9b01      	ldr	r3, [sp, #4]
  1034f4:	6013      	str	r3, [r2, #0]
  1034f6:	bf00      	nop
  1034f8:	b004      	add	sp, #16
  1034fa:	4770      	bx	lr
  1034fc:	3fff4848 	.word	0x3fff4848

00103500 <svcTimerCall>:
  103500:	b510      	push	{r4, lr}
  103502:	b086      	sub	sp, #24
  103504:	9001      	str	r0, [sp, #4]
  103506:	9801      	ldr	r0, [sp, #4]
  103508:	f7ff fdfa 	bl	103100 <rt_id2obj>
  10350c:	9005      	str	r0, [sp, #20]
  10350e:	9b05      	ldr	r3, [sp, #20]
  103510:	2b00      	cmp	r3, #0
  103512:	d10e      	bne.n	103532 <svcTimerCall+0x32>
  103514:	2300      	movs	r3, #0
  103516:	9303      	str	r3, [sp, #12]
  103518:	2300      	movs	r3, #0
  10351a:	9304      	str	r3, [sp, #16]
  10351c:	9b03      	ldr	r3, [sp, #12]
  10351e:	4619      	mov	r1, r3
  103520:	9b04      	ldr	r3, [sp, #16]
  103522:	461a      	mov	r2, r3
  103524:	f04f 0300 	mov.w	r3, #0
  103528:	f04f 0400 	mov.w	r4, #0
  10352c:	460b      	mov	r3, r1
  10352e:	4614      	mov	r4, r2
  103530:	e010      	b.n	103554 <svcTimerCall+0x54>
  103532:	9b05      	ldr	r3, [sp, #20]
  103534:	691b      	ldr	r3, [r3, #16]
  103536:	681b      	ldr	r3, [r3, #0]
  103538:	9303      	str	r3, [sp, #12]
  10353a:	9b05      	ldr	r3, [sp, #20]
  10353c:	68db      	ldr	r3, [r3, #12]
  10353e:	9304      	str	r3, [sp, #16]
  103540:	9b03      	ldr	r3, [sp, #12]
  103542:	4619      	mov	r1, r3
  103544:	9b04      	ldr	r3, [sp, #16]
  103546:	461a      	mov	r2, r3
  103548:	f04f 0300 	mov.w	r3, #0
  10354c:	f04f 0400 	mov.w	r4, #0
  103550:	460b      	mov	r3, r1
  103552:	4614      	mov	r4, r2
  103554:	4618      	mov	r0, r3
  103556:	4621      	mov	r1, r4
  103558:	b006      	add	sp, #24
  10355a:	bd10      	pop	{r4, pc}

0010355c <sysTimerTick>:
  10355c:	b500      	push	{lr}
  10355e:	b083      	sub	sp, #12
  103560:	4b1a      	ldr	r3, [pc, #104]	; (1035cc <sysTimerTick+0x70>)
  103562:	681b      	ldr	r3, [r3, #0]
  103564:	9301      	str	r3, [sp, #4]
  103566:	9b01      	ldr	r3, [sp, #4]
  103568:	2b00      	cmp	r3, #0
  10356a:	d02b      	beq.n	1035c4 <sysTimerTick+0x68>
  10356c:	9b01      	ldr	r3, [sp, #4]
  10356e:	891b      	ldrh	r3, [r3, #8]
  103570:	3b01      	subs	r3, #1
  103572:	b29a      	uxth	r2, r3
  103574:	9b01      	ldr	r3, [sp, #4]
  103576:	811a      	strh	r2, [r3, #8]
  103578:	e01c      	b.n	1035b4 <sysTimerTick+0x58>
  10357a:	9b01      	ldr	r3, [sp, #4]
  10357c:	9300      	str	r3, [sp, #0]
  10357e:	9b01      	ldr	r3, [sp, #4]
  103580:	681b      	ldr	r3, [r3, #0]
  103582:	9301      	str	r3, [sp, #4]
  103584:	4a11      	ldr	r2, [pc, #68]	; (1035cc <sysTimerTick+0x70>)
  103586:	9b01      	ldr	r3, [sp, #4]
  103588:	6013      	str	r3, [r2, #0]
  10358a:	4b11      	ldr	r3, [pc, #68]	; (1035d0 <sysTimerTick+0x74>)
  10358c:	681b      	ldr	r3, [r3, #0]
  10358e:	9900      	ldr	r1, [sp, #0]
  103590:	2200      	movs	r2, #0
  103592:	4618      	mov	r0, r3
  103594:	f000 f9f2 	bl	10397c <isrMessagePut>
  103598:	9b00      	ldr	r3, [sp, #0]
  10359a:	795b      	ldrb	r3, [r3, #5]
  10359c:	2b01      	cmp	r3, #1
  10359e:	d106      	bne.n	1035ae <sysTimerTick+0x52>
  1035a0:	9b00      	ldr	r3, [sp, #0]
  1035a2:	895b      	ldrh	r3, [r3, #10]
  1035a4:	4619      	mov	r1, r3
  1035a6:	9800      	ldr	r0, [sp, #0]
  1035a8:	f7ff ff6a 	bl	103480 <rt_timer_insert>
  1035ac:	e002      	b.n	1035b4 <sysTimerTick+0x58>
  1035ae:	9b00      	ldr	r3, [sp, #0]
  1035b0:	2201      	movs	r2, #1
  1035b2:	711a      	strb	r2, [r3, #4]
  1035b4:	9b01      	ldr	r3, [sp, #4]
  1035b6:	2b00      	cmp	r3, #0
  1035b8:	d005      	beq.n	1035c6 <sysTimerTick+0x6a>
  1035ba:	9b01      	ldr	r3, [sp, #4]
  1035bc:	891b      	ldrh	r3, [r3, #8]
  1035be:	2b00      	cmp	r3, #0
  1035c0:	d0db      	beq.n	10357a <sysTimerTick+0x1e>
  1035c2:	e000      	b.n	1035c6 <sysTimerTick+0x6a>
  1035c4:	bf00      	nop
  1035c6:	b003      	add	sp, #12
  1035c8:	f85d fb04 	ldr.w	pc, [sp], #4
  1035cc:	3fff4848 	.word	0x3fff4848
  1035d0:	3fff4948 	.word	0x3fff4948

001035d4 <osTimerCall>:
  1035d4:	b500      	push	{lr}
  1035d6:	b085      	sub	sp, #20
  1035d8:	9001      	str	r0, [sp, #4]
  1035da:	9100      	str	r1, [sp, #0]
  1035dc:	9800      	ldr	r0, [sp, #0]
  1035de:	9003      	str	r0, [sp, #12]
  1035e0:	9803      	ldr	r0, [sp, #12]
  1035e2:	f8df c01c 	ldr.w	r12, [pc, #28]	; 103600 <osTimerCall+0x2c>
  1035e6:	df00      	svc	0
  1035e8:	460b      	mov	r3, r1
  1035ea:	461a      	mov	r2, r3
  1035ec:	9b01      	ldr	r3, [sp, #4]
  1035ee:	6018      	str	r0, [r3, #0]
  1035f0:	9b01      	ldr	r3, [sp, #4]
  1035f2:	605a      	str	r2, [r3, #4]
  1035f4:	bf00      	nop
  1035f6:	9801      	ldr	r0, [sp, #4]
  1035f8:	b005      	add	sp, #20
  1035fa:	f85d fb04 	ldr.w	pc, [sp], #4
  1035fe:	0000      	.short	0x0000
  103600:	00103501 	.word	0x00103501

00103604 <osTimerThread>:
  103604:	b500      	push	{lr}
  103606:	b089      	sub	sp, #36	; 0x24
  103608:	9001      	str	r0, [sp, #4]
  10360a:	4b0c      	ldr	r3, [pc, #48]	; (10363c <osTimerThread+0x38>)
  10360c:	6819      	ldr	r1, [r3, #0]
  10360e:	ab03      	add	r3, sp, #12
  103610:	f04f 32ff 	mov.w	r2, #4294967295
  103614:	4618      	mov	r0, r3
  103616:	f000 fa1b 	bl	103a50 <osMessageGet>
  10361a:	9b03      	ldr	r3, [sp, #12]
  10361c:	2b10      	cmp	r3, #16
  10361e:	d1f4      	bne.n	10360a <osTimerThread+0x6>
  103620:	9a04      	ldr	r2, [sp, #16]
  103622:	ab06      	add	r3, sp, #24
  103624:	4611      	mov	r1, r2
  103626:	4618      	mov	r0, r3
  103628:	f7ff ffd4 	bl	1035d4 <osTimerCall>
  10362c:	9b06      	ldr	r3, [sp, #24]
  10362e:	2b00      	cmp	r3, #0
  103630:	d0eb      	beq.n	10360a <osTimerThread+0x6>
  103632:	9b06      	ldr	r3, [sp, #24]
  103634:	9a07      	ldr	r2, [sp, #28]
  103636:	4610      	mov	r0, r2
  103638:	4798      	blx	r3
  10363a:	e7e6      	b.n	10360a <osTimerThread+0x6>
  10363c:	3fff4948 	.word	0x3fff4948

00103640 <svcMutexCreate>:
  103640:	b500      	push	{lr}
  103642:	b085      	sub	sp, #20
  103644:	9001      	str	r0, [sp, #4]
  103646:	9b01      	ldr	r3, [sp, #4]
  103648:	2b00      	cmp	r3, #0
  10364a:	d104      	bne.n	103656 <svcMutexCreate+0x16>
  10364c:	2080      	movs	r0, #128	; 0x80
  10364e:	f001 fb59 	bl	104d04 <sysThreadError>
  103652:	2300      	movs	r3, #0
  103654:	e017      	b.n	103686 <svcMutexCreate+0x46>
  103656:	9b01      	ldr	r3, [sp, #4]
  103658:	681b      	ldr	r3, [r3, #0]
  10365a:	9303      	str	r3, [sp, #12]
  10365c:	9b03      	ldr	r3, [sp, #12]
  10365e:	2b00      	cmp	r3, #0
  103660:	d104      	bne.n	10366c <svcMutexCreate+0x2c>
  103662:	2080      	movs	r0, #128	; 0x80
  103664:	f001 fb4e 	bl	104d04 <sysThreadError>
  103668:	2300      	movs	r3, #0
  10366a:	e00c      	b.n	103686 <svcMutexCreate+0x46>
  10366c:	9b03      	ldr	r3, [sp, #12]
  10366e:	781b      	ldrb	r3, [r3, #0]
  103670:	2b00      	cmp	r3, #0
  103672:	d004      	beq.n	10367e <svcMutexCreate+0x3e>
  103674:	2080      	movs	r0, #128	; 0x80
  103676:	f001 fb45 	bl	104d04 <sysThreadError>
  10367a:	2300      	movs	r3, #0
  10367c:	e003      	b.n	103686 <svcMutexCreate+0x46>
  10367e:	9803      	ldr	r0, [sp, #12]
  103680:	f000 fe8a 	bl	104398 <rt_mut_init>
  103684:	9b03      	ldr	r3, [sp, #12]
  103686:	4618      	mov	r0, r3
  103688:	b005      	add	sp, #20
  10368a:	f85d fb04 	ldr.w	pc, [sp], #4
  10368e:	bf00      	nop

00103690 <svcMutexWait>:
  103690:	b500      	push	{lr}
  103692:	b085      	sub	sp, #20
  103694:	9001      	str	r0, [sp, #4]
  103696:	9100      	str	r1, [sp, #0]
  103698:	9801      	ldr	r0, [sp, #4]
  10369a:	f7ff fd31 	bl	103100 <rt_id2obj>
  10369e:	9003      	str	r0, [sp, #12]
  1036a0:	9b03      	ldr	r3, [sp, #12]
  1036a2:	2b00      	cmp	r3, #0
  1036a4:	d101      	bne.n	1036aa <svcMutexWait+0x1a>
  1036a6:	2380      	movs	r3, #128	; 0x80
  1036a8:	e01a      	b.n	1036e0 <svcMutexWait+0x50>
  1036aa:	9b03      	ldr	r3, [sp, #12]
  1036ac:	781b      	ldrb	r3, [r3, #0]
  1036ae:	2b03      	cmp	r3, #3
  1036b0:	d001      	beq.n	1036b6 <svcMutexWait+0x26>
  1036b2:	2380      	movs	r3, #128	; 0x80
  1036b4:	e014      	b.n	1036e0 <svcMutexWait+0x50>
  1036b6:	9800      	ldr	r0, [sp, #0]
  1036b8:	f7ff fcda 	bl	103070 <rt_ms2tick>
  1036bc:	4603      	mov	r3, r0
  1036be:	b29b      	uxth	r3, r3
  1036c0:	4619      	mov	r1, r3
  1036c2:	9803      	ldr	r0, [sp, #12]
  1036c4:	f000 ff4e 	bl	104564 <rt_mut_wait>
  1036c8:	9002      	str	r0, [sp, #8]
  1036ca:	9b02      	ldr	r3, [sp, #8]
  1036cc:	2b01      	cmp	r3, #1
  1036ce:	d106      	bne.n	1036de <svcMutexWait+0x4e>
  1036d0:	9b00      	ldr	r3, [sp, #0]
  1036d2:	2b00      	cmp	r3, #0
  1036d4:	d001      	beq.n	1036da <svcMutexWait+0x4a>
  1036d6:	23c1      	movs	r3, #193	; 0xc1
  1036d8:	e002      	b.n	1036e0 <svcMutexWait+0x50>
  1036da:	2381      	movs	r3, #129	; 0x81
  1036dc:	e000      	b.n	1036e0 <svcMutexWait+0x50>
  1036de:	2300      	movs	r3, #0
  1036e0:	4618      	mov	r0, r3
  1036e2:	b005      	add	sp, #20
  1036e4:	f85d fb04 	ldr.w	pc, [sp], #4

001036e8 <svcMutexRelease>:
  1036e8:	b500      	push	{lr}
  1036ea:	b085      	sub	sp, #20
  1036ec:	9001      	str	r0, [sp, #4]
  1036ee:	9801      	ldr	r0, [sp, #4]
  1036f0:	f7ff fd06 	bl	103100 <rt_id2obj>
  1036f4:	9003      	str	r0, [sp, #12]
  1036f6:	9b03      	ldr	r3, [sp, #12]
  1036f8:	2b00      	cmp	r3, #0
  1036fa:	d101      	bne.n	103700 <svcMutexRelease+0x18>
  1036fc:	2380      	movs	r3, #128	; 0x80
  1036fe:	e00f      	b.n	103720 <svcMutexRelease+0x38>
  103700:	9b03      	ldr	r3, [sp, #12]
  103702:	781b      	ldrb	r3, [r3, #0]
  103704:	2b03      	cmp	r3, #3
  103706:	d001      	beq.n	10370c <svcMutexRelease+0x24>
  103708:	2380      	movs	r3, #128	; 0x80
  10370a:	e009      	b.n	103720 <svcMutexRelease+0x38>
  10370c:	9803      	ldr	r0, [sp, #12]
  10370e:	f000 feaf 	bl	104470 <rt_mut_release>
  103712:	9002      	str	r0, [sp, #8]
  103714:	9b02      	ldr	r3, [sp, #8]
  103716:	2bff      	cmp	r3, #255	; 0xff
  103718:	d101      	bne.n	10371e <svcMutexRelease+0x36>
  10371a:	2381      	movs	r3, #129	; 0x81
  10371c:	e000      	b.n	103720 <svcMutexRelease+0x38>
  10371e:	2300      	movs	r3, #0
  103720:	4618      	mov	r0, r3
  103722:	b005      	add	sp, #20
  103724:	f85d fb04 	ldr.w	pc, [sp], #4

00103728 <svcMutexDelete>:
  103728:	b500      	push	{lr}
  10372a:	b085      	sub	sp, #20
  10372c:	9001      	str	r0, [sp, #4]
  10372e:	9801      	ldr	r0, [sp, #4]
  103730:	f7ff fce6 	bl	103100 <rt_id2obj>
  103734:	9003      	str	r0, [sp, #12]
  103736:	9b03      	ldr	r3, [sp, #12]
  103738:	2b00      	cmp	r3, #0
  10373a:	d101      	bne.n	103740 <svcMutexDelete+0x18>
  10373c:	2380      	movs	r3, #128	; 0x80
  10373e:	e009      	b.n	103754 <svcMutexDelete+0x2c>
  103740:	9b03      	ldr	r3, [sp, #12]
  103742:	781b      	ldrb	r3, [r3, #0]
  103744:	2b03      	cmp	r3, #3
  103746:	d001      	beq.n	10374c <svcMutexDelete+0x24>
  103748:	2380      	movs	r3, #128	; 0x80
  10374a:	e003      	b.n	103754 <svcMutexDelete+0x2c>
  10374c:	9803      	ldr	r0, [sp, #12]
  10374e:	f000 fe39 	bl	1043c4 <rt_mut_delete>
  103752:	2300      	movs	r3, #0
  103754:	4618      	mov	r0, r3
  103756:	b005      	add	sp, #20
  103758:	f85d fb04 	ldr.w	pc, [sp], #4

0010375c <osMutexCreate>:
  10375c:	b500      	push	{lr}
  10375e:	b087      	sub	sp, #28
  103760:	9001      	str	r0, [sp, #4]
  103762:	f3ef 8005 	mrs	r0, IPSR
  103766:	9003      	str	r0, [sp, #12]
  103768:	9803      	ldr	r0, [sp, #12]
  10376a:	2800      	cmp	r0, #0
  10376c:	d001      	beq.n	103772 <osMutexCreate+0x16>
  10376e:	2300      	movs	r3, #0
  103770:	e018      	b.n	1037a4 <osMutexCreate+0x48>
  103772:	f3ef 8014 	mrs	r0, CONTROL
  103776:	9005      	str	r0, [sp, #20]
  103778:	9805      	ldr	r0, [sp, #20]
  10377a:	f000 0001 	and.w	r0, r0, #1
  10377e:	2800      	cmp	r0, #0
  103780:	d108      	bne.n	103794 <osMutexCreate+0x38>
  103782:	480a      	ldr	r0, [pc, #40]	; (1037ac <osMutexCreate+0x50>)
  103784:	7800      	ldrb	r0, [r0, #0]
  103786:	2800      	cmp	r0, #0
  103788:	d104      	bne.n	103794 <osMutexCreate+0x38>
  10378a:	9801      	ldr	r0, [sp, #4]
  10378c:	f7ff ff58 	bl	103640 <svcMutexCreate>
  103790:	4603      	mov	r3, r0
  103792:	e007      	b.n	1037a4 <osMutexCreate+0x48>
  103794:	9801      	ldr	r0, [sp, #4]
  103796:	9004      	str	r0, [sp, #16]
  103798:	9804      	ldr	r0, [sp, #16]
  10379a:	f8df c014 	ldr.w	r12, [pc, #20]	; 1037b0 <osMutexCreate+0x54>
  10379e:	df00      	svc	0
  1037a0:	4603      	mov	r3, r0
  1037a2:	bf00      	nop
  1037a4:	4618      	mov	r0, r3
  1037a6:	b007      	add	sp, #28
  1037a8:	f85d fb04 	ldr.w	pc, [sp], #4
  1037ac:	3fff4845 	.word	0x3fff4845
  1037b0:	00103641 	.word	0x00103641

001037b4 <osMutexWait>:
  1037b4:	b500      	push	{lr}
  1037b6:	b087      	sub	sp, #28
  1037b8:	9001      	str	r0, [sp, #4]
  1037ba:	9100      	str	r1, [sp, #0]
  1037bc:	f3ef 8105 	mrs	r1, IPSR
  1037c0:	9104      	str	r1, [sp, #16]
  1037c2:	9904      	ldr	r1, [sp, #16]
  1037c4:	2900      	cmp	r1, #0
  1037c6:	d001      	beq.n	1037cc <osMutexWait+0x18>
  1037c8:	2382      	movs	r3, #130	; 0x82
  1037ca:	e00a      	b.n	1037e2 <osMutexWait+0x2e>
  1037cc:	9901      	ldr	r1, [sp, #4]
  1037ce:	9105      	str	r1, [sp, #20]
  1037d0:	9900      	ldr	r1, [sp, #0]
  1037d2:	9103      	str	r1, [sp, #12]
  1037d4:	9805      	ldr	r0, [sp, #20]
  1037d6:	9903      	ldr	r1, [sp, #12]
  1037d8:	f8df c010 	ldr.w	r12, [pc, #16]	; 1037ec <osMutexWait+0x38>
  1037dc:	df00      	svc	0
  1037de:	4603      	mov	r3, r0
  1037e0:	bf00      	nop
  1037e2:	4618      	mov	r0, r3
  1037e4:	b007      	add	sp, #28
  1037e6:	f85d fb04 	ldr.w	pc, [sp], #4
  1037ea:	0000      	.short	0x0000
  1037ec:	00103691 	.word	0x00103691

001037f0 <osMutexRelease>:
  1037f0:	b500      	push	{lr}
  1037f2:	b085      	sub	sp, #20
  1037f4:	9001      	str	r0, [sp, #4]
  1037f6:	f3ef 8005 	mrs	r0, IPSR
  1037fa:	9002      	str	r0, [sp, #8]
  1037fc:	9802      	ldr	r0, [sp, #8]
  1037fe:	2800      	cmp	r0, #0
  103800:	d001      	beq.n	103806 <osMutexRelease+0x16>
  103802:	2382      	movs	r3, #130	; 0x82
  103804:	e007      	b.n	103816 <osMutexRelease+0x26>
  103806:	9801      	ldr	r0, [sp, #4]
  103808:	9003      	str	r0, [sp, #12]
  10380a:	9803      	ldr	r0, [sp, #12]
  10380c:	f8df c010 	ldr.w	r12, [pc, #16]	; 103820 <osMutexRelease+0x30>
  103810:	df00      	svc	0
  103812:	4603      	mov	r3, r0
  103814:	bf00      	nop
  103816:	4618      	mov	r0, r3
  103818:	b005      	add	sp, #20
  10381a:	f85d fb04 	ldr.w	pc, [sp], #4
  10381e:	0000      	.short	0x0000
  103820:	001036e9 	.word	0x001036e9

00103824 <osMutexDelete>:
  103824:	b500      	push	{lr}
  103826:	b085      	sub	sp, #20
  103828:	9001      	str	r0, [sp, #4]
  10382a:	f3ef 8005 	mrs	r0, IPSR
  10382e:	9002      	str	r0, [sp, #8]
  103830:	9802      	ldr	r0, [sp, #8]
  103832:	2800      	cmp	r0, #0
  103834:	d001      	beq.n	10383a <osMutexDelete+0x16>
  103836:	2382      	movs	r3, #130	; 0x82
  103838:	e007      	b.n	10384a <osMutexDelete+0x26>
  10383a:	9801      	ldr	r0, [sp, #4]
  10383c:	9003      	str	r0, [sp, #12]
  10383e:	9803      	ldr	r0, [sp, #12]
  103840:	f8df c010 	ldr.w	r12, [pc, #16]	; 103854 <osMutexDelete+0x30>
  103844:	df00      	svc	0
  103846:	4603      	mov	r3, r0
  103848:	bf00      	nop
  10384a:	4618      	mov	r0, r3
  10384c:	b005      	add	sp, #20
  10384e:	f85d fb04 	ldr.w	pc, [sp], #4
  103852:	0000      	.short	0x0000
  103854:	00103729 	.word	0x00103729

00103858 <svcMessageCreate>:
  103858:	b500      	push	{lr}
  10385a:	b083      	sub	sp, #12
  10385c:	9001      	str	r0, [sp, #4]
  10385e:	9100      	str	r1, [sp, #0]
  103860:	9b01      	ldr	r3, [sp, #4]
  103862:	2b00      	cmp	r3, #0
  103864:	d007      	beq.n	103876 <svcMessageCreate+0x1e>
  103866:	9b01      	ldr	r3, [sp, #4]
  103868:	681b      	ldr	r3, [r3, #0]
  10386a:	2b00      	cmp	r3, #0
  10386c:	d003      	beq.n	103876 <svcMessageCreate+0x1e>
  10386e:	9b01      	ldr	r3, [sp, #4]
  103870:	685b      	ldr	r3, [r3, #4]
  103872:	2b00      	cmp	r3, #0
  103874:	d104      	bne.n	103880 <svcMessageCreate+0x28>
  103876:	2080      	movs	r0, #128	; 0x80
  103878:	f001 fa44 	bl	104d04 <sysThreadError>
  10387c:	2300      	movs	r3, #0
  10387e:	e017      	b.n	1038b0 <svcMessageCreate+0x58>
  103880:	9b01      	ldr	r3, [sp, #4]
  103882:	685b      	ldr	r3, [r3, #4]
  103884:	781b      	ldrb	r3, [r3, #0]
  103886:	2b00      	cmp	r3, #0
  103888:	d004      	beq.n	103894 <svcMessageCreate+0x3c>
  10388a:	2080      	movs	r0, #128	; 0x80
  10388c:	f001 fa3a 	bl	104d04 <sysThreadError>
  103890:	2300      	movs	r3, #0
  103892:	e00d      	b.n	1038b0 <svcMessageCreate+0x58>
  103894:	9b01      	ldr	r3, [sp, #4]
  103896:	685a      	ldr	r2, [r3, #4]
  103898:	9b01      	ldr	r3, [sp, #4]
  10389a:	681b      	ldr	r3, [r3, #0]
  10389c:	3304      	adds	r3, #4
  10389e:	b29b      	uxth	r3, r3
  1038a0:	009b      	lsls	r3, r3, #2
  1038a2:	b29b      	uxth	r3, r3
  1038a4:	4619      	mov	r1, r3
  1038a6:	4610      	mov	r0, r2
  1038a8:	f000 fb74 	bl	103f94 <rt_mbx_init>
  1038ac:	9b01      	ldr	r3, [sp, #4]
  1038ae:	685b      	ldr	r3, [r3, #4]
  1038b0:	4618      	mov	r0, r3
  1038b2:	b003      	add	sp, #12
  1038b4:	f85d fb04 	ldr.w	pc, [sp], #4

001038b8 <svcMessageGet>:
  1038b8:	e92d 47f0 	stmdb	sp!, {r4, r5, r6, r7, r8, r9, r10, lr}
  1038bc:	b086      	sub	sp, #24
  1038be:	9001      	str	r0, [sp, #4]
  1038c0:	9100      	str	r1, [sp, #0]
  1038c2:	9b01      	ldr	r3, [sp, #4]
  1038c4:	2b00      	cmp	r3, #0
  1038c6:	d10c      	bne.n	1038e2 <svcMessageGet+0x2a>
  1038c8:	2380      	movs	r3, #128	; 0x80
  1038ca:	9302      	str	r3, [sp, #8]
  1038cc:	9a02      	ldr	r2, [sp, #8]
  1038ce:	2300      	movs	r3, #0
  1038d0:	2400      	movs	r4, #0
  1038d2:	2500      	movs	r5, #0
  1038d4:	2600      	movs	r6, #0
  1038d6:	4613      	mov	r3, r2
  1038d8:	461f      	mov	r7, r3
  1038da:	46a0      	mov	r8, r4
  1038dc:	46a9      	mov	r9, r5
  1038de:	46b2      	mov	r10, r6
  1038e0:	e041      	b.n	103966 <svcMessageGet+0xae>
  1038e2:	9b01      	ldr	r3, [sp, #4]
  1038e4:	781b      	ldrb	r3, [r3, #0]
  1038e6:	2b01      	cmp	r3, #1
  1038e8:	d00c      	beq.n	103904 <svcMessageGet+0x4c>
  1038ea:	2380      	movs	r3, #128	; 0x80
  1038ec:	9302      	str	r3, [sp, #8]
  1038ee:	9a02      	ldr	r2, [sp, #8]
  1038f0:	2300      	movs	r3, #0
  1038f2:	2400      	movs	r4, #0
  1038f4:	2500      	movs	r5, #0
  1038f6:	2600      	movs	r6, #0
  1038f8:	4613      	mov	r3, r2
  1038fa:	461f      	mov	r7, r3
  1038fc:	46a0      	mov	r8, r4
  1038fe:	46a9      	mov	r9, r5
  103900:	46b2      	mov	r10, r6
  103902:	e030      	b.n	103966 <svcMessageGet+0xae>
  103904:	9800      	ldr	r0, [sp, #0]
  103906:	f7ff fbb3 	bl	103070 <rt_ms2tick>
  10390a:	4603      	mov	r3, r0
  10390c:	b29a      	uxth	r2, r3
  10390e:	ab02      	add	r3, sp, #8
  103910:	3304      	adds	r3, #4
  103912:	4619      	mov	r1, r3
  103914:	9801      	ldr	r0, [sp, #4]
  103916:	f000 fb63 	bl	103fe0 <rt_mbx_wait>
  10391a:	9005      	str	r0, [sp, #20]
  10391c:	9b05      	ldr	r3, [sp, #20]
  10391e:	2b01      	cmp	r3, #1
  103920:	d113      	bne.n	10394a <svcMessageGet+0x92>
  103922:	9b00      	ldr	r3, [sp, #0]
  103924:	2b00      	cmp	r3, #0
  103926:	d001      	beq.n	10392c <svcMessageGet+0x74>
  103928:	2340      	movs	r3, #64	; 0x40
  10392a:	e000      	b.n	10392e <svcMessageGet+0x76>
  10392c:	2300      	movs	r3, #0
  10392e:	9302      	str	r3, [sp, #8]
  103930:	9902      	ldr	r1, [sp, #8]
  103932:	9a03      	ldr	r2, [sp, #12]
  103934:	2300      	movs	r3, #0
  103936:	2400      	movs	r4, #0
  103938:	2500      	movs	r5, #0
  10393a:	2600      	movs	r6, #0
  10393c:	460b      	mov	r3, r1
  10393e:	4614      	mov	r4, r2
  103940:	461f      	mov	r7, r3
  103942:	46a0      	mov	r8, r4
  103944:	46a9      	mov	r9, r5
  103946:	46b2      	mov	r10, r6
  103948:	e00d      	b.n	103966 <svcMessageGet+0xae>
  10394a:	2310      	movs	r3, #16
  10394c:	9302      	str	r3, [sp, #8]
  10394e:	9902      	ldr	r1, [sp, #8]
  103950:	9a03      	ldr	r2, [sp, #12]
  103952:	2300      	movs	r3, #0
  103954:	2400      	movs	r4, #0
  103956:	2500      	movs	r5, #0
  103958:	2600      	movs	r6, #0
  10395a:	460b      	mov	r3, r1
  10395c:	4614      	mov	r4, r2
  10395e:	461f      	mov	r7, r3
  103960:	46a0      	mov	r8, r4
  103962:	46a9      	mov	r9, r5
  103964:	46b2      	mov	r10, r6
  103966:	463b      	mov	r3, r7
  103968:	4644      	mov	r4, r8
  10396a:	464d      	mov	r5, r9
  10396c:	4656      	mov	r6, r10
  10396e:	4618      	mov	r0, r3
  103970:	4621      	mov	r1, r4
  103972:	462a      	mov	r2, r5
  103974:	4633      	mov	r3, r6
  103976:	b006      	add	sp, #24
  103978:	e8bd 87f0 	ldmia.w	sp!, {r4, r5, r6, r7, r8, r9, r10, pc}

0010397c <isrMessagePut>:
  10397c:	b500      	push	{lr}
  10397e:	b085      	sub	sp, #20
  103980:	9003      	str	r0, [sp, #12]
  103982:	9102      	str	r1, [sp, #8]
  103984:	9201      	str	r2, [sp, #4]
  103986:	9b03      	ldr	r3, [sp, #12]
  103988:	2b00      	cmp	r3, #0
  10398a:	d002      	beq.n	103992 <isrMessagePut+0x16>
  10398c:	9b01      	ldr	r3, [sp, #4]
  10398e:	2b00      	cmp	r3, #0
  103990:	d001      	beq.n	103996 <isrMessagePut+0x1a>
  103992:	2380      	movs	r3, #128	; 0x80
  103994:	e013      	b.n	1039be <isrMessagePut+0x42>
  103996:	9b03      	ldr	r3, [sp, #12]
  103998:	781b      	ldrb	r3, [r3, #0]
  10399a:	2b01      	cmp	r3, #1
  10399c:	d001      	beq.n	1039a2 <isrMessagePut+0x26>
  10399e:	2380      	movs	r3, #128	; 0x80
  1039a0:	e00d      	b.n	1039be <isrMessagePut+0x42>
  1039a2:	9803      	ldr	r0, [sp, #12]
  1039a4:	f000 fbaa 	bl	1040fc <rt_mbx_check>
  1039a8:	4603      	mov	r3, r0
  1039aa:	2b00      	cmp	r3, #0
  1039ac:	d101      	bne.n	1039b2 <isrMessagePut+0x36>
  1039ae:	2381      	movs	r3, #129	; 0x81
  1039b0:	e005      	b.n	1039be <isrMessagePut+0x42>
  1039b2:	9b02      	ldr	r3, [sp, #8]
  1039b4:	4619      	mov	r1, r3
  1039b6:	9803      	ldr	r0, [sp, #12]
  1039b8:	f000 fbae 	bl	104118 <isr_mbx_send>
  1039bc:	2300      	movs	r3, #0
  1039be:	4618      	mov	r0, r3
  1039c0:	b005      	add	sp, #20
  1039c2:	f85d fb04 	ldr.w	pc, [sp], #4
  1039c6:	bf00      	nop

001039c8 <isrMessageGet>:
  1039c8:	b510      	push	{r4, lr}
  1039ca:	b088      	sub	sp, #32
  1039cc:	9003      	str	r0, [sp, #12]
  1039ce:	9102      	str	r1, [sp, #8]
  1039d0:	9201      	str	r2, [sp, #4]
  1039d2:	9b02      	ldr	r3, [sp, #8]
  1039d4:	2b00      	cmp	r3, #0
  1039d6:	d002      	beq.n	1039de <isrMessageGet+0x16>
  1039d8:	9b01      	ldr	r3, [sp, #4]
  1039da:	2b00      	cmp	r3, #0
  1039dc:	d009      	beq.n	1039f2 <isrMessageGet+0x2a>
  1039de:	2380      	movs	r3, #128	; 0x80
  1039e0:	9304      	str	r3, [sp, #16]
  1039e2:	9b03      	ldr	r3, [sp, #12]
  1039e4:	461c      	mov	r4, r3
  1039e6:	ab04      	add	r3, sp, #16
  1039e8:	e893 0007 	ldmia.w	r3, {r0, r1, r2}
  1039ec:	e884 0007 	stmia.w	r4, {r0, r1, r2}
  1039f0:	e02a      	b.n	103a48 <isrMessageGet+0x80>
  1039f2:	9b02      	ldr	r3, [sp, #8]
  1039f4:	781b      	ldrb	r3, [r3, #0]
  1039f6:	2b01      	cmp	r3, #1
  1039f8:	d009      	beq.n	103a0e <isrMessageGet+0x46>
  1039fa:	2380      	movs	r3, #128	; 0x80
  1039fc:	9304      	str	r3, [sp, #16]
  1039fe:	9b03      	ldr	r3, [sp, #12]
  103a00:	461c      	mov	r4, r3
  103a02:	ab04      	add	r3, sp, #16
  103a04:	e893 0007 	ldmia.w	r3, {r0, r1, r2}
  103a08:	e884 0007 	stmia.w	r4, {r0, r1, r2}
  103a0c:	e01c      	b.n	103a48 <isrMessageGet+0x80>
  103a0e:	ab04      	add	r3, sp, #16
  103a10:	3304      	adds	r3, #4
  103a12:	4619      	mov	r1, r3
  103a14:	9802      	ldr	r0, [sp, #8]
  103a16:	f000 fb91 	bl	10413c <isr_mbx_receive>
  103a1a:	9007      	str	r0, [sp, #28]
  103a1c:	9b07      	ldr	r3, [sp, #28]
  103a1e:	2b04      	cmp	r3, #4
  103a20:	d009      	beq.n	103a36 <isrMessageGet+0x6e>
  103a22:	2300      	movs	r3, #0
  103a24:	9304      	str	r3, [sp, #16]
  103a26:	9b03      	ldr	r3, [sp, #12]
  103a28:	461c      	mov	r4, r3
  103a2a:	ab04      	add	r3, sp, #16
  103a2c:	e893 0007 	ldmia.w	r3, {r0, r1, r2}
  103a30:	e884 0007 	stmia.w	r4, {r0, r1, r2}
  103a34:	e008      	b.n	103a48 <isrMessageGet+0x80>
  103a36:	2310      	movs	r3, #16
  103a38:	9304      	str	r3, [sp, #16]
  103a3a:	9b03      	ldr	r3, [sp, #12]
  103a3c:	461c      	mov	r4, r3
  103a3e:	ab04      	add	r3, sp, #16
  103a40:	e893 0007 	ldmia.w	r3, {r0, r1, r2}
  103a44:	e884 0007 	stmia.w	r4, {r0, r1, r2}
  103a48:	9803      	ldr	r0, [sp, #12]
  103a4a:	b008      	add	sp, #32
  103a4c:	bd10      	pop	{r4, pc}
  103a4e:	bf00      	nop

00103a50 <osMessageGet>:
  103a50:	b500      	push	{lr}
  103a52:	b089      	sub	sp, #36	; 0x24
  103a54:	9003      	str	r0, [sp, #12]
  103a56:	9102      	str	r1, [sp, #8]
  103a58:	9201      	str	r2, [sp, #4]
  103a5a:	f3ef 8105 	mrs	r1, IPSR
  103a5e:	9106      	str	r1, [sp, #24]
  103a60:	9906      	ldr	r1, [sp, #24]
  103a62:	2900      	cmp	r1, #0
  103a64:	d006      	beq.n	103a74 <osMessageGet+0x24>
  103a66:	9b03      	ldr	r3, [sp, #12]
  103a68:	9a01      	ldr	r2, [sp, #4]
  103a6a:	9902      	ldr	r1, [sp, #8]
  103a6c:	4618      	mov	r0, r3
  103a6e:	f7ff ffab 	bl	1039c8 <isrMessageGet>
  103a72:	e013      	b.n	103a9c <osMessageGet+0x4c>
  103a74:	9902      	ldr	r1, [sp, #8]
  103a76:	9107      	str	r1, [sp, #28]
  103a78:	9901      	ldr	r1, [sp, #4]
  103a7a:	9105      	str	r1, [sp, #20]
  103a7c:	9807      	ldr	r0, [sp, #28]
  103a7e:	9905      	ldr	r1, [sp, #20]
  103a80:	f8df c020 	ldr.w	r12, [pc, #32]	; 103aa4 <osMessageGet+0x54>
  103a84:	df00      	svc	0
  103a86:	4603      	mov	r3, r0
  103a88:	4618      	mov	r0, r3
  103a8a:	4613      	mov	r3, r2
  103a8c:	461a      	mov	r2, r3
  103a8e:	9b03      	ldr	r3, [sp, #12]
  103a90:	6018      	str	r0, [r3, #0]
  103a92:	9b03      	ldr	r3, [sp, #12]
  103a94:	6059      	str	r1, [r3, #4]
  103a96:	9b03      	ldr	r3, [sp, #12]
  103a98:	609a      	str	r2, [r3, #8]
  103a9a:	bf00      	nop
  103a9c:	9803      	ldr	r0, [sp, #12]
  103a9e:	b009      	add	sp, #36	; 0x24
  103aa0:	f85d fb04 	ldr.w	pc, [sp], #4
  103aa4:	001038b9 	.word	0x001038b9

00103aa8 <rt_evt_psh>:
  103aa8:	b500      	push	{lr}
  103aaa:	b085      	sub	sp, #20
  103aac:	9001      	str	r0, [sp, #4]
  103aae:	460b      	mov	r3, r1
  103ab0:	f8ad 3002 	strh.w	r3, [sp, #2]
  103ab4:	9b01      	ldr	r3, [sp, #4]
  103ab6:	8b1a      	ldrh	r2, [r3, #24]
  103ab8:	f8bd 3002 	ldrh.w	r3, [sp, #2]
  103abc:	4313      	orrs	r3, r2
  103abe:	b29a      	uxth	r2, r3
  103ac0:	9b01      	ldr	r3, [sp, #4]
  103ac2:	831a      	strh	r2, [r3, #24]
  103ac4:	9b01      	ldr	r3, [sp, #4]
  103ac6:	8b5b      	ldrh	r3, [r3, #26]
  103ac8:	f8ad 300e 	strh.w	r3, [sp, #14]
  103acc:	9b01      	ldr	r3, [sp, #4]
  103ace:	785b      	ldrb	r3, [r3, #1]
  103ad0:	2b06      	cmp	r3, #6
  103ad2:	d109      	bne.n	103ae8 <rt_evt_psh+0x40>
  103ad4:	9b01      	ldr	r3, [sp, #4]
  103ad6:	8b1a      	ldrh	r2, [r3, #24]
  103ad8:	f8bd 300e 	ldrh.w	r3, [sp, #14]
  103adc:	4013      	ands	r3, r2
  103ade:	b29b      	uxth	r3, r3
  103ae0:	f8bd 200e 	ldrh.w	r2, [sp, #14]
  103ae4:	429a      	cmp	r2, r3
  103ae6:	d014      	beq.n	103b12 <rt_evt_psh+0x6a>
  103ae8:	9b01      	ldr	r3, [sp, #4]
  103aea:	785b      	ldrb	r3, [r3, #1]
  103aec:	2b05      	cmp	r3, #5
  103aee:	d12e      	bne.n	103b4e <rt_evt_psh+0xa6>
  103af0:	9b01      	ldr	r3, [sp, #4]
  103af2:	8b1a      	ldrh	r2, [r3, #24]
  103af4:	f8bd 300e 	ldrh.w	r3, [sp, #14]
  103af8:	4013      	ands	r3, r2
  103afa:	b29b      	uxth	r3, r3
  103afc:	2b00      	cmp	r3, #0
  103afe:	d026      	beq.n	103b4e <rt_evt_psh+0xa6>
  103b00:	9b01      	ldr	r3, [sp, #4]
  103b02:	8b5a      	ldrh	r2, [r3, #26]
  103b04:	9b01      	ldr	r3, [sp, #4]
  103b06:	8b1b      	ldrh	r3, [r3, #24]
  103b08:	4013      	ands	r3, r2
  103b0a:	b29a      	uxth	r2, r3
  103b0c:	9b01      	ldr	r3, [sp, #4]
  103b0e:	835a      	strh	r2, [r3, #26]
  103b10:	e000      	b.n	103b14 <rt_evt_psh+0x6c>
  103b12:	bf00      	nop
  103b14:	9b01      	ldr	r3, [sp, #4]
  103b16:	8b1b      	ldrh	r3, [r3, #24]
  103b18:	b29a      	uxth	r2, r3
  103b1a:	f8bd 300e 	ldrh.w	r3, [sp, #14]
  103b1e:	43db      	mvns	r3, r3
  103b20:	b29b      	uxth	r3, r3
  103b22:	4013      	ands	r3, r2
  103b24:	b29b      	uxth	r3, r3
  103b26:	b29a      	uxth	r2, r3
  103b28:	9b01      	ldr	r3, [sp, #4]
  103b2a:	831a      	strh	r2, [r3, #24]
  103b2c:	9801      	ldr	r0, [sp, #4]
  103b2e:	f000 f9db 	bl	103ee8 <rt_rmv_dly>
  103b32:	9b01      	ldr	r3, [sp, #4]
  103b34:	2201      	movs	r2, #1
  103b36:	705a      	strb	r2, [r3, #1]
  103b38:	9b01      	ldr	r3, [sp, #4]
  103b3a:	8b5b      	ldrh	r3, [r3, #26]
  103b3c:	461a      	mov	r2, r3
  103b3e:	2108      	movs	r1, #8
  103b40:	9801      	ldr	r0, [sp, #4]
  103b42:	f001 fa13 	bl	104f6c <rt_ret_val2>
  103b46:	9901      	ldr	r1, [sp, #4]
  103b48:	4803      	ldr	r0, [pc, #12]	; (103b58 <rt_evt_psh+0xb0>)
  103b4a:	f000 f831 	bl	103bb0 <rt_put_prio>
  103b4e:	bf00      	nop
  103b50:	b005      	add	sp, #20
  103b52:	f85d fb04 	ldr.w	pc, [sp], #4
  103b56:	bf00      	nop
  103b58:	3fff484c 	.word	0x3fff484c

00103b5c <rt_inc_qi>:
  103b5c:	b088      	sub	sp, #32
  103b5e:	9003      	str	r0, [sp, #12]
  103b60:	9102      	str	r1, [sp, #8]
  103b62:	9201      	str	r2, [sp, #4]
  103b64:	f3ef 8310 	mrs	r3, PRIMASK
  103b68:	9305      	str	r3, [sp, #20]
  103b6a:	b672      	cpsid	i
  103b6c:	9b02      	ldr	r3, [sp, #8]
  103b6e:	781b      	ldrb	r3, [r3, #0]
  103b70:	9307      	str	r3, [sp, #28]
  103b72:	9a07      	ldr	r2, [sp, #28]
  103b74:	9b03      	ldr	r3, [sp, #12]
  103b76:	429a      	cmp	r2, r3
  103b78:	d215      	bcs.n	103ba6 <rt_inc_qi+0x4a>
  103b7a:	9b07      	ldr	r3, [sp, #28]
  103b7c:	b2db      	uxtb	r3, r3
  103b7e:	3301      	adds	r3, #1
  103b80:	b2da      	uxtb	r2, r3
  103b82:	9b02      	ldr	r3, [sp, #8]
  103b84:	701a      	strb	r2, [r3, #0]
  103b86:	9b01      	ldr	r3, [sp, #4]
  103b88:	781b      	ldrb	r3, [r3, #0]
  103b8a:	9307      	str	r3, [sp, #28]
  103b8c:	9b07      	ldr	r3, [sp, #28]
  103b8e:	3301      	adds	r3, #1
  103b90:	9306      	str	r3, [sp, #24]
  103b92:	9a06      	ldr	r2, [sp, #24]
  103b94:	9b03      	ldr	r3, [sp, #12]
  103b96:	429a      	cmp	r2, r3
  103b98:	d101      	bne.n	103b9e <rt_inc_qi+0x42>
  103b9a:	2300      	movs	r3, #0
  103b9c:	9306      	str	r3, [sp, #24]
  103b9e:	9b06      	ldr	r3, [sp, #24]
  103ba0:	b2da      	uxtb	r2, r3
  103ba2:	9b01      	ldr	r3, [sp, #4]
  103ba4:	701a      	strb	r2, [r3, #0]
  103ba6:	b662      	cpsie	i
  103ba8:	9b07      	ldr	r3, [sp, #28]
  103baa:	4618      	mov	r0, r3
  103bac:	b008      	add	sp, #32
  103bae:	4770      	bx	lr

00103bb0 <rt_put_prio>:
  103bb0:	b086      	sub	sp, #24
  103bb2:	9001      	str	r0, [sp, #4]
  103bb4:	9100      	str	r1, [sp, #0]
  103bb6:	2300      	movs	r3, #0
  103bb8:	9304      	str	r3, [sp, #16]
  103bba:	9b01      	ldr	r3, [sp, #4]
  103bbc:	781b      	ldrb	r3, [r3, #0]
  103bbe:	2b02      	cmp	r3, #2
  103bc0:	d007      	beq.n	103bd2 <rt_put_prio+0x22>
  103bc2:	9b01      	ldr	r3, [sp, #4]
  103bc4:	781b      	ldrb	r3, [r3, #0]
  103bc6:	2b01      	cmp	r3, #1
  103bc8:	d003      	beq.n	103bd2 <rt_put_prio+0x22>
  103bca:	9b01      	ldr	r3, [sp, #4]
  103bcc:	781b      	ldrb	r3, [r3, #0]
  103bce:	2b03      	cmp	r3, #3
  103bd0:	d101      	bne.n	103bd6 <rt_put_prio+0x26>
  103bd2:	2301      	movs	r3, #1
  103bd4:	9304      	str	r3, [sp, #16]
  103bd6:	9b00      	ldr	r3, [sp, #0]
  103bd8:	789b      	ldrb	r3, [r3, #2]
  103bda:	9303      	str	r3, [sp, #12]
  103bdc:	9b01      	ldr	r3, [sp, #4]
  103bde:	685b      	ldr	r3, [r3, #4]
  103be0:	9305      	str	r3, [sp, #20]
  103be2:	e004      	b.n	103bee <rt_put_prio+0x3e>
  103be4:	9b05      	ldr	r3, [sp, #20]
  103be6:	9301      	str	r3, [sp, #4]
  103be8:	9b05      	ldr	r3, [sp, #20]
  103bea:	685b      	ldr	r3, [r3, #4]
  103bec:	9305      	str	r3, [sp, #20]
  103bee:	9b05      	ldr	r3, [sp, #20]
  103bf0:	2b00      	cmp	r3, #0
  103bf2:	d005      	beq.n	103c00 <rt_put_prio+0x50>
  103bf4:	9b05      	ldr	r3, [sp, #20]
  103bf6:	789b      	ldrb	r3, [r3, #2]
  103bf8:	461a      	mov	r2, r3
  103bfa:	9b03      	ldr	r3, [sp, #12]
  103bfc:	429a      	cmp	r2, r3
  103bfe:	d2f1      	bcs.n	103be4 <rt_put_prio+0x34>
  103c00:	9b00      	ldr	r3, [sp, #0]
  103c02:	9a05      	ldr	r2, [sp, #20]
  103c04:	605a      	str	r2, [r3, #4]
  103c06:	9b01      	ldr	r3, [sp, #4]
  103c08:	9a00      	ldr	r2, [sp, #0]
  103c0a:	605a      	str	r2, [r3, #4]
  103c0c:	9b04      	ldr	r3, [sp, #16]
  103c0e:	2b00      	cmp	r3, #0
  103c10:	d009      	beq.n	103c26 <rt_put_prio+0x76>
  103c12:	9b05      	ldr	r3, [sp, #20]
  103c14:	2b00      	cmp	r3, #0
  103c16:	d002      	beq.n	103c1e <rt_put_prio+0x6e>
  103c18:	9b05      	ldr	r3, [sp, #20]
  103c1a:	9a00      	ldr	r2, [sp, #0]
  103c1c:	609a      	str	r2, [r3, #8]
  103c1e:	9b00      	ldr	r3, [sp, #0]
  103c20:	9a01      	ldr	r2, [sp, #4]
  103c22:	609a      	str	r2, [r3, #8]
  103c24:	e002      	b.n	103c2c <rt_put_prio+0x7c>
  103c26:	9b00      	ldr	r3, [sp, #0]
  103c28:	2200      	movs	r2, #0
  103c2a:	609a      	str	r2, [r3, #8]
  103c2c:	bf00      	nop
  103c2e:	b006      	add	sp, #24
  103c30:	4770      	bx	lr
  103c32:	bf00      	nop

00103c34 <rt_get_first>:
  103c34:	b084      	sub	sp, #16
  103c36:	9001      	str	r0, [sp, #4]
  103c38:	9b01      	ldr	r3, [sp, #4]
  103c3a:	685b      	ldr	r3, [r3, #4]
  103c3c:	9303      	str	r3, [sp, #12]
  103c3e:	9b03      	ldr	r3, [sp, #12]
  103c40:	685a      	ldr	r2, [r3, #4]
  103c42:	9b01      	ldr	r3, [sp, #4]
  103c44:	605a      	str	r2, [r3, #4]
  103c46:	9b01      	ldr	r3, [sp, #4]
  103c48:	781b      	ldrb	r3, [r3, #0]
  103c4a:	2b02      	cmp	r3, #2
  103c4c:	d007      	beq.n	103c5e <rt_get_first+0x2a>
  103c4e:	9b01      	ldr	r3, [sp, #4]
  103c50:	781b      	ldrb	r3, [r3, #0]
  103c52:	2b01      	cmp	r3, #1
  103c54:	d003      	beq.n	103c5e <rt_get_first+0x2a>
  103c56:	9b01      	ldr	r3, [sp, #4]
  103c58:	781b      	ldrb	r3, [r3, #0]
  103c5a:	2b03      	cmp	r3, #3
  103c5c:	d10e      	bne.n	103c7c <rt_get_first+0x48>
  103c5e:	9b03      	ldr	r3, [sp, #12]
  103c60:	685b      	ldr	r3, [r3, #4]
  103c62:	2b00      	cmp	r3, #0
  103c64:	d006      	beq.n	103c74 <rt_get_first+0x40>
  103c66:	9b03      	ldr	r3, [sp, #12]
  103c68:	685b      	ldr	r3, [r3, #4]
  103c6a:	9a01      	ldr	r2, [sp, #4]
  103c6c:	609a      	str	r2, [r3, #8]
  103c6e:	9b03      	ldr	r3, [sp, #12]
  103c70:	2200      	movs	r2, #0
  103c72:	605a      	str	r2, [r3, #4]
  103c74:	9b03      	ldr	r3, [sp, #12]
  103c76:	2200      	movs	r2, #0
  103c78:	609a      	str	r2, [r3, #8]
  103c7a:	e002      	b.n	103c82 <rt_get_first+0x4e>
  103c7c:	9b03      	ldr	r3, [sp, #12]
  103c7e:	2200      	movs	r2, #0
  103c80:	605a      	str	r2, [r3, #4]
  103c82:	9b03      	ldr	r3, [sp, #12]
  103c84:	4618      	mov	r0, r3
  103c86:	b004      	add	sp, #16
  103c88:	4770      	bx	lr
  103c8a:	bf00      	nop

00103c8c <rt_put_rdy_first>:
  103c8c:	b082      	sub	sp, #8
  103c8e:	9001      	str	r0, [sp, #4]
  103c90:	4b06      	ldr	r3, [pc, #24]	; (103cac <rt_put_rdy_first+0x20>)
  103c92:	685a      	ldr	r2, [r3, #4]
  103c94:	9b01      	ldr	r3, [sp, #4]
  103c96:	605a      	str	r2, [r3, #4]
  103c98:	9b01      	ldr	r3, [sp, #4]
  103c9a:	2200      	movs	r2, #0
  103c9c:	609a      	str	r2, [r3, #8]
  103c9e:	4a03      	ldr	r2, [pc, #12]	; (103cac <rt_put_rdy_first+0x20>)
  103ca0:	9b01      	ldr	r3, [sp, #4]
  103ca2:	6053      	str	r3, [r2, #4]
  103ca4:	bf00      	nop
  103ca6:	b002      	add	sp, #8
  103ca8:	4770      	bx	lr
  103caa:	bf00      	nop
  103cac:	3fff484c 	.word	0x3fff484c

00103cb0 <rt_resort_prio>:
  103cb0:	b500      	push	{lr}
  103cb2:	b085      	sub	sp, #20
  103cb4:	9001      	str	r0, [sp, #4]
  103cb6:	9b01      	ldr	r3, [sp, #4]
  103cb8:	689b      	ldr	r3, [r3, #8]
  103cba:	2b00      	cmp	r3, #0
  103cbc:	d106      	bne.n	103ccc <rt_resort_prio+0x1c>
  103cbe:	9b01      	ldr	r3, [sp, #4]
  103cc0:	785b      	ldrb	r3, [r3, #1]
  103cc2:	2b01      	cmp	r3, #1
  103cc4:	d114      	bne.n	103cf0 <rt_resort_prio+0x40>
  103cc6:	4b0c      	ldr	r3, [pc, #48]	; (103cf8 <rt_resort_prio+0x48>)
  103cc8:	9303      	str	r3, [sp, #12]
  103cca:	e00a      	b.n	103ce2 <rt_resort_prio+0x32>
  103ccc:	9b01      	ldr	r3, [sp, #4]
  103cce:	689b      	ldr	r3, [r3, #8]
  103cd0:	9303      	str	r3, [sp, #12]
  103cd2:	e002      	b.n	103cda <rt_resort_prio+0x2a>
  103cd4:	9b03      	ldr	r3, [sp, #12]
  103cd6:	689b      	ldr	r3, [r3, #8]
  103cd8:	9303      	str	r3, [sp, #12]
  103cda:	9b03      	ldr	r3, [sp, #12]
  103cdc:	781b      	ldrb	r3, [r3, #0]
  103cde:	2b00      	cmp	r3, #0
  103ce0:	d0f8      	beq.n	103cd4 <rt_resort_prio+0x24>
  103ce2:	9801      	ldr	r0, [sp, #4]
  103ce4:	f000 f8d2 	bl	103e8c <rt_rmv_list>
  103ce8:	9901      	ldr	r1, [sp, #4]
  103cea:	9803      	ldr	r0, [sp, #12]
  103cec:	f7ff ff60 	bl	103bb0 <rt_put_prio>
  103cf0:	bf00      	nop
  103cf2:	b005      	add	sp, #20
  103cf4:	f85d fb04 	ldr.w	pc, [sp], #4
  103cf8:	3fff484c 	.word	0x3fff484c

00103cfc <rt_put_dly>:
  103cfc:	b086      	sub	sp, #24
  103cfe:	9001      	str	r0, [sp, #4]
  103d00:	460b      	mov	r3, r1
  103d02:	f8ad 3002 	strh.w	r3, [sp, #2]
  103d06:	f8bd 3002 	ldrh.w	r3, [sp, #2]
  103d0a:	9303      	str	r3, [sp, #12]
  103d0c:	4b2b      	ldr	r3, [pc, #172]	; (103dbc <rt_put_dly+0xc0>)
  103d0e:	9305      	str	r3, [sp, #20]
  103d10:	9b05      	ldr	r3, [sp, #20]
  103d12:	68db      	ldr	r3, [r3, #12]
  103d14:	2b00      	cmp	r3, #0
  103d16:	d102      	bne.n	103d1e <rt_put_dly+0x22>
  103d18:	2300      	movs	r3, #0
  103d1a:	9304      	str	r3, [sp, #16]
  103d1c:	e007      	b.n	103d2e <rt_put_dly+0x32>
  103d1e:	4b27      	ldr	r3, [pc, #156]	; (103dbc <rt_put_dly+0xc0>)
  103d20:	8a9b      	ldrh	r3, [r3, #20]
  103d22:	9304      	str	r3, [sp, #16]
  103d24:	e021      	b.n	103d6a <rt_put_dly+0x6e>
  103d26:	9b05      	ldr	r3, [sp, #20]
  103d28:	68db      	ldr	r3, [r3, #12]
  103d2a:	2b00      	cmp	r3, #0
  103d2c:	d114      	bne.n	103d58 <rt_put_dly+0x5c>
  103d2e:	9b01      	ldr	r3, [sp, #4]
  103d30:	2200      	movs	r2, #0
  103d32:	60da      	str	r2, [r3, #12]
  103d34:	9b05      	ldr	r3, [sp, #20]
  103d36:	9a01      	ldr	r2, [sp, #4]
  103d38:	60da      	str	r2, [r3, #12]
  103d3a:	9b01      	ldr	r3, [sp, #4]
  103d3c:	9a05      	ldr	r2, [sp, #20]
  103d3e:	611a      	str	r2, [r3, #16]
  103d40:	9b03      	ldr	r3, [sp, #12]
  103d42:	b29a      	uxth	r2, r3
  103d44:	9b04      	ldr	r3, [sp, #16]
  103d46:	b29b      	uxth	r3, r3
  103d48:	1ad3      	subs	r3, r2, r3
  103d4a:	b29a      	uxth	r2, r3
  103d4c:	9b05      	ldr	r3, [sp, #20]
  103d4e:	829a      	strh	r2, [r3, #20]
  103d50:	9b01      	ldr	r3, [sp, #4]
  103d52:	2200      	movs	r2, #0
  103d54:	829a      	strh	r2, [r3, #20]
  103d56:	e02e      	b.n	103db6 <rt_put_dly+0xba>
  103d58:	9b05      	ldr	r3, [sp, #20]
  103d5a:	68db      	ldr	r3, [r3, #12]
  103d5c:	9305      	str	r3, [sp, #20]
  103d5e:	9b05      	ldr	r3, [sp, #20]
  103d60:	8a9b      	ldrh	r3, [r3, #20]
  103d62:	461a      	mov	r2, r3
  103d64:	9b04      	ldr	r3, [sp, #16]
  103d66:	4413      	add	r3, r2
  103d68:	9304      	str	r3, [sp, #16]
  103d6a:	9a04      	ldr	r2, [sp, #16]
  103d6c:	9b03      	ldr	r3, [sp, #12]
  103d6e:	429a      	cmp	r2, r3
  103d70:	d3d9      	bcc.n	103d26 <rt_put_dly+0x2a>
  103d72:	9b05      	ldr	r3, [sp, #20]
  103d74:	68da      	ldr	r2, [r3, #12]
  103d76:	9b01      	ldr	r3, [sp, #4]
  103d78:	60da      	str	r2, [r3, #12]
  103d7a:	9b05      	ldr	r3, [sp, #20]
  103d7c:	9a01      	ldr	r2, [sp, #4]
  103d7e:	60da      	str	r2, [r3, #12]
  103d80:	9b01      	ldr	r3, [sp, #4]
  103d82:	9a05      	ldr	r2, [sp, #20]
  103d84:	611a      	str	r2, [r3, #16]
  103d86:	9b01      	ldr	r3, [sp, #4]
  103d88:	68db      	ldr	r3, [r3, #12]
  103d8a:	2b00      	cmp	r3, #0
  103d8c:	d003      	beq.n	103d96 <rt_put_dly+0x9a>
  103d8e:	9b01      	ldr	r3, [sp, #4]
  103d90:	68db      	ldr	r3, [r3, #12]
  103d92:	9a01      	ldr	r2, [sp, #4]
  103d94:	611a      	str	r2, [r3, #16]
  103d96:	9b04      	ldr	r3, [sp, #16]
  103d98:	b29a      	uxth	r2, r3
  103d9a:	9b03      	ldr	r3, [sp, #12]
  103d9c:	b29b      	uxth	r3, r3
  103d9e:	1ad3      	subs	r3, r2, r3
  103da0:	b29a      	uxth	r2, r3
  103da2:	9b01      	ldr	r3, [sp, #4]
  103da4:	829a      	strh	r2, [r3, #20]
  103da6:	9b05      	ldr	r3, [sp, #20]
  103da8:	8a9a      	ldrh	r2, [r3, #20]
  103daa:	9b01      	ldr	r3, [sp, #4]
  103dac:	8a9b      	ldrh	r3, [r3, #20]
  103dae:	1ad3      	subs	r3, r2, r3
  103db0:	b29a      	uxth	r2, r3
  103db2:	9b05      	ldr	r3, [sp, #20]
  103db4:	829a      	strh	r2, [r3, #20]
  103db6:	b006      	add	sp, #24
  103db8:	4770      	bx	lr
  103dba:	bf00      	nop
  103dbc:	3fff4864 	.word	0x3fff4864

00103dc0 <rt_dec_dly>:
  103dc0:	b500      	push	{lr}
  103dc2:	b083      	sub	sp, #12
  103dc4:	4b2e      	ldr	r3, [pc, #184]	; (103e80 <rt_dec_dly+0xc0>)
  103dc6:	68db      	ldr	r3, [r3, #12]
  103dc8:	2b00      	cmp	r3, #0
  103dca:	d054      	beq.n	103e76 <rt_dec_dly+0xb6>
  103dcc:	4b2c      	ldr	r3, [pc, #176]	; (103e80 <rt_dec_dly+0xc0>)
  103dce:	8a9b      	ldrh	r3, [r3, #20]
  103dd0:	3b01      	subs	r3, #1
  103dd2:	b29a      	uxth	r2, r3
  103dd4:	4b2a      	ldr	r3, [pc, #168]	; (103e80 <rt_dec_dly+0xc0>)
  103dd6:	829a      	strh	r2, [r3, #20]
  103dd8:	e044      	b.n	103e64 <rt_dec_dly+0xa4>
  103dda:	4b29      	ldr	r3, [pc, #164]	; (103e80 <rt_dec_dly+0xc0>)
  103ddc:	68db      	ldr	r3, [r3, #12]
  103dde:	9301      	str	r3, [sp, #4]
  103de0:	9b01      	ldr	r3, [sp, #4]
  103de2:	689b      	ldr	r3, [r3, #8]
  103de4:	2b00      	cmp	r3, #0
  103de6:	d013      	beq.n	103e10 <rt_dec_dly+0x50>
  103de8:	9b01      	ldr	r3, [sp, #4]
  103dea:	689b      	ldr	r3, [r3, #8]
  103dec:	9a01      	ldr	r2, [sp, #4]
  103dee:	6852      	ldr	r2, [r2, #4]
  103df0:	605a      	str	r2, [r3, #4]
  103df2:	9b01      	ldr	r3, [sp, #4]
  103df4:	685b      	ldr	r3, [r3, #4]
  103df6:	2b00      	cmp	r3, #0
  103df8:	d007      	beq.n	103e0a <rt_dec_dly+0x4a>
  103dfa:	9b01      	ldr	r3, [sp, #4]
  103dfc:	685b      	ldr	r3, [r3, #4]
  103dfe:	9a01      	ldr	r2, [sp, #4]
  103e00:	6892      	ldr	r2, [r2, #8]
  103e02:	609a      	str	r2, [r3, #8]
  103e04:	9b01      	ldr	r3, [sp, #4]
  103e06:	2200      	movs	r2, #0
  103e08:	605a      	str	r2, [r3, #4]
  103e0a:	9b01      	ldr	r3, [sp, #4]
  103e0c:	2200      	movs	r2, #0
  103e0e:	609a      	str	r2, [r3, #8]
  103e10:	9901      	ldr	r1, [sp, #4]
  103e12:	481c      	ldr	r0, [pc, #112]	; (103e84 <rt_dec_dly+0xc4>)
  103e14:	f7ff fecc 	bl	103bb0 <rt_put_prio>
  103e18:	9b01      	ldr	r3, [sp, #4]
  103e1a:	8a9a      	ldrh	r2, [r3, #20]
  103e1c:	4b18      	ldr	r3, [pc, #96]	; (103e80 <rt_dec_dly+0xc0>)
  103e1e:	829a      	strh	r2, [r3, #20]
  103e20:	9b01      	ldr	r3, [sp, #4]
  103e22:	785b      	ldrb	r3, [r3, #1]
  103e24:	2b04      	cmp	r3, #4
  103e26:	d108      	bne.n	103e3a <rt_dec_dly+0x7a>
  103e28:	9b01      	ldr	r3, [sp, #4]
  103e2a:	8ada      	ldrh	r2, [r3, #22]
  103e2c:	4b16      	ldr	r3, [pc, #88]	; (103e88 <rt_dec_dly+0xc8>)
  103e2e:	681b      	ldr	r3, [r3, #0]
  103e30:	b29b      	uxth	r3, r3
  103e32:	4413      	add	r3, r2
  103e34:	b29a      	uxth	r2, r3
  103e36:	9b01      	ldr	r3, [sp, #4]
  103e38:	829a      	strh	r2, [r3, #20]
  103e3a:	9b01      	ldr	r3, [sp, #4]
  103e3c:	2201      	movs	r2, #1
  103e3e:	705a      	strb	r2, [r3, #1]
  103e40:	9b01      	ldr	r3, [sp, #4]
  103e42:	68db      	ldr	r3, [r3, #12]
  103e44:	4a0e      	ldr	r2, [pc, #56]	; (103e80 <rt_dec_dly+0xc0>)
  103e46:	60d3      	str	r3, [r2, #12]
  103e48:	9b01      	ldr	r3, [sp, #4]
  103e4a:	68db      	ldr	r3, [r3, #12]
  103e4c:	2b00      	cmp	r3, #0
  103e4e:	d006      	beq.n	103e5e <rt_dec_dly+0x9e>
  103e50:	9b01      	ldr	r3, [sp, #4]
  103e52:	68db      	ldr	r3, [r3, #12]
  103e54:	4a0a      	ldr	r2, [pc, #40]	; (103e80 <rt_dec_dly+0xc0>)
  103e56:	611a      	str	r2, [r3, #16]
  103e58:	9b01      	ldr	r3, [sp, #4]
  103e5a:	2200      	movs	r2, #0
  103e5c:	60da      	str	r2, [r3, #12]
  103e5e:	9b01      	ldr	r3, [sp, #4]
  103e60:	2200      	movs	r2, #0
  103e62:	611a      	str	r2, [r3, #16]
  103e64:	4b06      	ldr	r3, [pc, #24]	; (103e80 <rt_dec_dly+0xc0>)
  103e66:	8a9b      	ldrh	r3, [r3, #20]
  103e68:	2b00      	cmp	r3, #0
  103e6a:	d105      	bne.n	103e78 <rt_dec_dly+0xb8>
  103e6c:	4b04      	ldr	r3, [pc, #16]	; (103e80 <rt_dec_dly+0xc0>)
  103e6e:	68db      	ldr	r3, [r3, #12]
  103e70:	2b00      	cmp	r3, #0
  103e72:	d1b2      	bne.n	103dda <rt_dec_dly+0x1a>
  103e74:	e000      	b.n	103e78 <rt_dec_dly+0xb8>
  103e76:	bf00      	nop
  103e78:	b003      	add	sp, #12
  103e7a:	f85d fb04 	ldr.w	pc, [sp], #4
  103e7e:	bf00      	nop
  103e80:	3fff4864 	.word	0x3fff4864
  103e84:	3fff484c 	.word	0x3fff484c
  103e88:	3fff48bc 	.word	0x3fff48bc

00103e8c <rt_rmv_list>:
  103e8c:	b084      	sub	sp, #16
  103e8e:	9001      	str	r0, [sp, #4]
  103e90:	9b01      	ldr	r3, [sp, #4]
  103e92:	689b      	ldr	r3, [r3, #8]
  103e94:	2b00      	cmp	r3, #0
  103e96:	d00e      	beq.n	103eb6 <rt_rmv_list+0x2a>
  103e98:	9b01      	ldr	r3, [sp, #4]
  103e9a:	689b      	ldr	r3, [r3, #8]
  103e9c:	9a01      	ldr	r2, [sp, #4]
  103e9e:	6852      	ldr	r2, [r2, #4]
  103ea0:	605a      	str	r2, [r3, #4]
  103ea2:	9b01      	ldr	r3, [sp, #4]
  103ea4:	685b      	ldr	r3, [r3, #4]
  103ea6:	2b00      	cmp	r3, #0
  103ea8:	d019      	beq.n	103ede <rt_rmv_list+0x52>
  103eaa:	9b01      	ldr	r3, [sp, #4]
  103eac:	685b      	ldr	r3, [r3, #4]
  103eae:	9a01      	ldr	r2, [sp, #4]
  103eb0:	6892      	ldr	r2, [r2, #8]
  103eb2:	609a      	str	r2, [r3, #8]
  103eb4:	e013      	b.n	103ede <rt_rmv_list+0x52>
  103eb6:	4b0b      	ldr	r3, [pc, #44]	; (103ee4 <rt_rmv_list+0x58>)
  103eb8:	9303      	str	r3, [sp, #12]
  103eba:	e00c      	b.n	103ed6 <rt_rmv_list+0x4a>
  103ebc:	9b03      	ldr	r3, [sp, #12]
  103ebe:	685a      	ldr	r2, [r3, #4]
  103ec0:	9b01      	ldr	r3, [sp, #4]
  103ec2:	429a      	cmp	r2, r3
  103ec4:	d104      	bne.n	103ed0 <rt_rmv_list+0x44>
  103ec6:	9b01      	ldr	r3, [sp, #4]
  103ec8:	685a      	ldr	r2, [r3, #4]
  103eca:	9b03      	ldr	r3, [sp, #12]
  103ecc:	605a      	str	r2, [r3, #4]
  103ece:	e007      	b.n	103ee0 <rt_rmv_list+0x54>
  103ed0:	9b03      	ldr	r3, [sp, #12]
  103ed2:	685b      	ldr	r3, [r3, #4]
  103ed4:	9303      	str	r3, [sp, #12]
  103ed6:	9b03      	ldr	r3, [sp, #12]
  103ed8:	2b00      	cmp	r3, #0
  103eda:	d1ef      	bne.n	103ebc <rt_rmv_list+0x30>
  103edc:	e000      	b.n	103ee0 <rt_rmv_list+0x54>
  103ede:	bf00      	nop
  103ee0:	b004      	add	sp, #16
  103ee2:	4770      	bx	lr
  103ee4:	3fff484c 	.word	0x3fff484c

00103ee8 <rt_rmv_dly>:
  103ee8:	b084      	sub	sp, #16
  103eea:	9001      	str	r0, [sp, #4]
  103eec:	9b01      	ldr	r3, [sp, #4]
  103eee:	691b      	ldr	r3, [r3, #16]
  103ef0:	9303      	str	r3, [sp, #12]
  103ef2:	9b03      	ldr	r3, [sp, #12]
  103ef4:	2b00      	cmp	r3, #0
  103ef6:	d01d      	beq.n	103f34 <rt_rmv_dly+0x4c>
  103ef8:	9b01      	ldr	r3, [sp, #4]
  103efa:	68da      	ldr	r2, [r3, #12]
  103efc:	9b03      	ldr	r3, [sp, #12]
  103efe:	60da      	str	r2, [r3, #12]
  103f00:	9b01      	ldr	r3, [sp, #4]
  103f02:	68db      	ldr	r3, [r3, #12]
  103f04:	2b00      	cmp	r3, #0
  103f06:	d00f      	beq.n	103f28 <rt_rmv_dly+0x40>
  103f08:	9b03      	ldr	r3, [sp, #12]
  103f0a:	8a9a      	ldrh	r2, [r3, #20]
  103f0c:	9b01      	ldr	r3, [sp, #4]
  103f0e:	8a9b      	ldrh	r3, [r3, #20]
  103f10:	4413      	add	r3, r2
  103f12:	b29a      	uxth	r2, r3
  103f14:	9b03      	ldr	r3, [sp, #12]
  103f16:	829a      	strh	r2, [r3, #20]
  103f18:	9b01      	ldr	r3, [sp, #4]
  103f1a:	68db      	ldr	r3, [r3, #12]
  103f1c:	9a03      	ldr	r2, [sp, #12]
  103f1e:	611a      	str	r2, [r3, #16]
  103f20:	9b01      	ldr	r3, [sp, #4]
  103f22:	2200      	movs	r2, #0
  103f24:	60da      	str	r2, [r3, #12]
  103f26:	e002      	b.n	103f2e <rt_rmv_dly+0x46>
  103f28:	9b03      	ldr	r3, [sp, #12]
  103f2a:	2200      	movs	r2, #0
  103f2c:	829a      	strh	r2, [r3, #20]
  103f2e:	9b01      	ldr	r3, [sp, #4]
  103f30:	2200      	movs	r2, #0
  103f32:	611a      	str	r2, [r3, #16]
  103f34:	bf00      	nop
  103f36:	b004      	add	sp, #16
  103f38:	4770      	bx	lr
  103f3a:	bf00      	nop

00103f3c <rt_psq_enq>:
  103f3c:	b500      	push	{lr}
  103f3e:	b085      	sub	sp, #20
  103f40:	9001      	str	r0, [sp, #4]
  103f42:	9100      	str	r1, [sp, #0]
  103f44:	4b11      	ldr	r3, [pc, #68]	; (103f8c <rt_psq_enq+0x50>)
  103f46:	78db      	ldrb	r3, [r3, #3]
  103f48:	4618      	mov	r0, r3
  103f4a:	4b11      	ldr	r3, [pc, #68]	; (103f90 <rt_psq_enq+0x54>)
  103f4c:	4a0f      	ldr	r2, [pc, #60]	; (103f8c <rt_psq_enq+0x50>)
  103f4e:	4619      	mov	r1, r3
  103f50:	f7ff fe04 	bl	103b5c <rt_inc_qi>
  103f54:	9003      	str	r0, [sp, #12]
  103f56:	4b0d      	ldr	r3, [pc, #52]	; (103f8c <rt_psq_enq+0x50>)
  103f58:	78db      	ldrb	r3, [r3, #3]
  103f5a:	461a      	mov	r2, r3
  103f5c:	9b03      	ldr	r3, [sp, #12]
  103f5e:	429a      	cmp	r2, r3
  103f60:	d90c      	bls.n	103f7c <rt_psq_enq+0x40>
  103f62:	4a0a      	ldr	r2, [pc, #40]	; (103f8c <rt_psq_enq+0x50>)
  103f64:	9b03      	ldr	r3, [sp, #12]
  103f66:	00db      	lsls	r3, r3, #3
  103f68:	4413      	add	r3, r2
  103f6a:	9a01      	ldr	r2, [sp, #4]
  103f6c:	605a      	str	r2, [r3, #4]
  103f6e:	4a07      	ldr	r2, [pc, #28]	; (103f8c <rt_psq_enq+0x50>)
  103f70:	9b03      	ldr	r3, [sp, #12]
  103f72:	00db      	lsls	r3, r3, #3
  103f74:	4413      	add	r3, r2
  103f76:	9a00      	ldr	r2, [sp, #0]
  103f78:	609a      	str	r2, [r3, #8]
  103f7a:	e002      	b.n	103f82 <rt_psq_enq+0x46>
  103f7c:	2002      	movs	r0, #2
  103f7e:	f000 feb7 	bl	104cf0 <os_error>
  103f82:	bf00      	nop
  103f84:	b005      	add	sp, #20
  103f86:	f85d fb04 	ldr.w	pc, [sp], #4
  103f8a:	bf00      	nop
  103f8c:	3fff48c0 	.word	0x3fff48c0
  103f90:	3fff48c2 	.word	0x3fff48c2

00103f94 <rt_mbx_init>:
  103f94:	b084      	sub	sp, #16
  103f96:	9001      	str	r0, [sp, #4]
  103f98:	460b      	mov	r3, r1
  103f9a:	f8ad 3002 	strh.w	r3, [sp, #2]
  103f9e:	9b01      	ldr	r3, [sp, #4]
  103fa0:	9303      	str	r3, [sp, #12]
  103fa2:	9b03      	ldr	r3, [sp, #12]
  103fa4:	2201      	movs	r2, #1
  103fa6:	701a      	strb	r2, [r3, #0]
  103fa8:	9b03      	ldr	r3, [sp, #12]
  103faa:	2200      	movs	r2, #0
  103fac:	705a      	strb	r2, [r3, #1]
  103fae:	9b03      	ldr	r3, [sp, #12]
  103fb0:	2200      	movs	r2, #0
  103fb2:	709a      	strb	r2, [r3, #2]
  103fb4:	9b03      	ldr	r3, [sp, #12]
  103fb6:	2200      	movs	r2, #0
  103fb8:	605a      	str	r2, [r3, #4]
  103fba:	9b03      	ldr	r3, [sp, #12]
  103fbc:	2200      	movs	r2, #0
  103fbe:	811a      	strh	r2, [r3, #8]
  103fc0:	9b03      	ldr	r3, [sp, #12]
  103fc2:	2200      	movs	r2, #0
  103fc4:	815a      	strh	r2, [r3, #10]
  103fc6:	9b03      	ldr	r3, [sp, #12]
  103fc8:	2200      	movs	r2, #0
  103fca:	819a      	strh	r2, [r3, #12]
  103fcc:	f8bd 3002 	ldrh.w	r3, [sp, #2]
  103fd0:	3b10      	subs	r3, #16
  103fd2:	089b      	lsrs	r3, r3, #2
  103fd4:	b29a      	uxth	r2, r3
  103fd6:	9b03      	ldr	r3, [sp, #12]
  103fd8:	81da      	strh	r2, [r3, #14]
  103fda:	bf00      	nop
  103fdc:	b004      	add	sp, #16
  103fde:	4770      	bx	lr

00103fe0 <rt_mbx_wait>:
  103fe0:	b500      	push	{lr}
  103fe2:	b089      	sub	sp, #36	; 0x24
  103fe4:	9003      	str	r0, [sp, #12]
  103fe6:	9102      	str	r1, [sp, #8]
  103fe8:	4613      	mov	r3, r2
  103fea:	f8ad 3006 	strh.w	r3, [sp, #6]
  103fee:	9b03      	ldr	r3, [sp, #12]
  103ff0:	9307      	str	r3, [sp, #28]
  103ff2:	9b07      	ldr	r3, [sp, #28]
  103ff4:	899b      	ldrh	r3, [r3, #12]
  103ff6:	2b00      	cmp	r3, #0
  103ff8:	d053      	beq.n	1040a2 <rt_mbx_wait+0xc2>
  103ffa:	9b07      	ldr	r3, [sp, #28]
  103ffc:	895b      	ldrh	r3, [r3, #10]
  103ffe:	461a      	mov	r2, r3
  104000:	9b07      	ldr	r3, [sp, #28]
  104002:	3204      	adds	r2, #4
  104004:	f853 2022 	ldr.w	r2, [r3, r2, lsl #2]
  104008:	9b02      	ldr	r3, [sp, #8]
  10400a:	601a      	str	r2, [r3, #0]
  10400c:	9b07      	ldr	r3, [sp, #28]
  10400e:	895b      	ldrh	r3, [r3, #10]
  104010:	3301      	adds	r3, #1
  104012:	b29a      	uxth	r2, r3
  104014:	9b07      	ldr	r3, [sp, #28]
  104016:	815a      	strh	r2, [r3, #10]
  104018:	9b07      	ldr	r3, [sp, #28]
  10401a:	895a      	ldrh	r2, [r3, #10]
  10401c:	9b07      	ldr	r3, [sp, #28]
  10401e:	89db      	ldrh	r3, [r3, #14]
  104020:	429a      	cmp	r2, r3
  104022:	d102      	bne.n	10402a <rt_mbx_wait+0x4a>
  104024:	9b07      	ldr	r3, [sp, #28]
  104026:	2200      	movs	r2, #0
  104028:	815a      	strh	r2, [r3, #10]
  10402a:	9b07      	ldr	r3, [sp, #28]
  10402c:	685b      	ldr	r3, [r3, #4]
  10402e:	2b00      	cmp	r3, #0
  104030:	d02a      	beq.n	104088 <rt_mbx_wait+0xa8>
  104032:	9b07      	ldr	r3, [sp, #28]
  104034:	785b      	ldrb	r3, [r3, #1]
  104036:	2b02      	cmp	r3, #2
  104038:	d126      	bne.n	104088 <rt_mbx_wait+0xa8>
  10403a:	9807      	ldr	r0, [sp, #28]
  10403c:	f7ff fdfa 	bl	103c34 <rt_get_first>
  104040:	9006      	str	r0, [sp, #24]
  104042:	2100      	movs	r1, #0
  104044:	9806      	ldr	r0, [sp, #24]
  104046:	f000 ff81 	bl	104f4c <rt_ret_val>
  10404a:	9b07      	ldr	r3, [sp, #28]
  10404c:	891b      	ldrh	r3, [r3, #8]
  10404e:	461a      	mov	r2, r3
  104050:	9b06      	ldr	r3, [sp, #24]
  104052:	69d9      	ldr	r1, [r3, #28]
  104054:	9b07      	ldr	r3, [sp, #28]
  104056:	3204      	adds	r2, #4
  104058:	f843 1022 	str.w	r1, [r3, r2, lsl #2]
  10405c:	9b07      	ldr	r3, [sp, #28]
  10405e:	891b      	ldrh	r3, [r3, #8]
  104060:	3301      	adds	r3, #1
  104062:	b29a      	uxth	r2, r3
  104064:	9b07      	ldr	r3, [sp, #28]
  104066:	811a      	strh	r2, [r3, #8]
  104068:	9b07      	ldr	r3, [sp, #28]
  10406a:	891a      	ldrh	r2, [r3, #8]
  10406c:	9b07      	ldr	r3, [sp, #28]
  10406e:	89db      	ldrh	r3, [r3, #14]
  104070:	429a      	cmp	r2, r3
  104072:	d102      	bne.n	10407a <rt_mbx_wait+0x9a>
  104074:	9b07      	ldr	r3, [sp, #28]
  104076:	2200      	movs	r2, #0
  104078:	811a      	strh	r2, [r3, #8]
  10407a:	9806      	ldr	r0, [sp, #24]
  10407c:	f7ff ff34 	bl	103ee8 <rt_rmv_dly>
  104080:	9806      	ldr	r0, [sp, #24]
  104082:	f000 fc7b 	bl	10497c <rt_dispatch>
  104086:	e00a      	b.n	10409e <rt_mbx_wait+0xbe>
  104088:	f3ef 8310 	mrs	r3, PRIMASK
  10408c:	9305      	str	r3, [sp, #20]
  10408e:	b672      	cpsid	i
  104090:	9b07      	ldr	r3, [sp, #28]
  104092:	899b      	ldrh	r3, [r3, #12]
  104094:	3b01      	subs	r3, #1
  104096:	b29a      	uxth	r2, r3
  104098:	9b07      	ldr	r3, [sp, #28]
  10409a:	819a      	strh	r2, [r3, #12]
  10409c:	b662      	cpsie	i
  10409e:	2300      	movs	r3, #0
  1040a0:	e026      	b.n	1040f0 <rt_mbx_wait+0x110>
  1040a2:	f8bd 3006 	ldrh.w	r3, [sp, #6]
  1040a6:	2b00      	cmp	r3, #0
  1040a8:	d101      	bne.n	1040ae <rt_mbx_wait+0xce>
  1040aa:	2301      	movs	r3, #1
  1040ac:	e020      	b.n	1040f0 <rt_mbx_wait+0x110>
  1040ae:	9b07      	ldr	r3, [sp, #28]
  1040b0:	685b      	ldr	r3, [r3, #4]
  1040b2:	2b00      	cmp	r3, #0
  1040b4:	d006      	beq.n	1040c4 <rt_mbx_wait+0xe4>
  1040b6:	4b10      	ldr	r3, [pc, #64]	; (1040f8 <rt_mbx_wait+0x118>)
  1040b8:	681b      	ldr	r3, [r3, #0]
  1040ba:	4619      	mov	r1, r3
  1040bc:	9807      	ldr	r0, [sp, #28]
  1040be:	f7ff fd77 	bl	103bb0 <rt_put_prio>
  1040c2:	e00e      	b.n	1040e2 <rt_mbx_wait+0x102>
  1040c4:	4b0c      	ldr	r3, [pc, #48]	; (1040f8 <rt_mbx_wait+0x118>)
  1040c6:	681a      	ldr	r2, [r3, #0]
  1040c8:	9b07      	ldr	r3, [sp, #28]
  1040ca:	605a      	str	r2, [r3, #4]
  1040cc:	4b0a      	ldr	r3, [pc, #40]	; (1040f8 <rt_mbx_wait+0x118>)
  1040ce:	681b      	ldr	r3, [r3, #0]
  1040d0:	2200      	movs	r2, #0
  1040d2:	605a      	str	r2, [r3, #4]
  1040d4:	4b08      	ldr	r3, [pc, #32]	; (1040f8 <rt_mbx_wait+0x118>)
  1040d6:	681b      	ldr	r3, [r3, #0]
  1040d8:	9a07      	ldr	r2, [sp, #28]
  1040da:	609a      	str	r2, [r3, #8]
  1040dc:	9b07      	ldr	r3, [sp, #28]
  1040de:	2201      	movs	r2, #1
  1040e0:	705a      	strb	r2, [r3, #1]
  1040e2:	f8bd 3006 	ldrh.w	r3, [sp, #6]
  1040e6:	2108      	movs	r1, #8
  1040e8:	4618      	mov	r0, r3
  1040ea:	f000 fc79 	bl	1049e0 <rt_block>
  1040ee:	2301      	movs	r3, #1
  1040f0:	4618      	mov	r0, r3
  1040f2:	b009      	add	sp, #36	; 0x24
  1040f4:	f85d fb04 	ldr.w	pc, [sp], #4
  1040f8:	3fff4880 	.word	0x3fff4880

001040fc <rt_mbx_check>:
  1040fc:	b084      	sub	sp, #16
  1040fe:	9001      	str	r0, [sp, #4]
  104100:	9b01      	ldr	r3, [sp, #4]
  104102:	9303      	str	r3, [sp, #12]
  104104:	9b03      	ldr	r3, [sp, #12]
  104106:	89db      	ldrh	r3, [r3, #14]
  104108:	461a      	mov	r2, r3
  10410a:	9b03      	ldr	r3, [sp, #12]
  10410c:	899b      	ldrh	r3, [r3, #12]
  10410e:	1ad3      	subs	r3, r2, r3
  104110:	4618      	mov	r0, r3
  104112:	b004      	add	sp, #16
  104114:	4770      	bx	lr
  104116:	bf00      	nop

00104118 <isr_mbx_send>:
  104118:	b500      	push	{lr}
  10411a:	b085      	sub	sp, #20
  10411c:	9001      	str	r0, [sp, #4]
  10411e:	9100      	str	r1, [sp, #0]
  104120:	9b01      	ldr	r3, [sp, #4]
  104122:	9303      	str	r3, [sp, #12]
  104124:	9b00      	ldr	r3, [sp, #0]
  104126:	4619      	mov	r1, r3
  104128:	9803      	ldr	r0, [sp, #12]
  10412a:	f7ff ff07 	bl	103f3c <rt_psq_enq>
  10412e:	f000 fabb 	bl	1046a8 <rt_psh_req>
  104132:	bf00      	nop
  104134:	b005      	add	sp, #20
  104136:	f85d fb04 	ldr.w	pc, [sp], #4
  10413a:	bf00      	nop

0010413c <isr_mbx_receive>:
  10413c:	b500      	push	{lr}
  10413e:	b085      	sub	sp, #20
  104140:	9001      	str	r0, [sp, #4]
  104142:	9100      	str	r1, [sp, #0]
  104144:	9b01      	ldr	r3, [sp, #4]
  104146:	9303      	str	r3, [sp, #12]
  104148:	9b03      	ldr	r3, [sp, #12]
  10414a:	899b      	ldrh	r3, [r3, #12]
  10414c:	2b00      	cmp	r3, #0
  10414e:	d02e      	beq.n	1041ae <isr_mbx_receive+0x72>
  104150:	9b03      	ldr	r3, [sp, #12]
  104152:	895b      	ldrh	r3, [r3, #10]
  104154:	461a      	mov	r2, r3
  104156:	9b03      	ldr	r3, [sp, #12]
  104158:	3204      	adds	r2, #4
  10415a:	f853 2022 	ldr.w	r2, [r3, r2, lsl #2]
  10415e:	9b00      	ldr	r3, [sp, #0]
  104160:	601a      	str	r2, [r3, #0]
  104162:	9b03      	ldr	r3, [sp, #12]
  104164:	785b      	ldrb	r3, [r3, #1]
  104166:	2b02      	cmp	r3, #2
  104168:	d105      	bne.n	104176 <isr_mbx_receive+0x3a>
  10416a:	2100      	movs	r1, #0
  10416c:	9803      	ldr	r0, [sp, #12]
  10416e:	f7ff fee5 	bl	103f3c <rt_psq_enq>
  104172:	f000 fa99 	bl	1046a8 <rt_psh_req>
  104176:	f3ef 8310 	mrs	r3, PRIMASK
  10417a:	9302      	str	r3, [sp, #8]
  10417c:	b672      	cpsid	i
  10417e:	9b03      	ldr	r3, [sp, #12]
  104180:	899b      	ldrh	r3, [r3, #12]
  104182:	3b01      	subs	r3, #1
  104184:	b29a      	uxth	r2, r3
  104186:	9b03      	ldr	r3, [sp, #12]
  104188:	819a      	strh	r2, [r3, #12]
  10418a:	b662      	cpsie	i
  10418c:	9b03      	ldr	r3, [sp, #12]
  10418e:	895b      	ldrh	r3, [r3, #10]
  104190:	3301      	adds	r3, #1
  104192:	b29a      	uxth	r2, r3
  104194:	9b03      	ldr	r3, [sp, #12]
  104196:	815a      	strh	r2, [r3, #10]
  104198:	9b03      	ldr	r3, [sp, #12]
  10419a:	895a      	ldrh	r2, [r3, #10]
  10419c:	9b03      	ldr	r3, [sp, #12]
  10419e:	89db      	ldrh	r3, [r3, #14]
  1041a0:	429a      	cmp	r2, r3
  1041a2:	d102      	bne.n	1041aa <isr_mbx_receive+0x6e>
  1041a4:	9b03      	ldr	r3, [sp, #12]
  1041a6:	2200      	movs	r2, #0
  1041a8:	815a      	strh	r2, [r3, #10]
  1041aa:	2304      	movs	r3, #4
  1041ac:	e000      	b.n	1041b0 <isr_mbx_receive+0x74>
  1041ae:	2300      	movs	r3, #0
  1041b0:	4618      	mov	r0, r3
  1041b2:	b005      	add	sp, #20
  1041b4:	f85d fb04 	ldr.w	pc, [sp], #4

001041b8 <rt_mbx_psh>:
  1041b8:	b500      	push	{lr}
  1041ba:	b087      	sub	sp, #28
  1041bc:	9001      	str	r0, [sp, #4]
  1041be:	9100      	str	r1, [sp, #0]
  1041c0:	9b01      	ldr	r3, [sp, #4]
  1041c2:	685b      	ldr	r3, [r3, #4]
  1041c4:	2b00      	cmp	r3, #0
  1041c6:	d070      	beq.n	1042aa <rt_mbx_psh+0xf2>
  1041c8:	9b01      	ldr	r3, [sp, #4]
  1041ca:	785b      	ldrb	r3, [r3, #1]
  1041cc:	2b02      	cmp	r3, #2
  1041ce:	d020      	beq.n	104212 <rt_mbx_psh+0x5a>
  1041d0:	2b03      	cmp	r3, #3
  1041d2:	d002      	beq.n	1041da <rt_mbx_psh+0x22>
  1041d4:	2b01      	cmp	r3, #1
  1041d6:	d052      	beq.n	10427e <rt_mbx_psh+0xc6>
  1041d8:	e095      	b.n	104306 <rt_mbx_psh+0x14e>
  1041da:	9800      	ldr	r0, [sp, #0]
  1041dc:	f000 f89a 	bl	104314 <rt_alloc_box>
  1041e0:	9005      	str	r0, [sp, #20]
  1041e2:	9b05      	ldr	r3, [sp, #20]
  1041e4:	2b00      	cmp	r3, #0
  1041e6:	f000 808d 	beq.w	104304 <rt_mbx_psh+0x14c>
  1041ea:	9801      	ldr	r0, [sp, #4]
  1041ec:	f7ff fd22 	bl	103c34 <rt_get_first>
  1041f0:	9004      	str	r0, [sp, #16]
  1041f2:	9b05      	ldr	r3, [sp, #20]
  1041f4:	4619      	mov	r1, r3
  1041f6:	9804      	ldr	r0, [sp, #16]
  1041f8:	f000 fea8 	bl	104f4c <rt_ret_val>
  1041fc:	9b04      	ldr	r3, [sp, #16]
  1041fe:	2201      	movs	r2, #1
  104200:	705a      	strb	r2, [r3, #1]
  104202:	9804      	ldr	r0, [sp, #16]
  104204:	f7ff fe70 	bl	103ee8 <rt_rmv_dly>
  104208:	9904      	ldr	r1, [sp, #16]
  10420a:	4841      	ldr	r0, [pc, #260]	; (104310 <rt_mbx_psh+0x158>)
  10420c:	f7ff fcd0 	bl	103bb0 <rt_put_prio>
  104210:	e079      	b.n	104306 <rt_mbx_psh+0x14e>
  104212:	9801      	ldr	r0, [sp, #4]
  104214:	f7ff fd0e 	bl	103c34 <rt_get_first>
  104218:	9004      	str	r0, [sp, #16]
  10421a:	2100      	movs	r1, #0
  10421c:	9804      	ldr	r0, [sp, #16]
  10421e:	f000 fe95 	bl	104f4c <rt_ret_val>
  104222:	9b01      	ldr	r3, [sp, #4]
  104224:	891b      	ldrh	r3, [r3, #8]
  104226:	461a      	mov	r2, r3
  104228:	9b04      	ldr	r3, [sp, #16]
  10422a:	69d9      	ldr	r1, [r3, #28]
  10422c:	9b01      	ldr	r3, [sp, #4]
  10422e:	3204      	adds	r2, #4
  104230:	f843 1022 	str.w	r1, [r3, r2, lsl #2]
  104234:	f3ef 8310 	mrs	r3, PRIMASK
  104238:	9303      	str	r3, [sp, #12]
  10423a:	b672      	cpsid	i
  10423c:	9b01      	ldr	r3, [sp, #4]
  10423e:	899b      	ldrh	r3, [r3, #12]
  104240:	3301      	adds	r3, #1
  104242:	b29a      	uxth	r2, r3
  104244:	9b01      	ldr	r3, [sp, #4]
  104246:	819a      	strh	r2, [r3, #12]
  104248:	b662      	cpsie	i
  10424a:	9b01      	ldr	r3, [sp, #4]
  10424c:	891b      	ldrh	r3, [r3, #8]
  10424e:	3301      	adds	r3, #1
  104250:	b29a      	uxth	r2, r3
  104252:	9b01      	ldr	r3, [sp, #4]
  104254:	811a      	strh	r2, [r3, #8]
  104256:	9b01      	ldr	r3, [sp, #4]
  104258:	891a      	ldrh	r2, [r3, #8]
  10425a:	9b01      	ldr	r3, [sp, #4]
  10425c:	89db      	ldrh	r3, [r3, #14]
  10425e:	429a      	cmp	r2, r3
  104260:	d102      	bne.n	104268 <rt_mbx_psh+0xb0>
  104262:	9b01      	ldr	r3, [sp, #4]
  104264:	2200      	movs	r2, #0
  104266:	811a      	strh	r2, [r3, #8]
  104268:	9b04      	ldr	r3, [sp, #16]
  10426a:	2201      	movs	r2, #1
  10426c:	705a      	strb	r2, [r3, #1]
  10426e:	9804      	ldr	r0, [sp, #16]
  104270:	f7ff fe3a 	bl	103ee8 <rt_rmv_dly>
  104274:	9904      	ldr	r1, [sp, #16]
  104276:	4826      	ldr	r0, [pc, #152]	; (104310 <rt_mbx_psh+0x158>)
  104278:	f7ff fc9a 	bl	103bb0 <rt_put_prio>
  10427c:	e043      	b.n	104306 <rt_mbx_psh+0x14e>
  10427e:	9801      	ldr	r0, [sp, #4]
  104280:	f7ff fcd8 	bl	103c34 <rt_get_first>
  104284:	9004      	str	r0, [sp, #16]
  104286:	9b00      	ldr	r3, [sp, #0]
  104288:	461a      	mov	r2, r3
  10428a:	2110      	movs	r1, #16
  10428c:	9804      	ldr	r0, [sp, #16]
  10428e:	f000 fe6d 	bl	104f6c <rt_ret_val2>
  104292:	9b04      	ldr	r3, [sp, #16]
  104294:	2201      	movs	r2, #1
  104296:	705a      	strb	r2, [r3, #1]
  104298:	9804      	ldr	r0, [sp, #16]
  10429a:	f7ff fe25 	bl	103ee8 <rt_rmv_dly>
  10429e:	9904      	ldr	r1, [sp, #16]
  1042a0:	481b      	ldr	r0, [pc, #108]	; (104310 <rt_mbx_psh+0x158>)
  1042a2:	f7ff fc85 	bl	103bb0 <rt_put_prio>
  1042a6:	bf00      	nop
  1042a8:	e02d      	b.n	104306 <rt_mbx_psh+0x14e>
  1042aa:	9b01      	ldr	r3, [sp, #4]
  1042ac:	899a      	ldrh	r2, [r3, #12]
  1042ae:	9b01      	ldr	r3, [sp, #4]
  1042b0:	89db      	ldrh	r3, [r3, #14]
  1042b2:	429a      	cmp	r2, r3
  1042b4:	d222      	bcs.n	1042fc <rt_mbx_psh+0x144>
  1042b6:	9b01      	ldr	r3, [sp, #4]
  1042b8:	891b      	ldrh	r3, [r3, #8]
  1042ba:	461a      	mov	r2, r3
  1042bc:	9b01      	ldr	r3, [sp, #4]
  1042be:	3204      	adds	r2, #4
  1042c0:	9900      	ldr	r1, [sp, #0]
  1042c2:	f843 1022 	str.w	r1, [r3, r2, lsl #2]
  1042c6:	f3ef 8310 	mrs	r3, PRIMASK
  1042ca:	9302      	str	r3, [sp, #8]
  1042cc:	b672      	cpsid	i
  1042ce:	9b01      	ldr	r3, [sp, #4]
  1042d0:	899b      	ldrh	r3, [r3, #12]
  1042d2:	3301      	adds	r3, #1
  1042d4:	b29a      	uxth	r2, r3
  1042d6:	9b01      	ldr	r3, [sp, #4]
  1042d8:	819a      	strh	r2, [r3, #12]
  1042da:	b662      	cpsie	i
  1042dc:	9b01      	ldr	r3, [sp, #4]
  1042de:	891b      	ldrh	r3, [r3, #8]
  1042e0:	3301      	adds	r3, #1
  1042e2:	b29a      	uxth	r2, r3
  1042e4:	9b01      	ldr	r3, [sp, #4]
  1042e6:	811a      	strh	r2, [r3, #8]
  1042e8:	9b01      	ldr	r3, [sp, #4]
  1042ea:	891a      	ldrh	r2, [r3, #8]
  1042ec:	9b01      	ldr	r3, [sp, #4]
  1042ee:	89db      	ldrh	r3, [r3, #14]
  1042f0:	429a      	cmp	r2, r3
  1042f2:	d108      	bne.n	104306 <rt_mbx_psh+0x14e>
  1042f4:	9b01      	ldr	r3, [sp, #4]
  1042f6:	2200      	movs	r2, #0
  1042f8:	811a      	strh	r2, [r3, #8]
  1042fa:	e004      	b.n	104306 <rt_mbx_psh+0x14e>
  1042fc:	2003      	movs	r0, #3
  1042fe:	f000 fcf7 	bl	104cf0 <os_error>
  104302:	e000      	b.n	104306 <rt_mbx_psh+0x14e>
  104304:	bf00      	nop
  104306:	bf00      	nop
  104308:	b007      	add	sp, #28
  10430a:	f85d fb04 	ldr.w	pc, [sp], #4
  10430e:	bf00      	nop
  104310:	3fff484c 	.word	0x3fff484c

00104314 <rt_alloc_box>:
  104314:	b086      	sub	sp, #24
  104316:	9001      	str	r0, [sp, #4]
  104318:	f3ef 8310 	mrs	r3, PRIMASK
  10431c:	9303      	str	r3, [sp, #12]
  10431e:	b672      	cpsid	i
  104320:	9b03      	ldr	r3, [sp, #12]
  104322:	f003 0301 	and.w	r3, r3, #1
  104326:	9305      	str	r3, [sp, #20]
  104328:	9b01      	ldr	r3, [sp, #4]
  10432a:	681b      	ldr	r3, [r3, #0]
  10432c:	9304      	str	r3, [sp, #16]
  10432e:	9b04      	ldr	r3, [sp, #16]
  104330:	2b00      	cmp	r3, #0
  104332:	d003      	beq.n	10433c <rt_alloc_box+0x28>
  104334:	9b04      	ldr	r3, [sp, #16]
  104336:	681a      	ldr	r2, [r3, #0]
  104338:	9b01      	ldr	r3, [sp, #4]
  10433a:	601a      	str	r2, [r3, #0]
  10433c:	9b05      	ldr	r3, [sp, #20]
  10433e:	2b00      	cmp	r3, #0
  104340:	d100      	bne.n	104344 <rt_alloc_box+0x30>
  104342:	b662      	cpsie	i
  104344:	9b04      	ldr	r3, [sp, #16]
  104346:	4618      	mov	r0, r3
  104348:	b006      	add	sp, #24
  10434a:	4770      	bx	lr

0010434c <rt_free_box>:
  10434c:	b084      	sub	sp, #16
  10434e:	9001      	str	r0, [sp, #4]
  104350:	9100      	str	r1, [sp, #0]
  104352:	9a00      	ldr	r2, [sp, #0]
  104354:	9b01      	ldr	r3, [sp, #4]
  104356:	429a      	cmp	r2, r3
  104358:	d304      	bcc.n	104364 <rt_free_box+0x18>
  10435a:	9b01      	ldr	r3, [sp, #4]
  10435c:	685a      	ldr	r2, [r3, #4]
  10435e:	9b00      	ldr	r3, [sp, #0]
  104360:	429a      	cmp	r2, r3
  104362:	d801      	bhi.n	104368 <rt_free_box+0x1c>
  104364:	2301      	movs	r3, #1
  104366:	e013      	b.n	104390 <rt_free_box+0x44>
  104368:	f3ef 8310 	mrs	r3, PRIMASK
  10436c:	9302      	str	r3, [sp, #8]
  10436e:	b672      	cpsid	i
  104370:	9b02      	ldr	r3, [sp, #8]
  104372:	f003 0301 	and.w	r3, r3, #1
  104376:	9303      	str	r3, [sp, #12]
  104378:	9b01      	ldr	r3, [sp, #4]
  10437a:	681a      	ldr	r2, [r3, #0]
  10437c:	9b00      	ldr	r3, [sp, #0]
  10437e:	601a      	str	r2, [r3, #0]
  104380:	9b01      	ldr	r3, [sp, #4]
  104382:	9a00      	ldr	r2, [sp, #0]
  104384:	601a      	str	r2, [r3, #0]
  104386:	9b03      	ldr	r3, [sp, #12]
  104388:	2b00      	cmp	r3, #0
  10438a:	d100      	bne.n	10438e <rt_free_box+0x42>
  10438c:	b662      	cpsie	i
  10438e:	2300      	movs	r3, #0
  104390:	4618      	mov	r0, r3
  104392:	b004      	add	sp, #16
  104394:	4770      	bx	lr
  104396:	bf00      	nop

00104398 <rt_mut_init>:
  104398:	b084      	sub	sp, #16
  10439a:	9001      	str	r0, [sp, #4]
  10439c:	9b01      	ldr	r3, [sp, #4]
  10439e:	9303      	str	r3, [sp, #12]
  1043a0:	9b03      	ldr	r3, [sp, #12]
  1043a2:	2203      	movs	r2, #3
  1043a4:	701a      	strb	r2, [r3, #0]
  1043a6:	9b03      	ldr	r3, [sp, #12]
  1043a8:	2200      	movs	r2, #0
  1043aa:	705a      	strb	r2, [r3, #1]
  1043ac:	9b03      	ldr	r3, [sp, #12]
  1043ae:	2200      	movs	r2, #0
  1043b0:	805a      	strh	r2, [r3, #2]
  1043b2:	9b03      	ldr	r3, [sp, #12]
  1043b4:	2200      	movs	r2, #0
  1043b6:	605a      	str	r2, [r3, #4]
  1043b8:	9b03      	ldr	r3, [sp, #12]
  1043ba:	2200      	movs	r2, #0
  1043bc:	609a      	str	r2, [r3, #8]
  1043be:	bf00      	nop
  1043c0:	b004      	add	sp, #16
  1043c2:	4770      	bx	lr

001043c4 <rt_mut_delete>:
  1043c4:	b500      	push	{lr}
  1043c6:	b085      	sub	sp, #20
  1043c8:	9001      	str	r0, [sp, #4]
  1043ca:	9b01      	ldr	r3, [sp, #4]
  1043cc:	9303      	str	r3, [sp, #12]
  1043ce:	9b03      	ldr	r3, [sp, #12]
  1043d0:	885b      	ldrh	r3, [r3, #2]
  1043d2:	2b00      	cmp	r3, #0
  1043d4:	d022      	beq.n	10441c <rt_mut_delete+0x58>
  1043d6:	9b03      	ldr	r3, [sp, #12]
  1043d8:	689b      	ldr	r3, [r3, #8]
  1043da:	9a03      	ldr	r2, [sp, #12]
  1043dc:	7852      	ldrb	r2, [r2, #1]
  1043de:	709a      	strb	r2, [r3, #2]
  1043e0:	9b03      	ldr	r3, [sp, #12]
  1043e2:	689a      	ldr	r2, [r3, #8]
  1043e4:	4b20      	ldr	r3, [pc, #128]	; (104468 <rt_mut_delete+0xa4>)
  1043e6:	681b      	ldr	r3, [r3, #0]
  1043e8:	429a      	cmp	r2, r3
  1043ea:	d017      	beq.n	10441c <rt_mut_delete+0x58>
  1043ec:	9b03      	ldr	r3, [sp, #12]
  1043ee:	689b      	ldr	r3, [r3, #8]
  1043f0:	4618      	mov	r0, r3
  1043f2:	f7ff fc5d 	bl	103cb0 <rt_resort_prio>
  1043f6:	e011      	b.n	10441c <rt_mut_delete+0x58>
  1043f8:	9803      	ldr	r0, [sp, #12]
  1043fa:	f7ff fc1b 	bl	103c34 <rt_get_first>
  1043fe:	9002      	str	r0, [sp, #8]
  104400:	2100      	movs	r1, #0
  104402:	9802      	ldr	r0, [sp, #8]
  104404:	f000 fda2 	bl	104f4c <rt_ret_val>
  104408:	9802      	ldr	r0, [sp, #8]
  10440a:	f7ff fd6d 	bl	103ee8 <rt_rmv_dly>
  10440e:	9b02      	ldr	r3, [sp, #8]
  104410:	2201      	movs	r2, #1
  104412:	705a      	strb	r2, [r3, #1]
  104414:	9902      	ldr	r1, [sp, #8]
  104416:	4815      	ldr	r0, [pc, #84]	; (10446c <rt_mut_delete+0xa8>)
  104418:	f7ff fbca 	bl	103bb0 <rt_put_prio>
  10441c:	9b03      	ldr	r3, [sp, #12]
  10441e:	685b      	ldr	r3, [r3, #4]
  104420:	2b00      	cmp	r3, #0
  104422:	d1e9      	bne.n	1043f8 <rt_mut_delete+0x34>
  104424:	4b11      	ldr	r3, [pc, #68]	; (10446c <rt_mut_delete+0xa8>)
  104426:	685b      	ldr	r3, [r3, #4]
  104428:	2b00      	cmp	r3, #0
  10442a:	d014      	beq.n	104456 <rt_mut_delete+0x92>
  10442c:	4b0f      	ldr	r3, [pc, #60]	; (10446c <rt_mut_delete+0xa8>)
  10442e:	685b      	ldr	r3, [r3, #4]
  104430:	789a      	ldrb	r2, [r3, #2]
  104432:	4b0d      	ldr	r3, [pc, #52]	; (104468 <rt_mut_delete+0xa4>)
  104434:	681b      	ldr	r3, [r3, #0]
  104436:	789b      	ldrb	r3, [r3, #2]
  104438:	429a      	cmp	r2, r3
  10443a:	d90c      	bls.n	104456 <rt_mut_delete+0x92>
  10443c:	4b0a      	ldr	r3, [pc, #40]	; (104468 <rt_mut_delete+0xa4>)
  10443e:	681b      	ldr	r3, [r3, #0]
  104440:	4619      	mov	r1, r3
  104442:	480a      	ldr	r0, [pc, #40]	; (10446c <rt_mut_delete+0xa8>)
  104444:	f7ff fbb4 	bl	103bb0 <rt_put_prio>
  104448:	4b07      	ldr	r3, [pc, #28]	; (104468 <rt_mut_delete+0xa4>)
  10444a:	681b      	ldr	r3, [r3, #0]
  10444c:	2201      	movs	r2, #1
  10444e:	705a      	strb	r2, [r3, #1]
  104450:	2000      	movs	r0, #0
  104452:	f000 fa93 	bl	10497c <rt_dispatch>
  104456:	9b03      	ldr	r3, [sp, #12]
  104458:	2200      	movs	r2, #0
  10445a:	701a      	strb	r2, [r3, #0]
  10445c:	2300      	movs	r3, #0
  10445e:	4618      	mov	r0, r3
  104460:	b005      	add	sp, #20
  104462:	f85d fb04 	ldr.w	pc, [sp], #4
  104466:	bf00      	nop
  104468:	3fff4880 	.word	0x3fff4880
  10446c:	3fff484c 	.word	0x3fff484c

00104470 <rt_mut_release>:
  104470:	b500      	push	{lr}
  104472:	b085      	sub	sp, #20
  104474:	9001      	str	r0, [sp, #4]
  104476:	9b01      	ldr	r3, [sp, #4]
  104478:	9303      	str	r3, [sp, #12]
  10447a:	9b03      	ldr	r3, [sp, #12]
  10447c:	885b      	ldrh	r3, [r3, #2]
  10447e:	2b00      	cmp	r3, #0
  104480:	d005      	beq.n	10448e <rt_mut_release+0x1e>
  104482:	9b03      	ldr	r3, [sp, #12]
  104484:	689a      	ldr	r2, [r3, #8]
  104486:	4b35      	ldr	r3, [pc, #212]	; (10455c <rt_mut_release+0xec>)
  104488:	681b      	ldr	r3, [r3, #0]
  10448a:	429a      	cmp	r2, r3
  10448c:	d001      	beq.n	104492 <rt_mut_release+0x22>
  10448e:	23ff      	movs	r3, #255	; 0xff
  104490:	e060      	b.n	104554 <rt_mut_release+0xe4>
  104492:	9b03      	ldr	r3, [sp, #12]
  104494:	885b      	ldrh	r3, [r3, #2]
  104496:	3b01      	subs	r3, #1
  104498:	b29a      	uxth	r2, r3
  10449a:	9b03      	ldr	r3, [sp, #12]
  10449c:	805a      	strh	r2, [r3, #2]
  10449e:	9b03      	ldr	r3, [sp, #12]
  1044a0:	885b      	ldrh	r3, [r3, #2]
  1044a2:	2b00      	cmp	r3, #0
  1044a4:	d001      	beq.n	1044aa <rt_mut_release+0x3a>
  1044a6:	2300      	movs	r3, #0
  1044a8:	e054      	b.n	104554 <rt_mut_release+0xe4>
  1044aa:	4b2c      	ldr	r3, [pc, #176]	; (10455c <rt_mut_release+0xec>)
  1044ac:	681b      	ldr	r3, [r3, #0]
  1044ae:	9a03      	ldr	r2, [sp, #12]
  1044b0:	7852      	ldrb	r2, [r2, #1]
  1044b2:	709a      	strb	r2, [r3, #2]
  1044b4:	9b03      	ldr	r3, [sp, #12]
  1044b6:	685b      	ldr	r3, [r3, #4]
  1044b8:	2b00      	cmp	r3, #0
  1044ba:	d035      	beq.n	104528 <rt_mut_release+0xb8>
  1044bc:	9803      	ldr	r0, [sp, #12]
  1044be:	f7ff fbb9 	bl	103c34 <rt_get_first>
  1044c2:	9002      	str	r0, [sp, #8]
  1044c4:	2100      	movs	r1, #0
  1044c6:	9802      	ldr	r0, [sp, #8]
  1044c8:	f000 fd40 	bl	104f4c <rt_ret_val>
  1044cc:	9802      	ldr	r0, [sp, #8]
  1044ce:	f7ff fd0b 	bl	103ee8 <rt_rmv_dly>
  1044d2:	9b03      	ldr	r3, [sp, #12]
  1044d4:	2201      	movs	r2, #1
  1044d6:	805a      	strh	r2, [r3, #2]
  1044d8:	9b03      	ldr	r3, [sp, #12]
  1044da:	9a02      	ldr	r2, [sp, #8]
  1044dc:	609a      	str	r2, [r3, #8]
  1044de:	9b02      	ldr	r3, [sp, #8]
  1044e0:	789a      	ldrb	r2, [r3, #2]
  1044e2:	9b03      	ldr	r3, [sp, #12]
  1044e4:	705a      	strb	r2, [r3, #1]
  1044e6:	4b1d      	ldr	r3, [pc, #116]	; (10455c <rt_mut_release+0xec>)
  1044e8:	681b      	ldr	r3, [r3, #0]
  1044ea:	789a      	ldrb	r2, [r3, #2]
  1044ec:	4b1c      	ldr	r3, [pc, #112]	; (104560 <rt_mut_release+0xf0>)
  1044ee:	685b      	ldr	r3, [r3, #4]
  1044f0:	789b      	ldrb	r3, [r3, #2]
  1044f2:	429a      	cmp	r2, r3
  1044f4:	d303      	bcc.n	1044fe <rt_mut_release+0x8e>
  1044f6:	9802      	ldr	r0, [sp, #8]
  1044f8:	f000 fa40 	bl	10497c <rt_dispatch>
  1044fc:	e029      	b.n	104552 <rt_mut_release+0xe2>
  1044fe:	4b17      	ldr	r3, [pc, #92]	; (10455c <rt_mut_release+0xec>)
  104500:	681b      	ldr	r3, [r3, #0]
  104502:	4619      	mov	r1, r3
  104504:	4816      	ldr	r0, [pc, #88]	; (104560 <rt_mut_release+0xf0>)
  104506:	f7ff fb53 	bl	103bb0 <rt_put_prio>
  10450a:	9902      	ldr	r1, [sp, #8]
  10450c:	4814      	ldr	r0, [pc, #80]	; (104560 <rt_mut_release+0xf0>)
  10450e:	f7ff fb4f 	bl	103bb0 <rt_put_prio>
  104512:	4b12      	ldr	r3, [pc, #72]	; (10455c <rt_mut_release+0xec>)
  104514:	681b      	ldr	r3, [r3, #0]
  104516:	2201      	movs	r2, #1
  104518:	705a      	strb	r2, [r3, #1]
  10451a:	9b02      	ldr	r3, [sp, #8]
  10451c:	2201      	movs	r2, #1
  10451e:	705a      	strb	r2, [r3, #1]
  104520:	2000      	movs	r0, #0
  104522:	f000 fa2b 	bl	10497c <rt_dispatch>
  104526:	e014      	b.n	104552 <rt_mut_release+0xe2>
  104528:	4b0d      	ldr	r3, [pc, #52]	; (104560 <rt_mut_release+0xf0>)
  10452a:	685b      	ldr	r3, [r3, #4]
  10452c:	789a      	ldrb	r2, [r3, #2]
  10452e:	4b0b      	ldr	r3, [pc, #44]	; (10455c <rt_mut_release+0xec>)
  104530:	681b      	ldr	r3, [r3, #0]
  104532:	789b      	ldrb	r3, [r3, #2]
  104534:	429a      	cmp	r2, r3
  104536:	d90c      	bls.n	104552 <rt_mut_release+0xe2>
  104538:	4b08      	ldr	r3, [pc, #32]	; (10455c <rt_mut_release+0xec>)
  10453a:	681b      	ldr	r3, [r3, #0]
  10453c:	4619      	mov	r1, r3
  10453e:	4808      	ldr	r0, [pc, #32]	; (104560 <rt_mut_release+0xf0>)
  104540:	f7ff fb36 	bl	103bb0 <rt_put_prio>
  104544:	4b05      	ldr	r3, [pc, #20]	; (10455c <rt_mut_release+0xec>)
  104546:	681b      	ldr	r3, [r3, #0]
  104548:	2201      	movs	r2, #1
  10454a:	705a      	strb	r2, [r3, #1]
  10454c:	2000      	movs	r0, #0
  10454e:	f000 fa15 	bl	10497c <rt_dispatch>
  104552:	2300      	movs	r3, #0
  104554:	4618      	mov	r0, r3
  104556:	b005      	add	sp, #20
  104558:	f85d fb04 	ldr.w	pc, [sp], #4
  10455c:	3fff4880 	.word	0x3fff4880
  104560:	3fff484c 	.word	0x3fff484c

00104564 <rt_mut_wait>:
  104564:	b500      	push	{lr}
  104566:	b085      	sub	sp, #20
  104568:	9001      	str	r0, [sp, #4]
  10456a:	460b      	mov	r3, r1
  10456c:	f8ad 3002 	strh.w	r3, [sp, #2]
  104570:	9b01      	ldr	r3, [sp, #4]
  104572:	9303      	str	r3, [sp, #12]
  104574:	9b03      	ldr	r3, [sp, #12]
  104576:	885b      	ldrh	r3, [r3, #2]
  104578:	2b00      	cmp	r3, #0
  10457a:	d109      	bne.n	104590 <rt_mut_wait+0x2c>
  10457c:	4b28      	ldr	r3, [pc, #160]	; (104620 <rt_mut_wait+0xbc>)
  10457e:	681a      	ldr	r2, [r3, #0]
  104580:	9b03      	ldr	r3, [sp, #12]
  104582:	609a      	str	r2, [r3, #8]
  104584:	4b26      	ldr	r3, [pc, #152]	; (104620 <rt_mut_wait+0xbc>)
  104586:	681b      	ldr	r3, [r3, #0]
  104588:	789a      	ldrb	r2, [r3, #2]
  10458a:	9b03      	ldr	r3, [sp, #12]
  10458c:	705a      	strb	r2, [r3, #1]
  10458e:	e005      	b.n	10459c <rt_mut_wait+0x38>
  104590:	9b03      	ldr	r3, [sp, #12]
  104592:	689a      	ldr	r2, [r3, #8]
  104594:	4b22      	ldr	r3, [pc, #136]	; (104620 <rt_mut_wait+0xbc>)
  104596:	681b      	ldr	r3, [r3, #0]
  104598:	429a      	cmp	r2, r3
  10459a:	d107      	bne.n	1045ac <rt_mut_wait+0x48>
  10459c:	9b03      	ldr	r3, [sp, #12]
  10459e:	885b      	ldrh	r3, [r3, #2]
  1045a0:	3301      	adds	r3, #1
  1045a2:	b29a      	uxth	r2, r3
  1045a4:	9b03      	ldr	r3, [sp, #12]
  1045a6:	805a      	strh	r2, [r3, #2]
  1045a8:	2300      	movs	r3, #0
  1045aa:	e035      	b.n	104618 <rt_mut_wait+0xb4>
  1045ac:	f8bd 3002 	ldrh.w	r3, [sp, #2]
  1045b0:	2b00      	cmp	r3, #0
  1045b2:	d101      	bne.n	1045b8 <rt_mut_wait+0x54>
  1045b4:	2301      	movs	r3, #1
  1045b6:	e02f      	b.n	104618 <rt_mut_wait+0xb4>
  1045b8:	9b03      	ldr	r3, [sp, #12]
  1045ba:	785a      	ldrb	r2, [r3, #1]
  1045bc:	4b18      	ldr	r3, [pc, #96]	; (104620 <rt_mut_wait+0xbc>)
  1045be:	681b      	ldr	r3, [r3, #0]
  1045c0:	789b      	ldrb	r3, [r3, #2]
  1045c2:	429a      	cmp	r2, r3
  1045c4:	d20a      	bcs.n	1045dc <rt_mut_wait+0x78>
  1045c6:	9b03      	ldr	r3, [sp, #12]
  1045c8:	689b      	ldr	r3, [r3, #8]
  1045ca:	4a15      	ldr	r2, [pc, #84]	; (104620 <rt_mut_wait+0xbc>)
  1045cc:	6812      	ldr	r2, [r2, #0]
  1045ce:	7892      	ldrb	r2, [r2, #2]
  1045d0:	709a      	strb	r2, [r3, #2]
  1045d2:	9b03      	ldr	r3, [sp, #12]
  1045d4:	689b      	ldr	r3, [r3, #8]
  1045d6:	4618      	mov	r0, r3
  1045d8:	f7ff fb6a 	bl	103cb0 <rt_resort_prio>
  1045dc:	9b03      	ldr	r3, [sp, #12]
  1045de:	685b      	ldr	r3, [r3, #4]
  1045e0:	2b00      	cmp	r3, #0
  1045e2:	d006      	beq.n	1045f2 <rt_mut_wait+0x8e>
  1045e4:	4b0e      	ldr	r3, [pc, #56]	; (104620 <rt_mut_wait+0xbc>)
  1045e6:	681b      	ldr	r3, [r3, #0]
  1045e8:	4619      	mov	r1, r3
  1045ea:	9803      	ldr	r0, [sp, #12]
  1045ec:	f7ff fae0 	bl	103bb0 <rt_put_prio>
  1045f0:	e00b      	b.n	10460a <rt_mut_wait+0xa6>
  1045f2:	4b0b      	ldr	r3, [pc, #44]	; (104620 <rt_mut_wait+0xbc>)
  1045f4:	681a      	ldr	r2, [r3, #0]
  1045f6:	9b03      	ldr	r3, [sp, #12]
  1045f8:	605a      	str	r2, [r3, #4]
  1045fa:	4b09      	ldr	r3, [pc, #36]	; (104620 <rt_mut_wait+0xbc>)
  1045fc:	681b      	ldr	r3, [r3, #0]
  1045fe:	2200      	movs	r2, #0
  104600:	605a      	str	r2, [r3, #4]
  104602:	4b07      	ldr	r3, [pc, #28]	; (104620 <rt_mut_wait+0xbc>)
  104604:	681b      	ldr	r3, [r3, #0]
  104606:	9a03      	ldr	r2, [sp, #12]
  104608:	609a      	str	r2, [r3, #8]
  10460a:	f8bd 3002 	ldrh.w	r3, [sp, #2]
  10460e:	2109      	movs	r1, #9
  104610:	4618      	mov	r0, r3
  104612:	f000 f9e5 	bl	1049e0 <rt_block>
  104616:	2301      	movs	r3, #1
  104618:	4618      	mov	r0, r3
  10461a:	b005      	add	sp, #20
  10461c:	f85d fb04 	ldr.w	pc, [sp], #4
  104620:	3fff4880 	.word	0x3fff4880

00104624 <rt_sem_psh>:
  104624:	b500      	push	{lr}
  104626:	b085      	sub	sp, #20
  104628:	9001      	str	r0, [sp, #4]
  10462a:	9b01      	ldr	r3, [sp, #4]
  10462c:	685b      	ldr	r3, [r3, #4]
  10462e:	2b00      	cmp	r3, #0
  104630:	d012      	beq.n	104658 <rt_sem_psh+0x34>
  104632:	9801      	ldr	r0, [sp, #4]
  104634:	f7ff fafe 	bl	103c34 <rt_get_first>
  104638:	9003      	str	r0, [sp, #12]
  10463a:	9803      	ldr	r0, [sp, #12]
  10463c:	f7ff fc54 	bl	103ee8 <rt_rmv_dly>
  104640:	9b03      	ldr	r3, [sp, #12]
  104642:	2201      	movs	r2, #1
  104644:	705a      	strb	r2, [r3, #1]
  104646:	2101      	movs	r1, #1
  104648:	9803      	ldr	r0, [sp, #12]
  10464a:	f000 fc7f 	bl	104f4c <rt_ret_val>
  10464e:	9903      	ldr	r1, [sp, #12]
  104650:	4806      	ldr	r0, [pc, #24]	; (10466c <rt_sem_psh+0x48>)
  104652:	f7ff faad 	bl	103bb0 <rt_put_prio>
  104656:	e005      	b.n	104664 <rt_sem_psh+0x40>
  104658:	9b01      	ldr	r3, [sp, #4]
  10465a:	885b      	ldrh	r3, [r3, #2]
  10465c:	3301      	adds	r3, #1
  10465e:	b29a      	uxth	r2, r3
  104660:	9b01      	ldr	r3, [sp, #4]
  104662:	805a      	strh	r2, [r3, #2]
  104664:	bf00      	nop
  104666:	b005      	add	sp, #20
  104668:	f85d fb04 	ldr.w	pc, [sp], #4
  10466c:	3fff484c 	.word	0x3fff484c

00104670 <rt_systick_init>:
  104670:	4a08      	ldr	r2, [pc, #32]	; (104694 <rt_systick_init+0x24>)
  104672:	4b09      	ldr	r3, [pc, #36]	; (104698 <rt_systick_init+0x28>)
  104674:	681b      	ldr	r3, [r3, #0]
  104676:	6013      	str	r3, [r2, #0]
  104678:	4b08      	ldr	r3, [pc, #32]	; (10469c <rt_systick_init+0x2c>)
  10467a:	2200      	movs	r2, #0
  10467c:	601a      	str	r2, [r3, #0]
  10467e:	4b08      	ldr	r3, [pc, #32]	; (1046a0 <rt_systick_init+0x30>)
  104680:	2207      	movs	r2, #7
  104682:	601a      	str	r2, [r3, #0]
  104684:	4a07      	ldr	r2, [pc, #28]	; (1046a4 <rt_systick_init+0x34>)
  104686:	4b07      	ldr	r3, [pc, #28]	; (1046a4 <rt_systick_init+0x34>)
  104688:	681b      	ldr	r3, [r3, #0]
  10468a:	f043 437f 	orr.w	r3, r3, #4278190080	; 0xff000000
  10468e:	6013      	str	r3, [r2, #0]
  104690:	bf00      	nop
  104692:	4770      	bx	lr
  104694:	e000e014 	.word	0xe000e014
  104698:	0010dfb0 	.word	0x0010dfb0
  10469c:	e000e018 	.word	0xe000e018
  1046a0:	e000e010 	.word	0xe000e010
  1046a4:	e000ed20 	.word	0xe000ed20

001046a8 <rt_psh_req>:
  1046a8:	4b07      	ldr	r3, [pc, #28]	; (1046c8 <rt_psh_req+0x20>)
  1046aa:	781b      	ldrb	r3, [r3, #0]
  1046ac:	b2db      	uxtb	r3, r3
  1046ae:	2b00      	cmp	r3, #0
  1046b0:	d104      	bne.n	1046bc <rt_psh_req+0x14>
  1046b2:	4b06      	ldr	r3, [pc, #24]	; (1046cc <rt_psh_req+0x24>)
  1046b4:	f04f 5280 	mov.w	r2, #268435456	; 0x10000000
  1046b8:	601a      	str	r2, [r3, #0]
  1046ba:	e002      	b.n	1046c2 <rt_psh_req+0x1a>
  1046bc:	4b04      	ldr	r3, [pc, #16]	; (1046d0 <rt_psh_req+0x28>)
  1046be:	2201      	movs	r2, #1
  1046c0:	701a      	strb	r2, [r3, #0]
  1046c2:	bf00      	nop
  1046c4:	4770      	bx	lr
  1046c6:	bf00      	nop
  1046c8:	3fff45a0 	.word	0x3fff45a0
  1046cc:	e000ed04 	.word	0xe000ed04
  1046d0:	3fff45a1 	.word	0x3fff45a1

001046d4 <rt_pop_req>:
  1046d4:	b500      	push	{lr}
  1046d6:	b085      	sub	sp, #20
  1046d8:	4b2d      	ldr	r3, [pc, #180]	; (104790 <rt_pop_req+0xbc>)
  1046da:	681b      	ldr	r3, [r3, #0]
  1046dc:	2201      	movs	r2, #1
  1046de:	705a      	strb	r2, [r3, #1]
  1046e0:	4b2b      	ldr	r3, [pc, #172]	; (104790 <rt_pop_req+0xbc>)
  1046e2:	681b      	ldr	r3, [r3, #0]
  1046e4:	4618      	mov	r0, r3
  1046e6:	f7ff fad1 	bl	103c8c <rt_put_rdy_first>
  1046ea:	4b2a      	ldr	r3, [pc, #168]	; (104794 <rt_pop_req+0xc0>)
  1046ec:	785b      	ldrb	r3, [r3, #1]
  1046ee:	9303      	str	r3, [sp, #12]
  1046f0:	e03a      	b.n	104768 <rt_pop_req+0x94>
  1046f2:	4a28      	ldr	r2, [pc, #160]	; (104794 <rt_pop_req+0xc0>)
  1046f4:	9b03      	ldr	r3, [sp, #12]
  1046f6:	00db      	lsls	r3, r3, #3
  1046f8:	4413      	add	r3, r2
  1046fa:	685b      	ldr	r3, [r3, #4]
  1046fc:	9302      	str	r3, [sp, #8]
  1046fe:	9b02      	ldr	r3, [sp, #8]
  104700:	781b      	ldrb	r3, [r3, #0]
  104702:	2b00      	cmp	r3, #0
  104704:	d10a      	bne.n	10471c <rt_pop_req+0x48>
  104706:	4a23      	ldr	r2, [pc, #140]	; (104794 <rt_pop_req+0xc0>)
  104708:	9b03      	ldr	r3, [sp, #12]
  10470a:	00db      	lsls	r3, r3, #3
  10470c:	4413      	add	r3, r2
  10470e:	689b      	ldr	r3, [r3, #8]
  104710:	b29b      	uxth	r3, r3
  104712:	4619      	mov	r1, r3
  104714:	9802      	ldr	r0, [sp, #8]
  104716:	f7ff f9c7 	bl	103aa8 <rt_evt_psh>
  10471a:	e010      	b.n	10473e <rt_pop_req+0x6a>
  10471c:	9b02      	ldr	r3, [sp, #8]
  10471e:	781b      	ldrb	r3, [r3, #0]
  104720:	2b01      	cmp	r3, #1
  104722:	d109      	bne.n	104738 <rt_pop_req+0x64>
  104724:	4a1b      	ldr	r2, [pc, #108]	; (104794 <rt_pop_req+0xc0>)
  104726:	9b03      	ldr	r3, [sp, #12]
  104728:	00db      	lsls	r3, r3, #3
  10472a:	4413      	add	r3, r2
  10472c:	689b      	ldr	r3, [r3, #8]
  10472e:	4619      	mov	r1, r3
  104730:	9802      	ldr	r0, [sp, #8]
  104732:	f7ff fd41 	bl	1041b8 <rt_mbx_psh>
  104736:	e002      	b.n	10473e <rt_pop_req+0x6a>
  104738:	9802      	ldr	r0, [sp, #8]
  10473a:	f7ff ff73 	bl	104624 <rt_sem_psh>
  10473e:	9b03      	ldr	r3, [sp, #12]
  104740:	3301      	adds	r3, #1
  104742:	9303      	str	r3, [sp, #12]
  104744:	4b13      	ldr	r3, [pc, #76]	; (104794 <rt_pop_req+0xc0>)
  104746:	78db      	ldrb	r3, [r3, #3]
  104748:	461a      	mov	r2, r3
  10474a:	9b03      	ldr	r3, [sp, #12]
  10474c:	4293      	cmp	r3, r2
  10474e:	d101      	bne.n	104754 <rt_pop_req+0x80>
  104750:	2300      	movs	r3, #0
  104752:	9303      	str	r3, [sp, #12]
  104754:	f3ef 8310 	mrs	r3, PRIMASK
  104758:	9301      	str	r3, [sp, #4]
  10475a:	b672      	cpsid	i
  10475c:	4b0e      	ldr	r3, [pc, #56]	; (104798 <rt_pop_req+0xc4>)
  10475e:	781a      	ldrb	r2, [r3, #0]
  104760:	3a01      	subs	r2, #1
  104762:	b2d2      	uxtb	r2, r2
  104764:	701a      	strb	r2, [r3, #0]
  104766:	b662      	cpsie	i
  104768:	4b0a      	ldr	r3, [pc, #40]	; (104794 <rt_pop_req+0xc0>)
  10476a:	789b      	ldrb	r3, [r3, #2]
  10476c:	2b00      	cmp	r3, #0
  10476e:	d1c0      	bne.n	1046f2 <rt_pop_req+0x1e>
  104770:	4b08      	ldr	r3, [pc, #32]	; (104794 <rt_pop_req+0xc0>)
  104772:	9a03      	ldr	r2, [sp, #12]
  104774:	b2d2      	uxtb	r2, r2
  104776:	705a      	strb	r2, [r3, #1]
  104778:	4808      	ldr	r0, [pc, #32]	; (10479c <rt_pop_req+0xc8>)
  10477a:	f7ff fa5b 	bl	103c34 <rt_get_first>
  10477e:	9000      	str	r0, [sp, #0]
  104780:	9800      	ldr	r0, [sp, #0]
  104782:	f000 f8ed 	bl	104960 <rt_switch_req>
  104786:	bf00      	nop
  104788:	b005      	add	sp, #20
  10478a:	f85d fb04 	ldr.w	pc, [sp], #4
  10478e:	bf00      	nop
  104790:	3fff4880 	.word	0x3fff4880
  104794:	3fff48c0 	.word	0x3fff48c0
  104798:	3fff48c2 	.word	0x3fff48c2
  10479c:	3fff484c 	.word	0x3fff484c

001047a0 <os_tick_init>:
  1047a0:	b508      	push	{r3, lr}
  1047a2:	f7ff ff65 	bl	104670 <rt_systick_init>
  1047a6:	f04f 33ff 	mov.w	r3, #4294967295
  1047aa:	4618      	mov	r0, r3
  1047ac:	bd08      	pop	{r3, pc}
  1047ae:	bf00      	nop

001047b0 <os_tick_irqack>:
  1047b0:	bf00      	nop
  1047b2:	4770      	bx	lr

001047b4 <rt_systick>:
  1047b4:	b500      	push	{lr}
  1047b6:	b083      	sub	sp, #12
  1047b8:	4b0f      	ldr	r3, [pc, #60]	; (1047f8 <rt_systick+0x44>)
  1047ba:	681b      	ldr	r3, [r3, #0]
  1047bc:	2201      	movs	r2, #1
  1047be:	705a      	strb	r2, [r3, #1]
  1047c0:	4b0d      	ldr	r3, [pc, #52]	; (1047f8 <rt_systick+0x44>)
  1047c2:	681b      	ldr	r3, [r3, #0]
  1047c4:	4618      	mov	r0, r3
  1047c6:	f7ff fa61 	bl	103c8c <rt_put_rdy_first>
  1047ca:	f000 fbf1 	bl	104fb0 <rt_chk_robin>
  1047ce:	4b0b      	ldr	r3, [pc, #44]	; (1047fc <rt_systick+0x48>)
  1047d0:	681b      	ldr	r3, [r3, #0]
  1047d2:	3301      	adds	r3, #1
  1047d4:	4a09      	ldr	r2, [pc, #36]	; (1047fc <rt_systick+0x48>)
  1047d6:	6013      	str	r3, [r2, #0]
  1047d8:	f7ff faf2 	bl	103dc0 <rt_dec_dly>
  1047dc:	f7fe febe 	bl	10355c <sysTimerTick>
  1047e0:	4807      	ldr	r0, [pc, #28]	; (104800 <rt_systick+0x4c>)
  1047e2:	f7ff fa27 	bl	103c34 <rt_get_first>
  1047e6:	9001      	str	r0, [sp, #4]
  1047e8:	9801      	ldr	r0, [sp, #4]
  1047ea:	f000 f8b9 	bl	104960 <rt_switch_req>
  1047ee:	bf00      	nop
  1047f0:	b003      	add	sp, #12
  1047f2:	f85d fb04 	ldr.w	pc, [sp], #4
  1047f6:	bf00      	nop
  1047f8:	3fff4880 	.word	0x3fff4880
  1047fc:	3fff48bc 	.word	0x3fff48bc
  104800:	3fff484c 	.word	0x3fff484c

00104804 <rt_stk_check>:
  104804:	b508      	push	{r3, lr}
  104806:	4b0c      	ldr	r3, [pc, #48]	; (104838 <rt_stk_check+0x34>)
  104808:	681b      	ldr	r3, [r3, #0]
  10480a:	78db      	ldrb	r3, [r3, #3]
  10480c:	2b01      	cmp	r3, #1
  10480e:	d011      	beq.n	104834 <rt_stk_check+0x30>
  104810:	4b09      	ldr	r3, [pc, #36]	; (104838 <rt_stk_check+0x34>)
  104812:	681b      	ldr	r3, [r3, #0]
  104814:	6a9b      	ldr	r3, [r3, #40]	; 0x28
  104816:	4a08      	ldr	r2, [pc, #32]	; (104838 <rt_stk_check+0x34>)
  104818:	6812      	ldr	r2, [r2, #0]
  10481a:	6ad2      	ldr	r2, [r2, #44]	; 0x2c
  10481c:	4293      	cmp	r3, r2
  10481e:	d306      	bcc.n	10482e <rt_stk_check+0x2a>
  104820:	4b05      	ldr	r3, [pc, #20]	; (104838 <rt_stk_check+0x34>)
  104822:	681b      	ldr	r3, [r3, #0]
  104824:	6adb      	ldr	r3, [r3, #44]	; 0x2c
  104826:	681b      	ldr	r3, [r3, #0]
  104828:	4a04      	ldr	r2, [pc, #16]	; (10483c <rt_stk_check+0x38>)
  10482a:	4293      	cmp	r3, r2
  10482c:	d002      	beq.n	104834 <rt_stk_check+0x30>
  10482e:	2001      	movs	r0, #1
  104830:	f000 fa5e 	bl	104cf0 <os_error>
  104834:	bf00      	nop
  104836:	bd08      	pop	{r3, pc}
  104838:	3fff4880 	.word	0x3fff4880
  10483c:	e25a2ea5 	.word	0xe25a2ea5

00104840 <rt_svc_init>:
  104840:	b084      	sub	sp, #16
  104842:	4a1a      	ldr	r2, [pc, #104]	; (1048ac <rt_svc_init+0x6c>)
  104844:	4b19      	ldr	r3, [pc, #100]	; (1048ac <rt_svc_init+0x6c>)
  104846:	681b      	ldr	r3, [r3, #0]
  104848:	f443 037f 	orr.w	r3, r3, #16711680	; 0xff0000
  10484c:	6013      	str	r3, [r2, #0]
  10484e:	4b17      	ldr	r3, [pc, #92]	; (1048ac <rt_svc_init+0x6c>)
  104850:	681b      	ldr	r3, [r3, #0]
  104852:	021b      	lsls	r3, r3, #8
  104854:	f003 437f 	and.w	r3, r3, #4278190080	; 0xff000000
  104858:	43db      	mvns	r3, r3
  10485a:	9301      	str	r3, [sp, #4]
  10485c:	9b01      	ldr	r3, [sp, #4]
  10485e:	fab3 f383 	clz	r3, r3
  104862:	f88d 3003 	strb.w	r3, [sp, #3]
  104866:	f89d 3003 	ldrb.w	r3, [sp, #3]
  10486a:	f1c3 0308 	rsb	r3, r3, #8
  10486e:	9303      	str	r3, [sp, #12]
  104870:	4b0f      	ldr	r3, [pc, #60]	; (1048b0 <rt_svc_init+0x70>)
  104872:	681b      	ldr	r3, [r3, #0]
  104874:	0a1b      	lsrs	r3, r3, #8
  104876:	f003 0307 	and.w	r3, r3, #7
  10487a:	9302      	str	r3, [sp, #8]
  10487c:	9a02      	ldr	r2, [sp, #8]
  10487e:	9b03      	ldr	r3, [sp, #12]
  104880:	429a      	cmp	r2, r3
  104882:	db02      	blt.n	10488a <rt_svc_init+0x4a>
  104884:	9b02      	ldr	r3, [sp, #8]
  104886:	3301      	adds	r3, #1
  104888:	9303      	str	r3, [sp, #12]
  10488a:	490a      	ldr	r1, [pc, #40]	; (1048b4 <rt_svc_init+0x74>)
  10488c:	f06f 7280 	mvn.w	r2, #16777216	; 0x1000000
  104890:	9b03      	ldr	r3, [sp, #12]
  104892:	fa02 f303 	lsl.w	r3, r2, r3
  104896:	f003 427f 	and.w	r2, r3, #4278190080	; 0xff000000
  10489a:	4b06      	ldr	r3, [pc, #24]	; (1048b4 <rt_svc_init+0x74>)
  10489c:	681b      	ldr	r3, [r3, #0]
  10489e:	f023 437f 	bic.w	r3, r3, #4278190080	; 0xff000000
  1048a2:	4313      	orrs	r3, r2
  1048a4:	600b      	str	r3, [r1, #0]
  1048a6:	bf00      	nop
  1048a8:	b004      	add	sp, #16
  1048aa:	4770      	bx	lr
  1048ac:	e000ed20 	.word	0xe000ed20
  1048b0:	e000ed0c 	.word	0xe000ed0c
  1048b4:	e000ed1c 	.word	0xe000ed1c

001048b8 <rt_get_TID>:
  1048b8:	b082      	sub	sp, #8
  1048ba:	2301      	movs	r3, #1
  1048bc:	9301      	str	r3, [sp, #4]
  1048be:	e00b      	b.n	1048d8 <rt_get_TID+0x20>
  1048c0:	9b01      	ldr	r3, [sp, #4]
  1048c2:	3b01      	subs	r3, #1
  1048c4:	4a09      	ldr	r2, [pc, #36]	; (1048ec <rt_get_TID+0x34>)
  1048c6:	f852 3023 	ldr.w	r3, [r2, r3, lsl #2]
  1048ca:	2b00      	cmp	r3, #0
  1048cc:	d101      	bne.n	1048d2 <rt_get_TID+0x1a>
  1048ce:	9b01      	ldr	r3, [sp, #4]
  1048d0:	e009      	b.n	1048e6 <rt_get_TID+0x2e>
  1048d2:	9b01      	ldr	r3, [sp, #4]
  1048d4:	3301      	adds	r3, #1
  1048d6:	9301      	str	r3, [sp, #4]
  1048d8:	4b05      	ldr	r3, [pc, #20]	; (1048f0 <rt_get_TID+0x38>)
  1048da:	881b      	ldrh	r3, [r3, #0]
  1048dc:	461a      	mov	r2, r3
  1048de:	9b01      	ldr	r3, [sp, #4]
  1048e0:	429a      	cmp	r2, r3
  1048e2:	d2ed      	bcs.n	1048c0 <rt_get_TID+0x8>
  1048e4:	2300      	movs	r3, #0
  1048e6:	4618      	mov	r0, r3
  1048e8:	b002      	add	sp, #8
  1048ea:	4770      	bx	lr
  1048ec:	3fff516c 	.word	0x3fff516c
  1048f0:	0010dfaa 	.word	0x0010dfaa

001048f4 <rt_init_context>:
  1048f4:	b500      	push	{lr}
  1048f6:	b085      	sub	sp, #20
  1048f8:	9003      	str	r0, [sp, #12]
  1048fa:	460b      	mov	r3, r1
  1048fc:	9201      	str	r2, [sp, #4]
  1048fe:	f88d 300b 	strb.w	r3, [sp, #11]
  104902:	9b03      	ldr	r3, [sp, #12]
  104904:	2200      	movs	r2, #0
  104906:	701a      	strb	r2, [r3, #0]
  104908:	9b03      	ldr	r3, [sp, #12]
  10490a:	2201      	movs	r2, #1
  10490c:	705a      	strb	r2, [r3, #1]
  10490e:	9b03      	ldr	r3, [sp, #12]
  104910:	f89d 200b 	ldrb.w	r2, [sp, #11]
  104914:	709a      	strb	r2, [r3, #2]
  104916:	9b03      	ldr	r3, [sp, #12]
  104918:	2200      	movs	r2, #0
  10491a:	605a      	str	r2, [r3, #4]
  10491c:	9b03      	ldr	r3, [sp, #12]
  10491e:	2200      	movs	r2, #0
  104920:	609a      	str	r2, [r3, #8]
  104922:	9b03      	ldr	r3, [sp, #12]
  104924:	2200      	movs	r2, #0
  104926:	60da      	str	r2, [r3, #12]
  104928:	9b03      	ldr	r3, [sp, #12]
  10492a:	2200      	movs	r2, #0
  10492c:	611a      	str	r2, [r3, #16]
  10492e:	9b03      	ldr	r3, [sp, #12]
  104930:	2200      	movs	r2, #0
  104932:	829a      	strh	r2, [r3, #20]
  104934:	9b03      	ldr	r3, [sp, #12]
  104936:	2200      	movs	r2, #0
  104938:	82da      	strh	r2, [r3, #22]
  10493a:	9b03      	ldr	r3, [sp, #12]
  10493c:	2200      	movs	r2, #0
  10493e:	831a      	strh	r2, [r3, #24]
  104940:	9b03      	ldr	r3, [sp, #12]
  104942:	2200      	movs	r2, #0
  104944:	835a      	strh	r2, [r3, #26]
  104946:	9b03      	ldr	r3, [sp, #12]
  104948:	2200      	movs	r2, #0
  10494a:	f883 2020 	strb.w	r2, [r3, #32]
  10494e:	9901      	ldr	r1, [sp, #4]
  104950:	9803      	ldr	r0, [sp, #12]
  104952:	f000 faab 	bl	104eac <rt_init_stack>
  104956:	bf00      	nop
  104958:	b005      	add	sp, #20
  10495a:	f85d fb04 	ldr.w	pc, [sp], #4
  10495e:	bf00      	nop

00104960 <rt_switch_req>:
  104960:	b082      	sub	sp, #8
  104962:	9001      	str	r0, [sp, #4]
  104964:	4a04      	ldr	r2, [pc, #16]	; (104978 <rt_switch_req+0x18>)
  104966:	9b01      	ldr	r3, [sp, #4]
  104968:	6053      	str	r3, [r2, #4]
  10496a:	9b01      	ldr	r3, [sp, #4]
  10496c:	2202      	movs	r2, #2
  10496e:	705a      	strb	r2, [r3, #1]
  104970:	bf00      	nop
  104972:	b002      	add	sp, #8
  104974:	4770      	bx	lr
  104976:	bf00      	nop
  104978:	3fff4880 	.word	0x3fff4880

0010497c <rt_dispatch>:
  10497c:	b500      	push	{lr}
  10497e:	b083      	sub	sp, #12
  104980:	9001      	str	r0, [sp, #4]
  104982:	9b01      	ldr	r3, [sp, #4]
  104984:	2b00      	cmp	r3, #0
  104986:	d107      	bne.n	104998 <rt_dispatch+0x1c>
  104988:	4813      	ldr	r0, [pc, #76]	; (1049d8 <rt_dispatch+0x5c>)
  10498a:	f7ff f953 	bl	103c34 <rt_get_first>
  10498e:	9001      	str	r0, [sp, #4]
  104990:	9801      	ldr	r0, [sp, #4]
  104992:	f7ff ffe5 	bl	104960 <rt_switch_req>
  104996:	e01a      	b.n	1049ce <rt_dispatch+0x52>
  104998:	9b01      	ldr	r3, [sp, #4]
  10499a:	789a      	ldrb	r2, [r3, #2]
  10499c:	4b0f      	ldr	r3, [pc, #60]	; (1049dc <rt_dispatch+0x60>)
  10499e:	681b      	ldr	r3, [r3, #0]
  1049a0:	789b      	ldrb	r3, [r3, #2]
  1049a2:	429a      	cmp	r2, r3
  1049a4:	d90c      	bls.n	1049c0 <rt_dispatch+0x44>
  1049a6:	4b0d      	ldr	r3, [pc, #52]	; (1049dc <rt_dispatch+0x60>)
  1049a8:	681b      	ldr	r3, [r3, #0]
  1049aa:	4618      	mov	r0, r3
  1049ac:	f7ff f96e 	bl	103c8c <rt_put_rdy_first>
  1049b0:	4b0a      	ldr	r3, [pc, #40]	; (1049dc <rt_dispatch+0x60>)
  1049b2:	681b      	ldr	r3, [r3, #0]
  1049b4:	2201      	movs	r2, #1
  1049b6:	705a      	strb	r2, [r3, #1]
  1049b8:	9801      	ldr	r0, [sp, #4]
  1049ba:	f7ff ffd1 	bl	104960 <rt_switch_req>
  1049be:	e006      	b.n	1049ce <rt_dispatch+0x52>
  1049c0:	9b01      	ldr	r3, [sp, #4]
  1049c2:	2201      	movs	r2, #1
  1049c4:	705a      	strb	r2, [r3, #1]
  1049c6:	9901      	ldr	r1, [sp, #4]
  1049c8:	4803      	ldr	r0, [pc, #12]	; (1049d8 <rt_dispatch+0x5c>)
  1049ca:	f7ff f8f1 	bl	103bb0 <rt_put_prio>
  1049ce:	bf00      	nop
  1049d0:	b003      	add	sp, #12
  1049d2:	f85d fb04 	ldr.w	pc, [sp], #4
  1049d6:	bf00      	nop
  1049d8:	3fff484c 	.word	0x3fff484c
  1049dc:	3fff4880 	.word	0x3fff4880

001049e0 <rt_block>:
  1049e0:	b500      	push	{lr}
  1049e2:	b085      	sub	sp, #20
  1049e4:	4603      	mov	r3, r0
  1049e6:	460a      	mov	r2, r1
  1049e8:	f8ad 3006 	strh.w	r3, [sp, #6]
  1049ec:	4613      	mov	r3, r2
  1049ee:	f88d 3005 	strb.w	r3, [sp, #5]
  1049f2:	f8bd 3006 	ldrh.w	r3, [sp, #6]
  1049f6:	2b00      	cmp	r3, #0
  1049f8:	d019      	beq.n	104a2e <rt_block+0x4e>
  1049fa:	f8bd 3006 	ldrh.w	r3, [sp, #6]
  1049fe:	f64f 72ff 	movw	r2, #65535	; 0xffff
  104a02:	4293      	cmp	r3, r2
  104a04:	d007      	beq.n	104a16 <rt_block+0x36>
  104a06:	4b0c      	ldr	r3, [pc, #48]	; (104a38 <rt_block+0x58>)
  104a08:	681b      	ldr	r3, [r3, #0]
  104a0a:	f8bd 2006 	ldrh.w	r2, [sp, #6]
  104a0e:	4611      	mov	r1, r2
  104a10:	4618      	mov	r0, r3
  104a12:	f7ff f973 	bl	103cfc <rt_put_dly>
  104a16:	4b08      	ldr	r3, [pc, #32]	; (104a38 <rt_block+0x58>)
  104a18:	681b      	ldr	r3, [r3, #0]
  104a1a:	f89d 2005 	ldrb.w	r2, [sp, #5]
  104a1e:	705a      	strb	r2, [r3, #1]
  104a20:	4806      	ldr	r0, [pc, #24]	; (104a3c <rt_block+0x5c>)
  104a22:	f7ff f907 	bl	103c34 <rt_get_first>
  104a26:	9003      	str	r0, [sp, #12]
  104a28:	9803      	ldr	r0, [sp, #12]
  104a2a:	f7ff ff99 	bl	104960 <rt_switch_req>
  104a2e:	bf00      	nop
  104a30:	b005      	add	sp, #20
  104a32:	f85d fb04 	ldr.w	pc, [sp], #4
  104a36:	bf00      	nop
  104a38:	3fff4880 	.word	0x3fff4880
  104a3c:	3fff484c 	.word	0x3fff484c

00104a40 <rt_tsk_self>:
  104a40:	4b05      	ldr	r3, [pc, #20]	; (104a58 <rt_tsk_self+0x18>)
  104a42:	681b      	ldr	r3, [r3, #0]
  104a44:	2b00      	cmp	r3, #0
  104a46:	d101      	bne.n	104a4c <rt_tsk_self+0xc>
  104a48:	2300      	movs	r3, #0
  104a4a:	e002      	b.n	104a52 <rt_tsk_self+0x12>
  104a4c:	4b02      	ldr	r3, [pc, #8]	; (104a58 <rt_tsk_self+0x18>)
  104a4e:	681b      	ldr	r3, [r3, #0]
  104a50:	78db      	ldrb	r3, [r3, #3]
  104a52:	4618      	mov	r0, r3
  104a54:	4770      	bx	lr
  104a56:	bf00      	nop
  104a58:	3fff4880 	.word	0x3fff4880

00104a5c <rt_tsk_prio>:
  104a5c:	b500      	push	{lr}
  104a5e:	b085      	sub	sp, #20
  104a60:	9001      	str	r0, [sp, #4]
  104a62:	460b      	mov	r3, r1
  104a64:	f88d 3003 	strb.w	r3, [sp, #3]
  104a68:	9b01      	ldr	r3, [sp, #4]
  104a6a:	2b00      	cmp	r3, #0
  104a6c:	d11c      	bne.n	104aa8 <rt_tsk_prio+0x4c>
  104a6e:	4b27      	ldr	r3, [pc, #156]	; (104b0c <rt_tsk_prio+0xb0>)
  104a70:	681b      	ldr	r3, [r3, #0]
  104a72:	f89d 2003 	ldrb.w	r2, [sp, #3]
  104a76:	709a      	strb	r2, [r3, #2]
  104a78:	e000      	b.n	104a7c <rt_tsk_prio+0x20>
  104a7a:	bf00      	nop
  104a7c:	4b24      	ldr	r3, [pc, #144]	; (104b10 <rt_tsk_prio+0xb4>)
  104a7e:	685b      	ldr	r3, [r3, #4]
  104a80:	789b      	ldrb	r3, [r3, #2]
  104a82:	f89d 2003 	ldrb.w	r2, [sp, #3]
  104a86:	429a      	cmp	r2, r3
  104a88:	d20c      	bcs.n	104aa4 <rt_tsk_prio+0x48>
  104a8a:	4b20      	ldr	r3, [pc, #128]	; (104b0c <rt_tsk_prio+0xb0>)
  104a8c:	681b      	ldr	r3, [r3, #0]
  104a8e:	4619      	mov	r1, r3
  104a90:	481f      	ldr	r0, [pc, #124]	; (104b10 <rt_tsk_prio+0xb4>)
  104a92:	f7ff f88d 	bl	103bb0 <rt_put_prio>
  104a96:	4b1d      	ldr	r3, [pc, #116]	; (104b0c <rt_tsk_prio+0xb0>)
  104a98:	681b      	ldr	r3, [r3, #0]
  104a9a:	2201      	movs	r2, #1
  104a9c:	705a      	strb	r2, [r3, #1]
  104a9e:	2000      	movs	r0, #0
  104aa0:	f7ff ff6c 	bl	10497c <rt_dispatch>
  104aa4:	2300      	movs	r3, #0
  104aa6:	e02c      	b.n	104b02 <rt_tsk_prio+0xa6>
  104aa8:	4b1a      	ldr	r3, [pc, #104]	; (104b14 <rt_tsk_prio+0xb8>)
  104aaa:	881b      	ldrh	r3, [r3, #0]
  104aac:	461a      	mov	r2, r3
  104aae:	9b01      	ldr	r3, [sp, #4]
  104ab0:	429a      	cmp	r2, r3
  104ab2:	d306      	bcc.n	104ac2 <rt_tsk_prio+0x66>
  104ab4:	9b01      	ldr	r3, [sp, #4]
  104ab6:	3b01      	subs	r3, #1
  104ab8:	4a17      	ldr	r2, [pc, #92]	; (104b18 <rt_tsk_prio+0xbc>)
  104aba:	f852 3023 	ldr.w	r3, [r2, r3, lsl #2]
  104abe:	2b00      	cmp	r3, #0
  104ac0:	d101      	bne.n	104ac6 <rt_tsk_prio+0x6a>
  104ac2:	23ff      	movs	r3, #255	; 0xff
  104ac4:	e01d      	b.n	104b02 <rt_tsk_prio+0xa6>
  104ac6:	9b01      	ldr	r3, [sp, #4]
  104ac8:	3b01      	subs	r3, #1
  104aca:	4a13      	ldr	r2, [pc, #76]	; (104b18 <rt_tsk_prio+0xbc>)
  104acc:	f852 3023 	ldr.w	r3, [r2, r3, lsl #2]
  104ad0:	9303      	str	r3, [sp, #12]
  104ad2:	9b03      	ldr	r3, [sp, #12]
  104ad4:	f89d 2003 	ldrb.w	r2, [sp, #3]
  104ad8:	709a      	strb	r2, [r3, #2]
  104ada:	4b0c      	ldr	r3, [pc, #48]	; (104b0c <rt_tsk_prio+0xb0>)
  104adc:	681a      	ldr	r2, [r3, #0]
  104ade:	9b03      	ldr	r3, [sp, #12]
  104ae0:	429a      	cmp	r2, r3
  104ae2:	d0ca      	beq.n	104a7a <rt_tsk_prio+0x1e>
  104ae4:	9803      	ldr	r0, [sp, #12]
  104ae6:	f7ff f8e3 	bl	103cb0 <rt_resort_prio>
  104aea:	9b03      	ldr	r3, [sp, #12]
  104aec:	785b      	ldrb	r3, [r3, #1]
  104aee:	2b01      	cmp	r3, #1
  104af0:	d106      	bne.n	104b00 <rt_tsk_prio+0xa4>
  104af2:	4807      	ldr	r0, [pc, #28]	; (104b10 <rt_tsk_prio+0xb4>)
  104af4:	f7ff f89e 	bl	103c34 <rt_get_first>
  104af8:	9003      	str	r0, [sp, #12]
  104afa:	9803      	ldr	r0, [sp, #12]
  104afc:	f7ff ff3e 	bl	10497c <rt_dispatch>
  104b00:	2300      	movs	r3, #0
  104b02:	4618      	mov	r0, r3
  104b04:	b005      	add	sp, #20
  104b06:	f85d fb04 	ldr.w	pc, [sp], #4
  104b0a:	bf00      	nop
  104b0c:	3fff4880 	.word	0x3fff4880
  104b10:	3fff484c 	.word	0x3fff484c
  104b14:	0010dfaa 	.word	0x0010dfaa
  104b18:	3fff516c 	.word	0x3fff516c

00104b1c <rt_tsk_delete>:
  104b1c:	b510      	push	{r4, lr}
  104b1e:	b084      	sub	sp, #16
  104b20:	9001      	str	r0, [sp, #4]
  104b22:	9b01      	ldr	r3, [sp, #4]
  104b24:	2b00      	cmp	r3, #0
  104b26:	d006      	beq.n	104b36 <rt_tsk_delete+0x1a>
  104b28:	4b26      	ldr	r3, [pc, #152]	; (104bc4 <rt_tsk_delete+0xa8>)
  104b2a:	681b      	ldr	r3, [r3, #0]
  104b2c:	78db      	ldrb	r3, [r3, #3]
  104b2e:	461a      	mov	r2, r3
  104b30:	9b01      	ldr	r3, [sp, #4]
  104b32:	429a      	cmp	r2, r3
  104b34:	d11e      	bne.n	104b74 <rt_tsk_delete+0x58>
  104b36:	4b23      	ldr	r3, [pc, #140]	; (104bc4 <rt_tsk_delete+0xa8>)
  104b38:	681b      	ldr	r3, [r3, #0]
  104b3a:	2200      	movs	r2, #0
  104b3c:	705a      	strb	r2, [r3, #1]
  104b3e:	4b21      	ldr	r3, [pc, #132]	; (104bc4 <rt_tsk_delete+0xa8>)
  104b40:	681c      	ldr	r4, [r3, #0]
  104b42:	f000 f918 	bl	104d76 <rt_get_PSP>
  104b46:	4603      	mov	r3, r0
  104b48:	62a3      	str	r3, [r4, #40]	; 0x28
  104b4a:	f7ff fe5b 	bl	104804 <rt_stk_check>
  104b4e:	4b1d      	ldr	r3, [pc, #116]	; (104bc4 <rt_tsk_delete+0xa8>)
  104b50:	681b      	ldr	r3, [r3, #0]
  104b52:	78db      	ldrb	r3, [r3, #3]
  104b54:	3b01      	subs	r3, #1
  104b56:	4a1c      	ldr	r2, [pc, #112]	; (104bc8 <rt_tsk_delete+0xac>)
  104b58:	2100      	movs	r1, #0
  104b5a:	f842 1023 	str.w	r1, [r2, r3, lsl #2]
  104b5e:	4b19      	ldr	r3, [pc, #100]	; (104bc4 <rt_tsk_delete+0xa8>)
  104b60:	681b      	ldr	r3, [r3, #0]
  104b62:	2200      	movs	r2, #0
  104b64:	62da      	str	r2, [r3, #44]	; 0x2c
  104b66:	4b17      	ldr	r3, [pc, #92]	; (104bc4 <rt_tsk_delete+0xa8>)
  104b68:	2200      	movs	r2, #0
  104b6a:	601a      	str	r2, [r3, #0]
  104b6c:	2000      	movs	r0, #0
  104b6e:	f7ff ff05 	bl	10497c <rt_dispatch>
  104b72:	e023      	b.n	104bbc <rt_tsk_delete+0xa0>
  104b74:	4b15      	ldr	r3, [pc, #84]	; (104bcc <rt_tsk_delete+0xb0>)
  104b76:	881b      	ldrh	r3, [r3, #0]
  104b78:	461a      	mov	r2, r3
  104b7a:	9b01      	ldr	r3, [sp, #4]
  104b7c:	429a      	cmp	r2, r3
  104b7e:	d306      	bcc.n	104b8e <rt_tsk_delete+0x72>
  104b80:	9b01      	ldr	r3, [sp, #4]
  104b82:	3b01      	subs	r3, #1
  104b84:	4a10      	ldr	r2, [pc, #64]	; (104bc8 <rt_tsk_delete+0xac>)
  104b86:	f852 3023 	ldr.w	r3, [r2, r3, lsl #2]
  104b8a:	2b00      	cmp	r3, #0
  104b8c:	d101      	bne.n	104b92 <rt_tsk_delete+0x76>
  104b8e:	23ff      	movs	r3, #255	; 0xff
  104b90:	e015      	b.n	104bbe <rt_tsk_delete+0xa2>
  104b92:	9b01      	ldr	r3, [sp, #4]
  104b94:	3b01      	subs	r3, #1
  104b96:	4a0c      	ldr	r2, [pc, #48]	; (104bc8 <rt_tsk_delete+0xac>)
  104b98:	f852 3023 	ldr.w	r3, [r2, r3, lsl #2]
  104b9c:	9303      	str	r3, [sp, #12]
  104b9e:	9803      	ldr	r0, [sp, #12]
  104ba0:	f7ff f974 	bl	103e8c <rt_rmv_list>
  104ba4:	9803      	ldr	r0, [sp, #12]
  104ba6:	f7ff f99f 	bl	103ee8 <rt_rmv_dly>
  104baa:	9b01      	ldr	r3, [sp, #4]
  104bac:	3b01      	subs	r3, #1
  104bae:	4a06      	ldr	r2, [pc, #24]	; (104bc8 <rt_tsk_delete+0xac>)
  104bb0:	2100      	movs	r1, #0
  104bb2:	f842 1023 	str.w	r1, [r2, r3, lsl #2]
  104bb6:	9b03      	ldr	r3, [sp, #12]
  104bb8:	2200      	movs	r2, #0
  104bba:	62da      	str	r2, [r3, #44]	; 0x2c
  104bbc:	2300      	movs	r3, #0
  104bbe:	4618      	mov	r0, r3
  104bc0:	b004      	add	sp, #16
  104bc2:	bd10      	pop	{r4, pc}
  104bc4:	3fff4880 	.word	0x3fff4880
  104bc8:	3fff516c 	.word	0x3fff516c
  104bcc:	0010dfaa 	.word	0x0010dfaa

00104bd0 <rt_sys_init>:
  104bd0:	b500      	push	{lr}
  104bd2:	b083      	sub	sp, #12
  104bd4:	2300      	movs	r3, #0
  104bd6:	9301      	str	r3, [sp, #4]
  104bd8:	e007      	b.n	104bea <rt_sys_init+0x1a>
  104bda:	4a24      	ldr	r2, [pc, #144]	; (104c6c <rt_sys_init+0x9c>)
  104bdc:	9b01      	ldr	r3, [sp, #4]
  104bde:	2100      	movs	r1, #0
  104be0:	f842 1023 	str.w	r1, [r2, r3, lsl #2]
  104be4:	9b01      	ldr	r3, [sp, #4]
  104be6:	3301      	adds	r3, #1
  104be8:	9301      	str	r3, [sp, #4]
  104bea:	4b21      	ldr	r3, [pc, #132]	; (104c70 <rt_sys_init+0xa0>)
  104bec:	881b      	ldrh	r3, [r3, #0]
  104bee:	461a      	mov	r2, r3
  104bf0:	9b01      	ldr	r3, [sp, #4]
  104bf2:	429a      	cmp	r2, r3
  104bf4:	d8f1      	bhi.n	104bda <rt_sys_init+0xa>
  104bf6:	4b1f      	ldr	r3, [pc, #124]	; (104c74 <rt_sys_init+0xa4>)
  104bf8:	22ff      	movs	r2, #255	; 0xff
  104bfa:	70da      	strb	r2, [r3, #3]
  104bfc:	4b1e      	ldr	r3, [pc, #120]	; (104c78 <rt_sys_init+0xa8>)
  104bfe:	881b      	ldrh	r3, [r3, #0]
  104c00:	461a      	mov	r2, r3
  104c02:	4b1c      	ldr	r3, [pc, #112]	; (104c74 <rt_sys_init+0xa4>)
  104c04:	625a      	str	r2, [r3, #36]	; 0x24
  104c06:	4b1b      	ldr	r3, [pc, #108]	; (104c74 <rt_sys_init+0xa4>)
  104c08:	4a1c      	ldr	r2, [pc, #112]	; (104c7c <rt_sys_init+0xac>)
  104c0a:	62da      	str	r2, [r3, #44]	; 0x2c
  104c0c:	4a1c      	ldr	r2, [pc, #112]	; (104c80 <rt_sys_init+0xb0>)
  104c0e:	2100      	movs	r1, #0
  104c10:	4818      	ldr	r0, [pc, #96]	; (104c74 <rt_sys_init+0xa4>)
  104c12:	f7ff fe6f 	bl	1048f4 <rt_init_context>
  104c16:	4b1b      	ldr	r3, [pc, #108]	; (104c84 <rt_sys_init+0xb4>)
  104c18:	2204      	movs	r2, #4
  104c1a:	701a      	strb	r2, [r3, #0]
  104c1c:	4b19      	ldr	r3, [pc, #100]	; (104c84 <rt_sys_init+0xb4>)
  104c1e:	2200      	movs	r2, #0
  104c20:	605a      	str	r2, [r3, #4]
  104c22:	4b19      	ldr	r3, [pc, #100]	; (104c88 <rt_sys_init+0xb8>)
  104c24:	2204      	movs	r2, #4
  104c26:	701a      	strb	r2, [r3, #0]
  104c28:	4b17      	ldr	r3, [pc, #92]	; (104c88 <rt_sys_init+0xb8>)
  104c2a:	2200      	movs	r2, #0
  104c2c:	60da      	str	r2, [r3, #12]
  104c2e:	4b16      	ldr	r3, [pc, #88]	; (104c88 <rt_sys_init+0xb8>)
  104c30:	2200      	movs	r2, #0
  104c32:	611a      	str	r2, [r3, #16]
  104c34:	4b14      	ldr	r3, [pc, #80]	; (104c88 <rt_sys_init+0xb8>)
  104c36:	2200      	movs	r2, #0
  104c38:	829a      	strh	r2, [r3, #20]
  104c3a:	4b14      	ldr	r3, [pc, #80]	; (104c8c <rt_sys_init+0xbc>)
  104c3c:	4a0d      	ldr	r2, [pc, #52]	; (104c74 <rt_sys_init+0xa4>)
  104c3e:	601a      	str	r2, [r3, #0]
  104c40:	4b12      	ldr	r3, [pc, #72]	; (104c8c <rt_sys_init+0xbc>)
  104c42:	681b      	ldr	r3, [r3, #0]
  104c44:	2202      	movs	r2, #2
  104c46:	705a      	strb	r2, [r3, #1]
  104c48:	4b11      	ldr	r3, [pc, #68]	; (104c90 <rt_sys_init+0xc0>)
  104c4a:	2200      	movs	r2, #0
  104c4c:	701a      	strb	r2, [r3, #0]
  104c4e:	4b10      	ldr	r3, [pc, #64]	; (104c90 <rt_sys_init+0xc0>)
  104c50:	2200      	movs	r2, #0
  104c52:	705a      	strb	r2, [r3, #1]
  104c54:	4b0e      	ldr	r3, [pc, #56]	; (104c90 <rt_sys_init+0xc0>)
  104c56:	4a0f      	ldr	r2, [pc, #60]	; (104c94 <rt_sys_init+0xc4>)
  104c58:	7812      	ldrb	r2, [r2, #0]
  104c5a:	70da      	strb	r2, [r3, #3]
  104c5c:	f000 f99a 	bl	104f94 <rt_init_robin>
  104c60:	f7ff fdee 	bl	104840 <rt_svc_init>
  104c64:	bf00      	nop
  104c66:	b003      	add	sp, #12
  104c68:	f85d fb04 	ldr.w	pc, [sp], #4
  104c6c:	3fff516c 	.word	0x3fff516c
  104c70:	0010dfaa 	.word	0x0010dfaa
  104c74:	3fff4888 	.word	0x3fff4888
  104c78:	0010dfbc 	.word	0x0010dfbc
  104c7c:	3fff5184 	.word	0x3fff5184
  104c80:	00104ce5 	.word	0x00104ce5
  104c84:	3fff484c 	.word	0x3fff484c
  104c88:	3fff4864 	.word	0x3fff4864
  104c8c:	3fff4880 	.word	0x3fff4880
  104c90:	3fff48c0 	.word	0x3fff48c0
  104c94:	0010dfbe 	.word	0x0010dfbe

00104c98 <rt_sys_start>:
  104c98:	b508      	push	{r3, lr}
  104c9a:	f7ff fd81 	bl	1047a0 <os_tick_init>
  104c9e:	4602      	mov	r2, r0
  104ca0:	4b0f      	ldr	r3, [pc, #60]	; (104ce0 <rt_sys_start+0x48>)
  104ca2:	601a      	str	r2, [r3, #0]
  104ca4:	4b0e      	ldr	r3, [pc, #56]	; (104ce0 <rt_sys_start+0x48>)
  104ca6:	681b      	ldr	r3, [r3, #0]
  104ca8:	2b00      	cmp	r3, #0
  104caa:	db17      	blt.n	104cdc <rt_sys_start+0x44>
  104cac:	4b0c      	ldr	r3, [pc, #48]	; (104ce0 <rt_sys_start+0x48>)
  104cae:	681b      	ldr	r3, [r3, #0]
  104cb0:	f103 4360 	add.w	r3, r3, #3758096384	; 0xe0000000
  104cb4:	f503 4364 	add.w	r3, r3, #58368	; 0xe400
  104cb8:	22ff      	movs	r2, #255	; 0xff
  104cba:	701a      	strb	r2, [r3, #0]
  104cbc:	4b08      	ldr	r3, [pc, #32]	; (104ce0 <rt_sys_start+0x48>)
  104cbe:	681b      	ldr	r3, [r3, #0]
  104cc0:	115b      	asrs	r3, r3, #5
  104cc2:	009b      	lsls	r3, r3, #2
  104cc4:	f103 4360 	add.w	r3, r3, #3758096384	; 0xe0000000
  104cc8:	f503 4361 	add.w	r3, r3, #57600	; 0xe100
  104ccc:	4a04      	ldr	r2, [pc, #16]	; (104ce0 <rt_sys_start+0x48>)
  104cce:	6812      	ldr	r2, [r2, #0]
  104cd0:	f002 021f 	and.w	r2, r2, #31
  104cd4:	2101      	movs	r1, #1
  104cd6:	fa01 f202 	lsl.w	r2, r1, r2
  104cda:	601a      	str	r2, [r3, #0]
  104cdc:	bf00      	nop
  104cde:	bd08      	pop	{r3, pc}
  104ce0:	3fff487c 	.word	0x3fff487c

00104ce4 <os_idle_demon>:
  104ce4:	b508      	push	{r3, lr}
  104ce6:	f000 f8d9 	bl	104e9c <rtos_idle_loop>
  104cea:	bf00      	nop
  104cec:	bd08      	pop	{r3, pc}
  104cee:	bf00      	nop

00104cf0 <os_error>:
  104cf0:	b500      	push	{lr}
  104cf2:	b083      	sub	sp, #12
  104cf4:	9001      	str	r0, [sp, #4]
  104cf6:	f000 f9a1 	bl	10503c <mbed_die>
  104cfa:	bf00      	nop
  104cfc:	b003      	add	sp, #12
  104cfe:	f85d fb04 	ldr.w	pc, [sp], #4
  104d02:	bf00      	nop

00104d04 <sysThreadError>:
  104d04:	b500      	push	{lr}
  104d06:	b083      	sub	sp, #12
  104d08:	9001      	str	r0, [sp, #4]
  104d0a:	9b01      	ldr	r3, [sp, #4]
  104d0c:	2b00      	cmp	r3, #0
  104d0e:	d001      	beq.n	104d14 <sysThreadError+0x10>
  104d10:	f000 f994 	bl	10503c <mbed_die>
  104d14:	bf00      	nop
  104d16:	b003      	add	sp, #12
  104d18:	f85d fb04 	ldr.w	pc, [sp], #4

00104d1c <set_main_stack>:
  104d1c:	4903      	ldr	r1, [pc, #12]	; (104d2c <set_main_stack+0x10>)
  104d1e:	4b04      	ldr	r3, [pc, #16]	; (104d30 <set_main_stack+0x14>)
  104d20:	4a04      	ldr	r2, [pc, #16]	; (104d34 <set_main_stack+0x18>)
  104d22:	1a5b      	subs	r3, r3, r1
  104d24:	6093      	str	r3, [r2, #8]
  104d26:	60d1      	str	r1, [r2, #12]
  104d28:	4770      	bx	lr
  104d2a:	bf00      	nop
  104d2c:	3fff53a0 	.word	0x3fff53a0
  104d30:	3fffd400 	.word	0x3fffd400
  104d34:	3fff4050 	.word	0x3fff4050

00104d38 <software_init_hook>:
  104d38:	2000      	movs	r0, #0
  104d3a:	2100      	movs	r1, #0
  104d3c:	4604      	mov	r4, r0
  104d3e:	460d      	mov	r5, r1
  104d40:	4809      	ldr	r0, [pc, #36]	; (104d68 <software_init_hook+0x30>)
  104d42:	f003 fd27 	bl	108794 <atexit>
  104d46:	f004 f8a1 	bl	108e8c <__libc_init_array>
  104d4a:	4620      	mov	r0, r4
  104d4c:	4629      	mov	r1, r5
  104d4e:	f7fe fa3b 	bl	1031c8 <osKernelInitialize>
  104d52:	f7ff ffe3 	bl	104d1c <set_main_stack>
  104d56:	4805      	ldr	r0, [pc, #20]	; (104d6c <software_init_hook+0x34>)
  104d58:	2100      	movs	r1, #0
  104d5a:	f7fe fb4f 	bl	1033fc <osThreadCreate>
  104d5e:	f7fe fa53 	bl	103208 <osKernelStart>
  104d62:	f003 fd31 	bl	1087c8 <exit>
  104d66:	0000      	.short	0x0000
  104d68:	00108bed 	.word	0x00108bed
  104d6c:	3fff4050 	.word	0x3fff4050

00104d70 <rt_set_PSP>:
  104d70:	f380 8809 	msr	PSP, r0
  104d74:	4770      	bx	lr

00104d76 <rt_get_PSP>:
  104d76:	f3ef 8009 	mrs	r0, PSP
  104d7a:	4770      	bx	lr

00104d7c <os_set_env>:
  104d7c:	4668      	mov	r0, sp
  104d7e:	f380 8809 	msr	PSP, r0
  104d82:	483f      	ldr	r0, [pc, #252]	; (104e80 <OS_Tick_Handler+0xc>)
  104d84:	7800      	ldrb	r0, [r0, #0]
  104d86:	07c0      	lsls	r0, r0, #31
  104d88:	bf14      	ite	ne
  104d8a:	2002      	movne	r0, #2
  104d8c:	2003      	moveq	r0, #3
  104d8e:	f380 8814 	msr	CONTROL, r0
  104d92:	4770      	bx	lr

00104d94 <_alloc_box>:
  104d94:	f8df c0ec 	ldr.w	r12, [pc, #236]	; 104e84 <OS_Tick_Handler+0x10>
  104d98:	f3ef 8305 	mrs	r3, IPSR
  104d9c:	061b      	lsls	r3, r3, #24
  104d9e:	bf18      	it	ne
  104da0:	4760      	bxne	r12
  104da2:	f3ef 8314 	mrs	r3, CONTROL
  104da6:	07db      	lsls	r3, r3, #31
  104da8:	bf08      	it	eq
  104daa:	4760      	bxeq	r12
  104dac:	df00      	svc	0
  104dae:	4770      	bx	lr

00104db0 <_free_box>:
  104db0:	f8df c0d4 	ldr.w	r12, [pc, #212]	; 104e88 <OS_Tick_Handler+0x14>
  104db4:	f3ef 8305 	mrs	r3, IPSR
  104db8:	061b      	lsls	r3, r3, #24
  104dba:	bf18      	it	ne
  104dbc:	4760      	bxne	r12
  104dbe:	f3ef 8314 	mrs	r3, CONTROL
  104dc2:	07db      	lsls	r3, r3, #31
  104dc4:	bf08      	it	eq
  104dc6:	4760      	bxeq	r12
  104dc8:	df00      	svc	0
  104dca:	4770      	bx	lr

00104dcc <SVC_Handler>:
  104dcc:	f3ef 8009 	mrs	r0, PSP
  104dd0:	6981      	ldr	r1, [r0, #24]
  104dd2:	f811 1c02 	ldrb.w	r1, [r1, #-2]
  104dd6:	b9f1      	cbnz	r1, 104e16 <SVC_User>
  104dd8:	e890 100f 	ldmia.w	r0, {r0, r1, r2, r3, r12}
  104ddc:	47e0      	blx	r12
  104dde:	f3ef 8c09 	mrs	r12, PSP
  104de2:	e88c 0007 	stmia.w	r12, {r0, r1, r2}
  104de6:	4b29      	ldr	r3, [pc, #164]	; (104e8c <OS_Tick_Handler+0x18>)
  104de8:	e893 0006 	ldmia.w	r3, {r1, r2}
  104dec:	4291      	cmp	r1, r2
  104dee:	d00f      	beq.n	104e10 <SVC_Exit>
  104df0:	b139      	cbz	r1, 104e02 <SVC_Next>
  104df2:	e92c 0ff0 	stmdb	r12!, {r4, r5, r6, r7, r8, r9, r10, r11}
  104df6:	f8c1 c028 	str.w	r12, [r1, #40]	; 0x28
  104dfa:	b40c      	push	{r2, r3}
  104dfc:	f7ff fd02 	bl	104804 <rt_stk_check>
  104e00:	bc0c      	pop	{r2, r3}

00104e02 <SVC_Next>:
  104e02:	601a      	str	r2, [r3, #0]
  104e04:	f8d2 c028 	ldr.w	r12, [r2, #40]	; 0x28
  104e08:	e8bc 0ff0 	ldmia.w	r12!, {r4, r5, r6, r7, r8, r9, r10, r11}
  104e0c:	f38c 8809 	msr	PSP, r12

00104e10 <SVC_Exit>:
  104e10:	f06f 0e02 	mvn.w	lr, #2
  104e14:	4770      	bx	lr

00104e16 <SVC_User>:
  104e16:	b510      	push	{r4, lr}
  104e18:	4a1d      	ldr	r2, [pc, #116]	; (104e90 <OS_Tick_Handler+0x1c>)
  104e1a:	6812      	ldr	r2, [r2, #0]
  104e1c:	4291      	cmp	r1, r2
  104e1e:	d809      	bhi.n	104e34 <SVC_Done>
  104e20:	4c1c      	ldr	r4, [pc, #112]	; (104e94 <OS_Tick_Handler+0x20>)
  104e22:	f854 4021 	ldr.w	r4, [r4, r1, lsl #2]
  104e26:	e890 100f 	ldmia.w	r0, {r0, r1, r2, r3, r12}
  104e2a:	47a0      	blx	r4
  104e2c:	f3ef 8c09 	mrs	r12, PSP
  104e30:	e88c 000f 	stmia.w	r12, {r0, r1, r2, r3}

00104e34 <SVC_Done>:
  104e34:	bd10      	pop	{r4, pc}

00104e36 <PendSV_Handler>:
  104e36:	f7ff fc4d 	bl	1046d4 <rt_pop_req>

00104e3a <Sys_Switch>:
  104e3a:	4b14      	ldr	r3, [pc, #80]	; (104e8c <OS_Tick_Handler+0x18>)
  104e3c:	e893 0006 	ldmia.w	r3, {r1, r2}
  104e40:	4291      	cmp	r1, r2
  104e42:	d010      	beq.n	104e66 <Sys_Exit>
  104e44:	f3ef 8c09 	mrs	r12, PSP
  104e48:	e92c 0ff0 	stmdb	r12!, {r4, r5, r6, r7, r8, r9, r10, r11}
  104e4c:	f8c1 c028 	str.w	r12, [r1, #40]	; 0x28
  104e50:	b40c      	push	{r2, r3}
  104e52:	f7ff fcd7 	bl	104804 <rt_stk_check>
  104e56:	bc0c      	pop	{r2, r3}
  104e58:	601a      	str	r2, [r3, #0]
  104e5a:	f8d2 c028 	ldr.w	r12, [r2, #40]	; 0x28
  104e5e:	e8bc 0ff0 	ldmia.w	r12!, {r4, r5, r6, r7, r8, r9, r10, r11}
  104e62:	f38c 8809 	msr	PSP, r12

00104e66 <Sys_Exit>:
  104e66:	f06f 0e02 	mvn.w	lr, #2
  104e6a:	4770      	bx	lr

00104e6c <SysTick_Handler>:
  104e6c:	f7ff fca2 	bl	1047b4 <rt_systick>
  104e70:	f7ff bfe3 	b.w	104e3a <Sys_Switch>

00104e74 <OS_Tick_Handler>:
  104e74:	f7ff fc9c 	bl	1047b0 <os_tick_irqack>
  104e78:	f7ff fc9c 	bl	1047b4 <rt_systick>
  104e7c:	f7ff bfdd 	b.w	104e3a <Sys_Switch>
  104e80:	0010dfb4 	.word	0x0010dfb4
  104e84:	00104315 	.word	0x00104315
  104e88:	0010434d 	.word	0x0010434d
  104e8c:	3fff4880 	.word	0x3fff4880
  104e90:	00000000 	.word	0x00000000
  104e94:	fffffffc 	.word	0xfffffffc

00104e98 <default_idle_hook>:
  104e98:	bf00      	nop
  104e9a:	4770      	bx	lr

00104e9c <rtos_idle_loop>:
  104e9c:	b508      	push	{r3, lr}
  104e9e:	4b02      	ldr	r3, [pc, #8]	; (104ea8 <rtos_idle_loop+0xc>)
  104ea0:	681b      	ldr	r3, [r3, #0]
  104ea2:	4798      	blx	r3
  104ea4:	e7fb      	b.n	104e9e <rtos_idle_loop+0x2>
  104ea6:	bf00      	nop
  104ea8:	3fff4094 	.word	0x3fff4094

00104eac <rt_init_stack>:
  104eac:	b086      	sub	sp, #24
  104eae:	9001      	str	r0, [sp, #4]
  104eb0:	9100      	str	r1, [sp, #0]
  104eb2:	9b01      	ldr	r3, [sp, #4]
  104eb4:	6a5b      	ldr	r3, [r3, #36]	; 0x24
  104eb6:	089b      	lsrs	r3, r3, #2
  104eb8:	9303      	str	r3, [sp, #12]
  104eba:	9b01      	ldr	r3, [sp, #4]
  104ebc:	6ada      	ldr	r2, [r3, #44]	; 0x2c
  104ebe:	9b03      	ldr	r3, [sp, #12]
  104ec0:	009b      	lsls	r3, r3, #2
  104ec2:	4413      	add	r3, r2
  104ec4:	9305      	str	r3, [sp, #20]
  104ec6:	9b05      	ldr	r3, [sp, #20]
  104ec8:	f003 0304 	and.w	r3, r3, #4
  104ecc:	2b00      	cmp	r3, #0
  104ece:	d002      	beq.n	104ed6 <rt_init_stack+0x2a>
  104ed0:	9b05      	ldr	r3, [sp, #20]
  104ed2:	3b04      	subs	r3, #4
  104ed4:	9305      	str	r3, [sp, #20]
  104ed6:	9b05      	ldr	r3, [sp, #20]
  104ed8:	3b40      	subs	r3, #64	; 0x40
  104eda:	9305      	str	r3, [sp, #20]
  104edc:	9b05      	ldr	r3, [sp, #20]
  104ede:	333c      	adds	r3, #60	; 0x3c
  104ee0:	f04f 7280 	mov.w	r2, #16777216	; 0x1000000
  104ee4:	601a      	str	r2, [r3, #0]
  104ee6:	9b05      	ldr	r3, [sp, #20]
  104ee8:	3338      	adds	r3, #56	; 0x38
  104eea:	9a00      	ldr	r2, [sp, #0]
  104eec:	601a      	str	r2, [r3, #0]
  104eee:	2300      	movs	r3, #0
  104ef0:	9304      	str	r3, [sp, #16]
  104ef2:	e008      	b.n	104f06 <rt_init_stack+0x5a>
  104ef4:	9b04      	ldr	r3, [sp, #16]
  104ef6:	009b      	lsls	r3, r3, #2
  104ef8:	9a05      	ldr	r2, [sp, #20]
  104efa:	4413      	add	r3, r2
  104efc:	2200      	movs	r2, #0
  104efe:	601a      	str	r2, [r3, #0]
  104f00:	9b04      	ldr	r3, [sp, #16]
  104f02:	3301      	adds	r3, #1
  104f04:	9304      	str	r3, [sp, #16]
  104f06:	9b04      	ldr	r3, [sp, #16]
  104f08:	2b0d      	cmp	r3, #13
  104f0a:	d9f3      	bls.n	104ef4 <rt_init_stack+0x48>
  104f0c:	9b05      	ldr	r3, [sp, #20]
  104f0e:	3320      	adds	r3, #32
  104f10:	9a01      	ldr	r2, [sp, #4]
  104f12:	69d2      	ldr	r2, [r2, #28]
  104f14:	601a      	str	r2, [r3, #0]
  104f16:	9a05      	ldr	r2, [sp, #20]
  104f18:	9b01      	ldr	r3, [sp, #4]
  104f1a:	629a      	str	r2, [r3, #40]	; 0x28
  104f1c:	9b01      	ldr	r3, [sp, #4]
  104f1e:	9a00      	ldr	r2, [sp, #0]
  104f20:	631a      	str	r2, [r3, #48]	; 0x30
  104f22:	9b01      	ldr	r3, [sp, #4]
  104f24:	78db      	ldrb	r3, [r3, #3]
  104f26:	2b01      	cmp	r3, #1
  104f28:	d003      	beq.n	104f32 <rt_init_stack+0x86>
  104f2a:	9b01      	ldr	r3, [sp, #4]
  104f2c:	6adb      	ldr	r3, [r3, #44]	; 0x2c
  104f2e:	4a02      	ldr	r2, [pc, #8]	; (104f38 <rt_init_stack+0x8c>)
  104f30:	601a      	str	r2, [r3, #0]
  104f32:	bf00      	nop
  104f34:	b006      	add	sp, #24
  104f36:	4770      	bx	lr
  104f38:	e25a2ea5 	.word	0xe25a2ea5

00104f3c <rt_ret_regs>:
  104f3c:	b082      	sub	sp, #8
  104f3e:	9001      	str	r0, [sp, #4]
  104f40:	9b01      	ldr	r3, [sp, #4]
  104f42:	6a9b      	ldr	r3, [r3, #40]	; 0x28
  104f44:	3320      	adds	r3, #32
  104f46:	4618      	mov	r0, r3
  104f48:	b002      	add	sp, #8
  104f4a:	4770      	bx	lr

00104f4c <rt_ret_val>:
  104f4c:	b500      	push	{lr}
  104f4e:	b085      	sub	sp, #20
  104f50:	9001      	str	r0, [sp, #4]
  104f52:	9100      	str	r1, [sp, #0]
  104f54:	9801      	ldr	r0, [sp, #4]
  104f56:	f7ff fff1 	bl	104f3c <rt_ret_regs>
  104f5a:	9003      	str	r0, [sp, #12]
  104f5c:	9b03      	ldr	r3, [sp, #12]
  104f5e:	9a00      	ldr	r2, [sp, #0]
  104f60:	601a      	str	r2, [r3, #0]
  104f62:	bf00      	nop
  104f64:	b005      	add	sp, #20
  104f66:	f85d fb04 	ldr.w	pc, [sp], #4
  104f6a:	bf00      	nop

00104f6c <rt_ret_val2>:
  104f6c:	b500      	push	{lr}
  104f6e:	b087      	sub	sp, #28
  104f70:	9003      	str	r0, [sp, #12]
  104f72:	9102      	str	r1, [sp, #8]
  104f74:	9201      	str	r2, [sp, #4]
  104f76:	9803      	ldr	r0, [sp, #12]
  104f78:	f7ff ffe0 	bl	104f3c <rt_ret_regs>
  104f7c:	9005      	str	r0, [sp, #20]
  104f7e:	9b05      	ldr	r3, [sp, #20]
  104f80:	9a02      	ldr	r2, [sp, #8]
  104f82:	601a      	str	r2, [r3, #0]
  104f84:	9b05      	ldr	r3, [sp, #20]
  104f86:	3304      	adds	r3, #4
  104f88:	9a01      	ldr	r2, [sp, #4]
  104f8a:	601a      	str	r2, [r3, #0]
  104f8c:	bf00      	nop
  104f8e:	b007      	add	sp, #28
  104f90:	f85d fb04 	ldr.w	pc, [sp], #4

00104f94 <rt_init_robin>:
  104f94:	4b04      	ldr	r3, [pc, #16]	; (104fa8 <rt_init_robin+0x14>)
  104f96:	2200      	movs	r2, #0
  104f98:	601a      	str	r2, [r3, #0]
  104f9a:	4b04      	ldr	r3, [pc, #16]	; (104fac <rt_init_robin+0x18>)
  104f9c:	681b      	ldr	r3, [r3, #0]
  104f9e:	b29a      	uxth	r2, r3
  104fa0:	4b01      	ldr	r3, [pc, #4]	; (104fa8 <rt_init_robin+0x14>)
  104fa2:	80da      	strh	r2, [r3, #6]
  104fa4:	bf00      	nop
  104fa6:	4770      	bx	lr
  104fa8:	3fff5384 	.word	0x3fff5384
  104fac:	0010dfac 	.word	0x0010dfac

00104fb0 <rt_chk_robin>:
  104fb0:	b500      	push	{lr}
  104fb2:	b083      	sub	sp, #12
  104fb4:	4b15      	ldr	r3, [pc, #84]	; (10500c <rt_chk_robin+0x5c>)
  104fb6:	681a      	ldr	r2, [r3, #0]
  104fb8:	4b15      	ldr	r3, [pc, #84]	; (105010 <rt_chk_robin+0x60>)
  104fba:	685b      	ldr	r3, [r3, #4]
  104fbc:	429a      	cmp	r2, r3
  104fbe:	d00e      	beq.n	104fde <rt_chk_robin+0x2e>
  104fc0:	4b13      	ldr	r3, [pc, #76]	; (105010 <rt_chk_robin+0x60>)
  104fc2:	685b      	ldr	r3, [r3, #4]
  104fc4:	4a11      	ldr	r2, [pc, #68]	; (10500c <rt_chk_robin+0x5c>)
  104fc6:	6013      	str	r3, [r2, #0]
  104fc8:	4b12      	ldr	r3, [pc, #72]	; (105014 <rt_chk_robin+0x64>)
  104fca:	681b      	ldr	r3, [r3, #0]
  104fcc:	b29a      	uxth	r2, r3
  104fce:	4b0f      	ldr	r3, [pc, #60]	; (10500c <rt_chk_robin+0x5c>)
  104fd0:	88db      	ldrh	r3, [r3, #6]
  104fd2:	4413      	add	r3, r2
  104fd4:	b29b      	uxth	r3, r3
  104fd6:	3b01      	subs	r3, #1
  104fd8:	b29a      	uxth	r2, r3
  104fda:	4b0c      	ldr	r3, [pc, #48]	; (10500c <rt_chk_robin+0x5c>)
  104fdc:	809a      	strh	r2, [r3, #4]
  104fde:	4b0b      	ldr	r3, [pc, #44]	; (10500c <rt_chk_robin+0x5c>)
  104fe0:	889b      	ldrh	r3, [r3, #4]
  104fe2:	461a      	mov	r2, r3
  104fe4:	4b0b      	ldr	r3, [pc, #44]	; (105014 <rt_chk_robin+0x64>)
  104fe6:	681b      	ldr	r3, [r3, #0]
  104fe8:	b29b      	uxth	r3, r3
  104fea:	429a      	cmp	r2, r3
  104fec:	d10a      	bne.n	105004 <rt_chk_robin+0x54>
  104fee:	4b07      	ldr	r3, [pc, #28]	; (10500c <rt_chk_robin+0x5c>)
  104ff0:	2200      	movs	r2, #0
  104ff2:	601a      	str	r2, [r3, #0]
  104ff4:	4806      	ldr	r0, [pc, #24]	; (105010 <rt_chk_robin+0x60>)
  104ff6:	f7fe fe1d 	bl	103c34 <rt_get_first>
  104ffa:	9001      	str	r0, [sp, #4]
  104ffc:	9901      	ldr	r1, [sp, #4]
  104ffe:	4804      	ldr	r0, [pc, #16]	; (105010 <rt_chk_robin+0x60>)
  105000:	f7fe fdd6 	bl	103bb0 <rt_put_prio>
  105004:	bf00      	nop
  105006:	b003      	add	sp, #12
  105008:	f85d fb04 	ldr.w	pc, [sp], #4
  10500c:	3fff5384 	.word	0x3fff5384
  105010:	3fff484c 	.word	0x3fff484c
  105014:	3fff48bc 	.word	0x3fff48bc

00105018 <mbed_assert_internal>:
  105018:	b500      	push	{lr}
  10501a:	b085      	sub	sp, #20
  10501c:	9003      	str	r0, [sp, #12]
  10501e:	9102      	str	r1, [sp, #8]
  105020:	9201      	str	r2, [sp, #4]
  105022:	9b01      	ldr	r3, [sp, #4]
  105024:	9a02      	ldr	r2, [sp, #8]
  105026:	9903      	ldr	r1, [sp, #12]
  105028:	4803      	ldr	r0, [pc, #12]	; (105038 <mbed_assert_internal+0x20>)
  10502a:	f000 f811 	bl	105050 <error>
  10502e:	bf00      	nop
  105030:	b005      	add	sp, #20
  105032:	f85d fb04 	ldr.w	pc, [sp], #4
  105036:	bf00      	nop
  105038:	0010dfc0 	.word	0x0010dfc0

0010503c <mbed_die>:
  10503c:	b508      	push	{r3, lr}
  10503e:	b672      	cpsid	i
  105040:	2096      	movs	r0, #150	; 0x96
  105042:	f000 f9f7 	bl	105434 <wait_ms>
  105046:	2096      	movs	r0, #150	; 0x96
  105048:	f000 f9f4 	bl	105434 <wait_ms>
  10504c:	e7f8      	b.n	105040 <mbed_die+0x4>
  10504e:	bf00      	nop

00105050 <error>:
  105050:	b40f      	push	{r0, r1, r2, r3}
  105052:	b508      	push	{r3, lr}
  105054:	2001      	movs	r0, #1
  105056:	f003 fbb7 	bl	1087c8 <exit>
  10505a:	bf00      	nop

0010505c <gpio_write>:
  10505c:	b500      	push	{lr}
  10505e:	b083      	sub	sp, #12
  105060:	9001      	str	r0, [sp, #4]
  105062:	9100      	str	r1, [sp, #0]
  105064:	9b01      	ldr	r3, [sp, #4]
  105066:	681b      	ldr	r3, [r3, #0]
  105068:	f1b3 3fff 	cmp.w	r3, #4294967295
  10506c:	d104      	bne.n	105078 <gpio_write+0x1c>
  10506e:	2224      	movs	r2, #36	; 0x24
  105070:	490e      	ldr	r1, [pc, #56]	; (1050ac <gpio_write+0x50>)
  105072:	480f      	ldr	r0, [pc, #60]	; (1050b0 <gpio_write+0x54>)
  105074:	f7ff ffd0 	bl	105018 <mbed_assert_internal>
  105078:	9b00      	ldr	r3, [sp, #0]
  10507a:	2b00      	cmp	r3, #0
  10507c:	d009      	beq.n	105092 <gpio_write+0x36>
  10507e:	9b01      	ldr	r3, [sp, #4]
  105080:	68db      	ldr	r3, [r3, #12]
  105082:	9a01      	ldr	r2, [sp, #4]
  105084:	68d2      	ldr	r2, [r2, #12]
  105086:	6812      	ldr	r2, [r2, #0]
  105088:	9901      	ldr	r1, [sp, #4]
  10508a:	6809      	ldr	r1, [r1, #0]
  10508c:	430a      	orrs	r2, r1
  10508e:	601a      	str	r2, [r3, #0]
  105090:	e008      	b.n	1050a4 <gpio_write+0x48>
  105092:	9b01      	ldr	r3, [sp, #4]
  105094:	691b      	ldr	r3, [r3, #16]
  105096:	9a01      	ldr	r2, [sp, #4]
  105098:	6912      	ldr	r2, [r2, #16]
  10509a:	6812      	ldr	r2, [r2, #0]
  10509c:	9901      	ldr	r1, [sp, #4]
  10509e:	6809      	ldr	r1, [r1, #0]
  1050a0:	430a      	orrs	r2, r1
  1050a2:	601a      	str	r2, [r3, #0]
  1050a4:	bf00      	nop
  1050a6:	b003      	add	sp, #12
  1050a8:	f85d fb04 	ldr.w	pc, [sp], #4
  1050ac:	0010dff4 	.word	0x0010dff4
  1050b0:	0010e040 	.word	0x0010e040

001050b4 <_gpio_init_in>:
  1050b4:	b500      	push	{lr}
  1050b6:	b085      	sub	sp, #20
  1050b8:	9003      	str	r0, [sp, #12]
  1050ba:	9102      	str	r1, [sp, #8]
  1050bc:	4613      	mov	r3, r2
  1050be:	f88d 3007 	strb.w	r3, [sp, #7]
  1050c2:	9902      	ldr	r1, [sp, #8]
  1050c4:	9803      	ldr	r0, [sp, #12]
  1050c6:	f000 fa7d 	bl	1055c4 <gpio_init>
  1050ca:	9b02      	ldr	r3, [sp, #8]
  1050cc:	f1b3 3fff 	cmp.w	r3, #4294967295
  1050d0:	d009      	beq.n	1050e6 <_gpio_init_in+0x32>
  1050d2:	2100      	movs	r1, #0
  1050d4:	9803      	ldr	r0, [sp, #12]
  1050d6:	f000 fab1 	bl	10563c <gpio_dir>
  1050da:	f89d 3007 	ldrb.w	r3, [sp, #7]
  1050de:	4619      	mov	r1, r3
  1050e0:	9803      	ldr	r0, [sp, #12]
  1050e2:	f000 faa3 	bl	10562c <gpio_mode>
  1050e6:	bf00      	nop
  1050e8:	b005      	add	sp, #20
  1050ea:	f85d fb04 	ldr.w	pc, [sp], #4
  1050ee:	bf00      	nop

001050f0 <PAD_out_Config>:
  1050f0:	b082      	sub	sp, #8
  1050f2:	9001      	str	r0, [sp, #4]
  1050f4:	9b01      	ldr	r3, [sp, #4]
  1050f6:	2b01      	cmp	r3, #1
  1050f8:	d103      	bne.n	105102 <PAD_out_Config+0x12>
  1050fa:	4b2d      	ldr	r3, [pc, #180]	; (1051b0 <PAD_out_Config+0xc0>)
  1050fc:	2205      	movs	r2, #5
  1050fe:	601a      	str	r2, [r3, #0]
  105100:	e052      	b.n	1051a8 <PAD_out_Config+0xb8>
  105102:	9b01      	ldr	r3, [sp, #4]
  105104:	2b02      	cmp	r3, #2
  105106:	d103      	bne.n	105110 <PAD_out_Config+0x20>
  105108:	4b29      	ldr	r3, [pc, #164]	; (1051b0 <PAD_out_Config+0xc0>)
  10510a:	2205      	movs	r2, #5
  10510c:	601a      	str	r2, [r3, #0]
  10510e:	e04b      	b.n	1051a8 <PAD_out_Config+0xb8>
  105110:	9b01      	ldr	r3, [sp, #4]
  105112:	2b10      	cmp	r3, #16
  105114:	d103      	bne.n	10511e <PAD_out_Config+0x2e>
  105116:	4b26      	ldr	r3, [pc, #152]	; (1051b0 <PAD_out_Config+0xc0>)
  105118:	2205      	movs	r2, #5
  10511a:	611a      	str	r2, [r3, #16]
  10511c:	e044      	b.n	1051a8 <PAD_out_Config+0xb8>
  10511e:	9b01      	ldr	r3, [sp, #4]
  105120:	2b20      	cmp	r3, #32
  105122:	d103      	bne.n	10512c <PAD_out_Config+0x3c>
  105124:	4b22      	ldr	r3, [pc, #136]	; (1051b0 <PAD_out_Config+0xc0>)
  105126:	2205      	movs	r2, #5
  105128:	615a      	str	r2, [r3, #20]
  10512a:	e03d      	b.n	1051a8 <PAD_out_Config+0xb8>
  10512c:	9b01      	ldr	r3, [sp, #4]
  10512e:	2b40      	cmp	r3, #64	; 0x40
  105130:	d103      	bne.n	10513a <PAD_out_Config+0x4a>
  105132:	4b1f      	ldr	r3, [pc, #124]	; (1051b0 <PAD_out_Config+0xc0>)
  105134:	2205      	movs	r2, #5
  105136:	619a      	str	r2, [r3, #24]
  105138:	e036      	b.n	1051a8 <PAD_out_Config+0xb8>
  10513a:	9b01      	ldr	r3, [sp, #4]
  10513c:	f5b3 6f00 	cmp.w	r3, #2048	; 0x800
  105140:	d103      	bne.n	10514a <PAD_out_Config+0x5a>
  105142:	4b1b      	ldr	r3, [pc, #108]	; (1051b0 <PAD_out_Config+0xc0>)
  105144:	2205      	movs	r2, #5
  105146:	62da      	str	r2, [r3, #44]	; 0x2c
  105148:	e02e      	b.n	1051a8 <PAD_out_Config+0xb8>
  10514a:	9b01      	ldr	r3, [sp, #4]
  10514c:	f5b3 5f80 	cmp.w	r3, #4096	; 0x1000
  105150:	d103      	bne.n	10515a <PAD_out_Config+0x6a>
  105152:	4b17      	ldr	r3, [pc, #92]	; (1051b0 <PAD_out_Config+0xc0>)
  105154:	2205      	movs	r2, #5
  105156:	631a      	str	r2, [r3, #48]	; 0x30
  105158:	e026      	b.n	1051a8 <PAD_out_Config+0xb8>
  10515a:	9b01      	ldr	r3, [sp, #4]
  10515c:	f5b3 5f00 	cmp.w	r3, #8192	; 0x2000
  105160:	d103      	bne.n	10516a <PAD_out_Config+0x7a>
  105162:	4b13      	ldr	r3, [pc, #76]	; (1051b0 <PAD_out_Config+0xc0>)
  105164:	2205      	movs	r2, #5
  105166:	635a      	str	r2, [r3, #52]	; 0x34
  105168:	e01e      	b.n	1051a8 <PAD_out_Config+0xb8>
  10516a:	9b01      	ldr	r3, [sp, #4]
  10516c:	f5b3 4f80 	cmp.w	r3, #16384	; 0x4000
  105170:	d103      	bne.n	10517a <PAD_out_Config+0x8a>
  105172:	4b0f      	ldr	r3, [pc, #60]	; (1051b0 <PAD_out_Config+0xc0>)
  105174:	2205      	movs	r2, #5
  105176:	639a      	str	r2, [r3, #56]	; 0x38
  105178:	e016      	b.n	1051a8 <PAD_out_Config+0xb8>
  10517a:	9b01      	ldr	r3, [sp, #4]
  10517c:	f5b3 4f00 	cmp.w	r3, #32768	; 0x8000
  105180:	d103      	bne.n	10518a <PAD_out_Config+0x9a>
  105182:	4b0b      	ldr	r3, [pc, #44]	; (1051b0 <PAD_out_Config+0xc0>)
  105184:	2205      	movs	r2, #5
  105186:	63da      	str	r2, [r3, #60]	; 0x3c
  105188:	e00e      	b.n	1051a8 <PAD_out_Config+0xb8>
  10518a:	9b01      	ldr	r3, [sp, #4]
  10518c:	f5b3 3f80 	cmp.w	r3, #65536	; 0x10000
  105190:	d103      	bne.n	10519a <PAD_out_Config+0xaa>
  105192:	4b07      	ldr	r3, [pc, #28]	; (1051b0 <PAD_out_Config+0xc0>)
  105194:	2205      	movs	r2, #5
  105196:	641a      	str	r2, [r3, #64]	; 0x40
  105198:	e006      	b.n	1051a8 <PAD_out_Config+0xb8>
  10519a:	9b01      	ldr	r3, [sp, #4]
  10519c:	f5b3 3f00 	cmp.w	r3, #131072	; 0x20000
  1051a0:	d102      	bne.n	1051a8 <PAD_out_Config+0xb8>
  1051a2:	4b03      	ldr	r3, [pc, #12]	; (1051b0 <PAD_out_Config+0xc0>)
  1051a4:	2205      	movs	r2, #5
  1051a6:	645a      	str	r2, [r3, #68]	; 0x44
  1051a8:	bf00      	nop
  1051aa:	b002      	add	sp, #8
  1051ac:	4770      	bx	lr
  1051ae:	bf00      	nop
  1051b0:	4001c000 	.word	0x4001c000

001051b4 <PAD_Crossbarconfig>:
  1051b4:	b082      	sub	sp, #8
  1051b6:	9001      	str	r0, [sp, #4]
  1051b8:	9b01      	ldr	r3, [sp, #4]
  1051ba:	2b01      	cmp	r3, #1
  1051bc:	d103      	bne.n	1051c6 <PAD_Crossbarconfig+0x12>
  1051be:	4b2d      	ldr	r3, [pc, #180]	; (105274 <PAD_Crossbarconfig+0xc0>)
  1051c0:	2200      	movs	r2, #0
  1051c2:	601a      	str	r2, [r3, #0]
  1051c4:	e052      	b.n	10526c <PAD_Crossbarconfig+0xb8>
  1051c6:	9b01      	ldr	r3, [sp, #4]
  1051c8:	2b02      	cmp	r3, #2
  1051ca:	d103      	bne.n	1051d4 <PAD_Crossbarconfig+0x20>
  1051cc:	4b29      	ldr	r3, [pc, #164]	; (105274 <PAD_Crossbarconfig+0xc0>)
  1051ce:	2200      	movs	r2, #0
  1051d0:	605a      	str	r2, [r3, #4]
  1051d2:	e04b      	b.n	10526c <PAD_Crossbarconfig+0xb8>
  1051d4:	9b01      	ldr	r3, [sp, #4]
  1051d6:	2b10      	cmp	r3, #16
  1051d8:	d103      	bne.n	1051e2 <PAD_Crossbarconfig+0x2e>
  1051da:	4b26      	ldr	r3, [pc, #152]	; (105274 <PAD_Crossbarconfig+0xc0>)
  1051dc:	2200      	movs	r2, #0
  1051de:	611a      	str	r2, [r3, #16]
  1051e0:	e044      	b.n	10526c <PAD_Crossbarconfig+0xb8>
  1051e2:	9b01      	ldr	r3, [sp, #4]
  1051e4:	2b20      	cmp	r3, #32
  1051e6:	d103      	bne.n	1051f0 <PAD_Crossbarconfig+0x3c>
  1051e8:	4b22      	ldr	r3, [pc, #136]	; (105274 <PAD_Crossbarconfig+0xc0>)
  1051ea:	2200      	movs	r2, #0
  1051ec:	615a      	str	r2, [r3, #20]
  1051ee:	e03d      	b.n	10526c <PAD_Crossbarconfig+0xb8>
  1051f0:	9b01      	ldr	r3, [sp, #4]
  1051f2:	2b40      	cmp	r3, #64	; 0x40
  1051f4:	d103      	bne.n	1051fe <PAD_Crossbarconfig+0x4a>
  1051f6:	4b1f      	ldr	r3, [pc, #124]	; (105274 <PAD_Crossbarconfig+0xc0>)
  1051f8:	2200      	movs	r2, #0
  1051fa:	619a      	str	r2, [r3, #24]
  1051fc:	e036      	b.n	10526c <PAD_Crossbarconfig+0xb8>
  1051fe:	9b01      	ldr	r3, [sp, #4]
  105200:	f5b3 6f00 	cmp.w	r3, #2048	; 0x800
  105204:	d103      	bne.n	10520e <PAD_Crossbarconfig+0x5a>
  105206:	4b1b      	ldr	r3, [pc, #108]	; (105274 <PAD_Crossbarconfig+0xc0>)
  105208:	2200      	movs	r2, #0
  10520a:	62da      	str	r2, [r3, #44]	; 0x2c
  10520c:	e02e      	b.n	10526c <PAD_Crossbarconfig+0xb8>
  10520e:	9b01      	ldr	r3, [sp, #4]
  105210:	f5b3 5f80 	cmp.w	r3, #4096	; 0x1000
  105214:	d103      	bne.n	10521e <PAD_Crossbarconfig+0x6a>
  105216:	4b17      	ldr	r3, [pc, #92]	; (105274 <PAD_Crossbarconfig+0xc0>)
  105218:	2200      	movs	r2, #0
  10521a:	631a      	str	r2, [r3, #48]	; 0x30
  10521c:	e026      	b.n	10526c <PAD_Crossbarconfig+0xb8>
  10521e:	9b01      	ldr	r3, [sp, #4]
  105220:	f5b3 5f00 	cmp.w	r3, #8192	; 0x2000
  105224:	d103      	bne.n	10522e <PAD_Crossbarconfig+0x7a>
  105226:	4b13      	ldr	r3, [pc, #76]	; (105274 <PAD_Crossbarconfig+0xc0>)
  105228:	2200      	movs	r2, #0
  10522a:	635a      	str	r2, [r3, #52]	; 0x34
  10522c:	e01e      	b.n	10526c <PAD_Crossbarconfig+0xb8>
  10522e:	9b01      	ldr	r3, [sp, #4]
  105230:	f5b3 4f80 	cmp.w	r3, #16384	; 0x4000
  105234:	d103      	bne.n	10523e <PAD_Crossbarconfig+0x8a>
  105236:	4b0f      	ldr	r3, [pc, #60]	; (105274 <PAD_Crossbarconfig+0xc0>)
  105238:	2200      	movs	r2, #0
  10523a:	639a      	str	r2, [r3, #56]	; 0x38
  10523c:	e016      	b.n	10526c <PAD_Crossbarconfig+0xb8>
  10523e:	9b01      	ldr	r3, [sp, #4]
  105240:	f5b3 4f00 	cmp.w	r3, #32768	; 0x8000
  105244:	d103      	bne.n	10524e <PAD_Crossbarconfig+0x9a>
  105246:	4b0b      	ldr	r3, [pc, #44]	; (105274 <PAD_Crossbarconfig+0xc0>)
  105248:	2200      	movs	r2, #0
  10524a:	63da      	str	r2, [r3, #60]	; 0x3c
  10524c:	e00e      	b.n	10526c <PAD_Crossbarconfig+0xb8>
  10524e:	9b01      	ldr	r3, [sp, #4]
  105250:	f5b3 3f80 	cmp.w	r3, #65536	; 0x10000
  105254:	d103      	bne.n	10525e <PAD_Crossbarconfig+0xaa>
  105256:	4b07      	ldr	r3, [pc, #28]	; (105274 <PAD_Crossbarconfig+0xc0>)
  105258:	2200      	movs	r2, #0
  10525a:	641a      	str	r2, [r3, #64]	; 0x40
  10525c:	e006      	b.n	10526c <PAD_Crossbarconfig+0xb8>
  10525e:	9b01      	ldr	r3, [sp, #4]
  105260:	f5b3 3f00 	cmp.w	r3, #131072	; 0x20000
  105264:	d102      	bne.n	10526c <PAD_Crossbarconfig+0xb8>
  105266:	4b03      	ldr	r3, [pc, #12]	; (105274 <PAD_Crossbarconfig+0xc0>)
  105268:	2200      	movs	r2, #0
  10526a:	645a      	str	r2, [r3, #68]	; 0x44
  10526c:	bf00      	nop
  10526e:	b002      	add	sp, #8
  105270:	4770      	bx	lr
  105272:	bf00      	nop
  105274:	40010000 	.word	0x40010000

00105278 <_gpio_init_out>:
  105278:	b500      	push	{lr}
  10527a:	b085      	sub	sp, #20
  10527c:	9003      	str	r0, [sp, #12]
  10527e:	9102      	str	r1, [sp, #8]
  105280:	9300      	str	r3, [sp, #0]
  105282:	4613      	mov	r3, r2
  105284:	f88d 3007 	strb.w	r3, [sp, #7]
  105288:	9902      	ldr	r1, [sp, #8]
  10528a:	9803      	ldr	r0, [sp, #12]
  10528c:	f000 f99a 	bl	1055c4 <gpio_init>
  105290:	9b02      	ldr	r3, [sp, #8]
  105292:	f1b3 3fff 	cmp.w	r3, #4294967295
  105296:	d02b      	beq.n	1052f0 <_gpio_init_out+0x78>
  105298:	4a17      	ldr	r2, [pc, #92]	; (1052f8 <_gpio_init_out+0x80>)
  10529a:	4b17      	ldr	r3, [pc, #92]	; (1052f8 <_gpio_init_out+0x80>)
  10529c:	691b      	ldr	r3, [r3, #16]
  10529e:	f023 5380 	bic.w	r3, r3, #268435456	; 0x10000000
  1052a2:	6113      	str	r3, [r2, #16]
  1052a4:	9802      	ldr	r0, [sp, #8]
  1052a6:	f7ff ff23 	bl	1050f0 <PAD_out_Config>
  1052aa:	4a13      	ldr	r2, [pc, #76]	; (1052f8 <_gpio_init_out+0x80>)
  1052ac:	4b12      	ldr	r3, [pc, #72]	; (1052f8 <_gpio_init_out+0x80>)
  1052ae:	691b      	ldr	r3, [r3, #16]
  1052b0:	f043 5380 	orr.w	r3, r3, #268435456	; 0x10000000
  1052b4:	6113      	str	r3, [r2, #16]
  1052b6:	4a10      	ldr	r2, [pc, #64]	; (1052f8 <_gpio_init_out+0x80>)
  1052b8:	4b0f      	ldr	r3, [pc, #60]	; (1052f8 <_gpio_init_out+0x80>)
  1052ba:	691b      	ldr	r3, [r3, #16]
  1052bc:	f423 3380 	bic.w	r3, r3, #65536	; 0x10000
  1052c0:	6113      	str	r3, [r2, #16]
  1052c2:	9802      	ldr	r0, [sp, #8]
  1052c4:	f7ff ff76 	bl	1051b4 <PAD_Crossbarconfig>
  1052c8:	4a0b      	ldr	r2, [pc, #44]	; (1052f8 <_gpio_init_out+0x80>)
  1052ca:	4b0b      	ldr	r3, [pc, #44]	; (1052f8 <_gpio_init_out+0x80>)
  1052cc:	691b      	ldr	r3, [r3, #16]
  1052ce:	f443 3380 	orr.w	r3, r3, #65536	; 0x10000
  1052d2:	6113      	str	r3, [r2, #16]
  1052d4:	9900      	ldr	r1, [sp, #0]
  1052d6:	9803      	ldr	r0, [sp, #12]
  1052d8:	f7ff fec0 	bl	10505c <gpio_write>
  1052dc:	2101      	movs	r1, #1
  1052de:	9803      	ldr	r0, [sp, #12]
  1052e0:	f000 f9ac 	bl	10563c <gpio_dir>
  1052e4:	f89d 3007 	ldrb.w	r3, [sp, #7]
  1052e8:	4619      	mov	r1, r3
  1052ea:	9803      	ldr	r0, [sp, #12]
  1052ec:	f000 f99e 	bl	10562c <gpio_mode>
  1052f0:	bf00      	nop
  1052f2:	b005      	add	sp, #20
  1052f4:	f85d fb04 	ldr.w	pc, [sp], #4
  1052f8:	4001b000 	.word	0x4001b000

001052fc <gpio_init_in>:
  1052fc:	b500      	push	{lr}
  1052fe:	b083      	sub	sp, #12
  105300:	9001      	str	r0, [sp, #4]
  105302:	9100      	str	r1, [sp, #0]
  105304:	2203      	movs	r2, #3
  105306:	9900      	ldr	r1, [sp, #0]
  105308:	9801      	ldr	r0, [sp, #4]
  10530a:	f000 f805 	bl	105318 <gpio_init_in_ex>
  10530e:	bf00      	nop
  105310:	b003      	add	sp, #12
  105312:	f85d fb04 	ldr.w	pc, [sp], #4
  105316:	bf00      	nop

00105318 <gpio_init_in_ex>:
  105318:	b500      	push	{lr}
  10531a:	b085      	sub	sp, #20
  10531c:	9003      	str	r0, [sp, #12]
  10531e:	9102      	str	r1, [sp, #8]
  105320:	4613      	mov	r3, r2
  105322:	f88d 3007 	strb.w	r3, [sp, #7]
  105326:	f89d 3007 	ldrb.w	r3, [sp, #7]
  10532a:	461a      	mov	r2, r3
  10532c:	9902      	ldr	r1, [sp, #8]
  10532e:	9803      	ldr	r0, [sp, #12]
  105330:	f7ff fec0 	bl	1050b4 <_gpio_init_in>
  105334:	bf00      	nop
  105336:	b005      	add	sp, #20
  105338:	f85d fb04 	ldr.w	pc, [sp], #4

0010533c <gpio_init_out>:
  10533c:	b500      	push	{lr}
  10533e:	b083      	sub	sp, #12
  105340:	9001      	str	r0, [sp, #4]
  105342:	9100      	str	r1, [sp, #0]
  105344:	2200      	movs	r2, #0
  105346:	9900      	ldr	r1, [sp, #0]
  105348:	9801      	ldr	r0, [sp, #4]
  10534a:	f000 f805 	bl	105358 <gpio_init_out_ex>
  10534e:	bf00      	nop
  105350:	b003      	add	sp, #12
  105352:	f85d fb04 	ldr.w	pc, [sp], #4
  105356:	bf00      	nop

00105358 <gpio_init_out_ex>:
  105358:	b500      	push	{lr}
  10535a:	b085      	sub	sp, #20
  10535c:	9003      	str	r0, [sp, #12]
  10535e:	9102      	str	r1, [sp, #8]
  105360:	9201      	str	r2, [sp, #4]
  105362:	9b01      	ldr	r3, [sp, #4]
  105364:	2202      	movs	r2, #2
  105366:	9902      	ldr	r1, [sp, #8]
  105368:	9803      	ldr	r0, [sp, #12]
  10536a:	f7ff ff85 	bl	105278 <_gpio_init_out>
  10536e:	bf00      	nop
  105370:	b005      	add	sp, #20
  105372:	f85d fb04 	ldr.w	pc, [sp], #4
  105376:	bf00      	nop

00105378 <ticker_irq_handler>:
  105378:	b510      	push	{r4, lr}
  10537a:	b084      	sub	sp, #16
  10537c:	9001      	str	r0, [sp, #4]
  10537e:	9b01      	ldr	r3, [sp, #4]
  105380:	681b      	ldr	r3, [r3, #0]
  105382:	68db      	ldr	r3, [r3, #12]
  105384:	4798      	blx	r3
  105386:	9b01      	ldr	r3, [sp, #4]
  105388:	685b      	ldr	r3, [r3, #4]
  10538a:	685b      	ldr	r3, [r3, #4]
  10538c:	2b00      	cmp	r3, #0
  10538e:	d104      	bne.n	10539a <ticker_irq_handler+0x22>
  105390:	9b01      	ldr	r3, [sp, #4]
  105392:	681b      	ldr	r3, [r3, #0]
  105394:	689b      	ldr	r3, [r3, #8]
  105396:	4798      	blx	r3
  105398:	e02c      	b.n	1053f4 <ticker_irq_handler+0x7c>
  10539a:	9b01      	ldr	r3, [sp, #4]
  10539c:	685b      	ldr	r3, [r3, #4]
  10539e:	685b      	ldr	r3, [r3, #4]
  1053a0:	681c      	ldr	r4, [r3, #0]
  1053a2:	9b01      	ldr	r3, [sp, #4]
  1053a4:	681b      	ldr	r3, [r3, #0]
  1053a6:	685b      	ldr	r3, [r3, #4]
  1053a8:	4798      	blx	r3
  1053aa:	4603      	mov	r3, r0
  1053ac:	1ae3      	subs	r3, r4, r3
  1053ae:	2b00      	cmp	r3, #0
  1053b0:	dc17      	bgt.n	1053e2 <ticker_irq_handler+0x6a>
  1053b2:	9b01      	ldr	r3, [sp, #4]
  1053b4:	685b      	ldr	r3, [r3, #4]
  1053b6:	685b      	ldr	r3, [r3, #4]
  1053b8:	9303      	str	r3, [sp, #12]
  1053ba:	9b01      	ldr	r3, [sp, #4]
  1053bc:	685b      	ldr	r3, [r3, #4]
  1053be:	9a01      	ldr	r2, [sp, #4]
  1053c0:	6852      	ldr	r2, [r2, #4]
  1053c2:	6852      	ldr	r2, [r2, #4]
  1053c4:	6892      	ldr	r2, [r2, #8]
  1053c6:	605a      	str	r2, [r3, #4]
  1053c8:	9b01      	ldr	r3, [sp, #4]
  1053ca:	685b      	ldr	r3, [r3, #4]
  1053cc:	681b      	ldr	r3, [r3, #0]
  1053ce:	2b00      	cmp	r3, #0
  1053d0:	d0d9      	beq.n	105386 <ticker_irq_handler+0xe>
  1053d2:	9b01      	ldr	r3, [sp, #4]
  1053d4:	685b      	ldr	r3, [r3, #4]
  1053d6:	681b      	ldr	r3, [r3, #0]
  1053d8:	9a03      	ldr	r2, [sp, #12]
  1053da:	6852      	ldr	r2, [r2, #4]
  1053dc:	4610      	mov	r0, r2
  1053de:	4798      	blx	r3
  1053e0:	e7d1      	b.n	105386 <ticker_irq_handler+0xe>
  1053e2:	9b01      	ldr	r3, [sp, #4]
  1053e4:	681b      	ldr	r3, [r3, #0]
  1053e6:	691b      	ldr	r3, [r3, #16]
  1053e8:	9a01      	ldr	r2, [sp, #4]
  1053ea:	6852      	ldr	r2, [r2, #4]
  1053ec:	6852      	ldr	r2, [r2, #4]
  1053ee:	6812      	ldr	r2, [r2, #0]
  1053f0:	4610      	mov	r0, r2
  1053f2:	4798      	blx	r3
  1053f4:	b004      	add	sp, #16
  1053f6:	bd10      	pop	{r4, pc}

001053f8 <us_ticker_irq_handler>:
  1053f8:	b508      	push	{r3, lr}
  1053fa:	4802      	ldr	r0, [pc, #8]	; (105404 <us_ticker_irq_handler+0xc>)
  1053fc:	f7ff ffbc 	bl	105378 <ticker_irq_handler>
  105400:	bf00      	nop
  105402:	bd08      	pop	{r3, pc}
  105404:	0010e06c 	.word	0x0010e06c

00105408 <wait>:
  105408:	b500      	push	{lr}
  10540a:	b083      	sub	sp, #12
  10540c:	9001      	str	r0, [sp, #4]
  10540e:	4908      	ldr	r1, [pc, #32]	; (105430 <wait+0x28>)
  105410:	9801      	ldr	r0, [sp, #4]
  105412:	f003 f849 	bl	1084a8 <__aeabi_fmul>
  105416:	4603      	mov	r3, r0
  105418:	4618      	mov	r0, r3
  10541a:	f003 f995 	bl	108748 <__aeabi_f2iz>
  10541e:	4603      	mov	r3, r0
  105420:	4618      	mov	r0, r3
  105422:	f000 f817 	bl	105454 <wait_us>
  105426:	bf00      	nop
  105428:	b003      	add	sp, #12
  10542a:	f85d fb04 	ldr.w	pc, [sp], #4
  10542e:	bf00      	nop
  105430:	49742400 	.word	0x49742400

00105434 <wait_ms>:
  105434:	b500      	push	{lr}
  105436:	b083      	sub	sp, #12
  105438:	9001      	str	r0, [sp, #4]
  10543a:	9b01      	ldr	r3, [sp, #4]
  10543c:	f44f 727a 	mov.w	r2, #1000	; 0x3e8
  105440:	fb02 f303 	mul.w	r3, r2, r3
  105444:	4618      	mov	r0, r3
  105446:	f000 f805 	bl	105454 <wait_us>
  10544a:	bf00      	nop
  10544c:	b003      	add	sp, #12
  10544e:	f85d fb04 	ldr.w	pc, [sp], #4
  105452:	bf00      	nop

00105454 <wait_us>:
  105454:	b500      	push	{lr}
  105456:	b085      	sub	sp, #20
  105458:	9001      	str	r0, [sp, #4]
  10545a:	f001 fb07 	bl	106a6c <us_ticker_read>
  10545e:	9003      	str	r0, [sp, #12]
  105460:	bf00      	nop
  105462:	f001 fb03 	bl	106a6c <us_ticker_read>
  105466:	4602      	mov	r2, r0
  105468:	9b03      	ldr	r3, [sp, #12]
  10546a:	1ad2      	subs	r2, r2, r3
  10546c:	9b01      	ldr	r3, [sp, #4]
  10546e:	429a      	cmp	r2, r3
  105470:	d3f7      	bcc.n	105462 <wait_us+0xe>
  105472:	bf00      	nop
  105474:	b005      	add	sp, #20
  105476:	f85d fb04 	ldr.w	pc, [sp], #4
  10547a:	bf00      	nop

0010547c <fClockInit>:
  10547c:	b082      	sub	sp, #8
  10547e:	4a3a      	ldr	r2, [pc, #232]	; (105568 <fClockInit+0xec>)
  105480:	7813      	ldrb	r3, [r2, #0]
  105482:	f043 0301 	orr.w	r3, r3, #1
  105486:	7013      	strb	r3, [r2, #0]
  105488:	bf00      	nop
  10548a:	4b37      	ldr	r3, [pc, #220]	; (105568 <fClockInit+0xec>)
  10548c:	685b      	ldr	r3, [r3, #4]
  10548e:	f3c3 0300 	ubfx	r3, r3, #0, #1
  105492:	b2db      	uxtb	r3, r3
  105494:	2b01      	cmp	r3, #1
  105496:	d1f8      	bne.n	10548a <fClockInit+0xe>
  105498:	4a34      	ldr	r2, [pc, #208]	; (10556c <fClockInit+0xf0>)
  10549a:	8813      	ldrh	r3, [r2, #0]
  10549c:	f36f 1345 	bfc	r3, #5, #1
  1054a0:	8013      	strh	r3, [r2, #0]
  1054a2:	2300      	movs	r3, #0
  1054a4:	f88d 3007 	strb.w	r3, [sp, #7]
  1054a8:	e006      	b.n	1054b8 <fClockInit+0x3c>
  1054aa:	f89d 3007 	ldrb.w	r3, [sp, #7]
  1054ae:	b2db      	uxtb	r3, r3
  1054b0:	3301      	adds	r3, #1
  1054b2:	b2db      	uxtb	r3, r3
  1054b4:	f88d 3007 	strb.w	r3, [sp, #7]
  1054b8:	f89d 3007 	ldrb.w	r3, [sp, #7]
  1054bc:	b2db      	uxtb	r3, r3
  1054be:	2b09      	cmp	r3, #9
  1054c0:	d9f3      	bls.n	1054aa <fClockInit+0x2e>
  1054c2:	4a29      	ldr	r2, [pc, #164]	; (105568 <fClockInit+0xec>)
  1054c4:	7813      	ldrb	r3, [r2, #0]
  1054c6:	f043 0308 	orr.w	r3, r3, #8
  1054ca:	7013      	strb	r3, [r2, #0]
  1054cc:	bf00      	nop
  1054ce:	4b26      	ldr	r3, [pc, #152]	; (105568 <fClockInit+0xec>)
  1054d0:	685b      	ldr	r3, [r3, #4]
  1054d2:	f3c3 1340 	ubfx	r3, r3, #5, #1
  1054d6:	b2db      	uxtb	r3, r3
  1054d8:	2b00      	cmp	r3, #0
  1054da:	d0f8      	beq.n	1054ce <fClockInit+0x52>
  1054dc:	bf00      	nop
  1054de:	4b22      	ldr	r3, [pc, #136]	; (105568 <fClockInit+0xec>)
  1054e0:	685b      	ldr	r3, [r3, #4]
  1054e2:	f3c3 1300 	ubfx	r3, r3, #4, #1
  1054e6:	b2db      	uxtb	r3, r3
  1054e8:	2b01      	cmp	r3, #1
  1054ea:	d0f8      	beq.n	1054de <fClockInit+0x62>
  1054ec:	4a1f      	ldr	r2, [pc, #124]	; (10556c <fClockInit+0xf0>)
  1054ee:	8813      	ldrh	r3, [r2, #0]
  1054f0:	f043 0320 	orr.w	r3, r3, #32
  1054f4:	8013      	strh	r3, [r2, #0]
  1054f6:	4a1d      	ldr	r2, [pc, #116]	; (10556c <fClockInit+0xf0>)
  1054f8:	8813      	ldrh	r3, [r2, #0]
  1054fa:	f36f 1304 	bfc	r3, #4, #1
  1054fe:	8013      	strh	r3, [r2, #0]
  105500:	2300      	movs	r3, #0
  105502:	f88d 3007 	strb.w	r3, [sp, #7]
  105506:	e006      	b.n	105516 <fClockInit+0x9a>
  105508:	f89d 3007 	ldrb.w	r3, [sp, #7]
  10550c:	b2db      	uxtb	r3, r3
  10550e:	3301      	adds	r3, #1
  105510:	b2db      	uxtb	r3, r3
  105512:	f88d 3007 	strb.w	r3, [sp, #7]
  105516:	f89d 3007 	ldrb.w	r3, [sp, #7]
  10551a:	b2db      	uxtb	r3, r3
  10551c:	2b09      	cmp	r3, #9
  10551e:	d9f3      	bls.n	105508 <fClockInit+0x8c>
  105520:	4a11      	ldr	r2, [pc, #68]	; (105568 <fClockInit+0xec>)
  105522:	7813      	ldrb	r3, [r2, #0]
  105524:	f043 0304 	orr.w	r3, r3, #4
  105528:	7013      	strb	r3, [r2, #0]
  10552a:	bf00      	nop
  10552c:	4b0e      	ldr	r3, [pc, #56]	; (105568 <fClockInit+0xec>)
  10552e:	685b      	ldr	r3, [r3, #4]
  105530:	f3c3 03c0 	ubfx	r3, r3, #3, #1
  105534:	b2db      	uxtb	r3, r3
  105536:	2b00      	cmp	r3, #0
  105538:	d0f8      	beq.n	10552c <fClockInit+0xb0>
  10553a:	bf00      	nop
  10553c:	4b0a      	ldr	r3, [pc, #40]	; (105568 <fClockInit+0xec>)
  10553e:	685b      	ldr	r3, [r3, #4]
  105540:	f3c3 0380 	ubfx	r3, r3, #2, #1
  105544:	b2db      	uxtb	r3, r3
  105546:	2b01      	cmp	r3, #1
  105548:	d0f8      	beq.n	10553c <fClockInit+0xc0>
  10554a:	4a08      	ldr	r2, [pc, #32]	; (10556c <fClockInit+0xf0>)
  10554c:	8813      	ldrh	r3, [r2, #0]
  10554e:	f043 0308 	orr.w	r3, r3, #8
  105552:	8013      	strh	r3, [r2, #0]
  105554:	4b04      	ldr	r3, [pc, #16]	; (105568 <fClockInit+0xec>)
  105556:	f04f 32ff 	mov.w	r2, #4294967295
  10555a:	611a      	str	r2, [r3, #16]
  10555c:	4b02      	ldr	r3, [pc, #8]	; (105568 <fClockInit+0xec>)
  10555e:	2200      	movs	r2, #0
  105560:	615a      	str	r2, [r3, #20]
  105562:	bf00      	nop
  105564:	b002      	add	sp, #8
  105566:	4770      	bx	lr
  105568:	4001b000 	.word	0x4001b000
  10556c:	4001d000 	.word	0x4001d000

00105570 <SystemInit>:
  105570:	b508      	push	{r3, lr}
  105572:	4b0e      	ldr	r3, [pc, #56]	; (1055ac <SystemInit+0x3c>)
  105574:	f44f 1281 	mov.w	r2, #1056768	; 0x102000
  105578:	609a      	str	r2, [r3, #8]
  10557a:	f7ff ff7f 	bl	10547c <fClockInit>
  10557e:	4b0c      	ldr	r3, [pc, #48]	; (1055b0 <SystemInit+0x40>)
  105580:	2200      	movs	r2, #0
  105582:	601a      	str	r2, [r3, #0]
  105584:	4b0b      	ldr	r3, [pc, #44]	; (1055b4 <SystemInit+0x44>)
  105586:	221f      	movs	r2, #31
  105588:	f8c3 2080 	str.w	r2, [r3, #128]	; 0x80
  10558c:	4b09      	ldr	r3, [pc, #36]	; (1055b4 <SystemInit+0x44>)
  10558e:	221f      	movs	r2, #31
  105590:	f8c3 2180 	str.w	r2, [r3, #384]	; 0x180
  105594:	4b05      	ldr	r3, [pc, #20]	; (1055ac <SystemInit+0x3c>)
  105596:	f04f 6220 	mov.w	r2, #167772160	; 0xa000000
  10559a:	605a      	str	r2, [r3, #4]
  10559c:	4b06      	ldr	r3, [pc, #24]	; (1055b8 <SystemInit+0x48>)
  10559e:	2201      	movs	r2, #1
  1055a0:	601a      	str	r2, [r3, #0]
  1055a2:	4b06      	ldr	r3, [pc, #24]	; (1055bc <SystemInit+0x4c>)
  1055a4:	4a06      	ldr	r2, [pc, #24]	; (1055c0 <SystemInit+0x50>)
  1055a6:	601a      	str	r2, [r3, #0]
  1055a8:	bf00      	nop
  1055aa:	bd08      	pop	{r3, pc}
  1055ac:	e000ed00 	.word	0xe000ed00
  1055b0:	3fff538c 	.word	0x3fff538c
  1055b4:	e000e100 	.word	0xe000e100
  1055b8:	4001800c 	.word	0x4001800c
  1055bc:	3fff4098 	.word	0x3fff4098
  1055c0:	01e84800 	.word	0x01e84800

001055c4 <gpio_init>:
  1055c4:	b500      	push	{lr}
  1055c6:	b083      	sub	sp, #12
  1055c8:	9001      	str	r0, [sp, #4]
  1055ca:	9100      	str	r1, [sp, #0]
  1055cc:	9b01      	ldr	r3, [sp, #4]
  1055ce:	9a00      	ldr	r2, [sp, #0]
  1055d0:	601a      	str	r2, [r3, #0]
  1055d2:	9b00      	ldr	r3, [sp, #0]
  1055d4:	f1b3 3fff 	cmp.w	r3, #4294967295
  1055d8:	d017      	beq.n	10560a <gpio_init+0x46>
  1055da:	4b0e      	ldr	r3, [pc, #56]	; (105614 <gpio_init+0x50>)
  1055dc:	681a      	ldr	r2, [r3, #0]
  1055de:	9b00      	ldr	r3, [sp, #0]
  1055e0:	4013      	ands	r3, r2
  1055e2:	2b00      	cmp	r3, #0
  1055e4:	d004      	beq.n	1055f0 <gpio_init+0x2c>
  1055e6:	2253      	movs	r2, #83	; 0x53
  1055e8:	490b      	ldr	r1, [pc, #44]	; (105618 <gpio_init+0x54>)
  1055ea:	480c      	ldr	r0, [pc, #48]	; (10561c <gpio_init+0x58>)
  1055ec:	f7ff fd14 	bl	105018 <mbed_assert_internal>
  1055f0:	4a0b      	ldr	r2, [pc, #44]	; (105620 <gpio_init+0x5c>)
